
Bai8_ESP_Wifi.elf:     file format elf32-littlearm

Sections:
Idx Name          Size      VMA       LMA       File off  Algn
  0 .isr_vector   00000188  08000000  08000000  00010000  2**0
                  CONTENTS, ALLOC, LOAD, READONLY, DATA
  1 .text         00006f6c  08000188  08000188  00010188  2**2
                  CONTENTS, ALLOC, LOAD, READONLY, CODE
  2 .rodata       00002fb0  080070f4  080070f4  000170f4  2**2
                  CONTENTS, ALLOC, LOAD, READONLY, DATA
  3 .ARM.extab    00000000  0800a0a4  0800a0a4  00020014  2**0
                  CONTENTS
  4 .ARM          00000008  0800a0a4  0800a0a4  0001a0a4  2**2
                  CONTENTS, ALLOC, LOAD, READONLY, DATA
  5 .preinit_array 00000000  0800a0ac  0800a0ac  00020014  2**0
                  CONTENTS, ALLOC, LOAD, DATA
  6 .init_array   00000004  0800a0ac  0800a0ac  0001a0ac  2**2
                  CONTENTS, ALLOC, LOAD, DATA
  7 .fini_array   00000004  0800a0b0  0800a0b0  0001a0b0  2**2
                  CONTENTS, ALLOC, LOAD, DATA
  8 .data         00000014  20000000  0800a0b4  00020000  2**2
                  CONTENTS, ALLOC, LOAD, DATA
  9 .ccmram       00000000  10000000  10000000  00020014  2**0
                  CONTENTS
 10 .bss          00000354  20000014  20000014  00020014  2**2
                  ALLOC
 11 ._user_heap_stack 00000600  20000368  20000368  00020014  2**0
                  ALLOC
 12 .ARM.attributes 00000030  00000000  00000000  00020014  2**0
                  CONTENTS, READONLY
 13 .debug_info   0001a9b1  00000000  00000000  00020044  2**0
                  CONTENTS, READONLY, DEBUGGING, OCTETS
 14 .debug_abbrev 0000406f  00000000  00000000  0003a9f5  2**0
                  CONTENTS, READONLY, DEBUGGING, OCTETS
 15 .debug_aranges 00001690  00000000  00000000  0003ea68  2**3
                  CONTENTS, READONLY, DEBUGGING, OCTETS
 16 .debug_ranges 000014e8  00000000  00000000  000400f8  2**3
                  CONTENTS, READONLY, DEBUGGING, OCTETS
 17 .debug_macro  000266bf  00000000  00000000  000415e0  2**0
                  CONTENTS, READONLY, DEBUGGING, OCTETS
 18 .debug_line   0001f008  00000000  00000000  00067c9f  2**0
                  CONTENTS, READONLY, DEBUGGING, OCTETS
 19 .debug_str    000e0962  00000000  00000000  00086ca7  2**0
                  CONTENTS, READONLY, DEBUGGING, OCTETS
 20 .comment      00000050  00000000  00000000  00167609  2**0
                  CONTENTS, READONLY
 21 .debug_frame  00005d98  00000000  00000000  0016765c  2**2
                  CONTENTS, READONLY, DEBUGGING, OCTETS

Disassembly of section .text:

08000188 <__do_global_dtors_aux>:
 8000188:	b510      	push	{r4, lr}
 800018a:	4c05      	ldr	r4, [pc, #20]	; (80001a0 <__do_global_dtors_aux+0x18>)
 800018c:	7823      	ldrb	r3, [r4, #0]
 800018e:	b933      	cbnz	r3, 800019e <__do_global_dtors_aux+0x16>
 8000190:	4b04      	ldr	r3, [pc, #16]	; (80001a4 <__do_global_dtors_aux+0x1c>)
 8000192:	b113      	cbz	r3, 800019a <__do_global_dtors_aux+0x12>
 8000194:	4804      	ldr	r0, [pc, #16]	; (80001a8 <__do_global_dtors_aux+0x20>)
 8000196:	f3af 8000 	nop.w
 800019a:	2301      	movs	r3, #1
 800019c:	7023      	strb	r3, [r4, #0]
 800019e:	bd10      	pop	{r4, pc}
 80001a0:	20000014 	.word	0x20000014
 80001a4:	00000000 	.word	0x00000000
 80001a8:	080070dc 	.word	0x080070dc

080001ac <frame_dummy>:
 80001ac:	b508      	push	{r3, lr}
 80001ae:	4b03      	ldr	r3, [pc, #12]	; (80001bc <frame_dummy+0x10>)
 80001b0:	b11b      	cbz	r3, 80001ba <frame_dummy+0xe>
 80001b2:	4903      	ldr	r1, [pc, #12]	; (80001c0 <frame_dummy+0x14>)
 80001b4:	4803      	ldr	r0, [pc, #12]	; (80001c4 <frame_dummy+0x18>)
 80001b6:	f3af 8000 	nop.w
 80001ba:	bd08      	pop	{r3, pc}
 80001bc:	00000000 	.word	0x00000000
 80001c0:	20000018 	.word	0x20000018
 80001c4:	080070dc 	.word	0x080070dc

080001c8 <__aeabi_drsub>:
 80001c8:	f081 4100 	eor.w	r1, r1, #2147483648	; 0x80000000
 80001cc:	e002      	b.n	80001d4 <__adddf3>
 80001ce:	bf00      	nop

080001d0 <__aeabi_dsub>:
 80001d0:	f083 4300 	eor.w	r3, r3, #2147483648	; 0x80000000

080001d4 <__adddf3>:
 80001d4:	b530      	push	{r4, r5, lr}
 80001d6:	ea4f 0441 	mov.w	r4, r1, lsl #1
 80001da:	ea4f 0543 	mov.w	r5, r3, lsl #1
 80001de:	ea94 0f05 	teq	r4, r5
 80001e2:	bf08      	it	eq
 80001e4:	ea90 0f02 	teqeq	r0, r2
 80001e8:	bf1f      	itttt	ne
 80001ea:	ea54 0c00 	orrsne.w	ip, r4, r0
 80001ee:	ea55 0c02 	orrsne.w	ip, r5, r2
 80001f2:	ea7f 5c64 	mvnsne.w	ip, r4, asr #21
 80001f6:	ea7f 5c65 	mvnsne.w	ip, r5, asr #21
 80001fa:	f000 80e2 	beq.w	80003c2 <__adddf3+0x1ee>
 80001fe:	ea4f 5454 	mov.w	r4, r4, lsr #21
 8000202:	ebd4 5555 	rsbs	r5, r4, r5, lsr #21
 8000206:	bfb8      	it	lt
 8000208:	426d      	neglt	r5, r5
 800020a:	dd0c      	ble.n	8000226 <__adddf3+0x52>
 800020c:	442c      	add	r4, r5
 800020e:	ea80 0202 	eor.w	r2, r0, r2
 8000212:	ea81 0303 	eor.w	r3, r1, r3
 8000216:	ea82 0000 	eor.w	r0, r2, r0
 800021a:	ea83 0101 	eor.w	r1, r3, r1
 800021e:	ea80 0202 	eor.w	r2, r0, r2
 8000222:	ea81 0303 	eor.w	r3, r1, r3
 8000226:	2d36      	cmp	r5, #54	; 0x36
 8000228:	bf88      	it	hi
 800022a:	bd30      	pophi	{r4, r5, pc}
 800022c:	f011 4f00 	tst.w	r1, #2147483648	; 0x80000000
 8000230:	ea4f 3101 	mov.w	r1, r1, lsl #12
 8000234:	f44f 1c80 	mov.w	ip, #1048576	; 0x100000
 8000238:	ea4c 3111 	orr.w	r1, ip, r1, lsr #12
 800023c:	d002      	beq.n	8000244 <__adddf3+0x70>
 800023e:	4240      	negs	r0, r0
 8000240:	eb61 0141 	sbc.w	r1, r1, r1, lsl #1
 8000244:	f013 4f00 	tst.w	r3, #2147483648	; 0x80000000
 8000248:	ea4f 3303 	mov.w	r3, r3, lsl #12
 800024c:	ea4c 3313 	orr.w	r3, ip, r3, lsr #12
 8000250:	d002      	beq.n	8000258 <__adddf3+0x84>
 8000252:	4252      	negs	r2, r2
 8000254:	eb63 0343 	sbc.w	r3, r3, r3, lsl #1
 8000258:	ea94 0f05 	teq	r4, r5
 800025c:	f000 80a7 	beq.w	80003ae <__adddf3+0x1da>
 8000260:	f1a4 0401 	sub.w	r4, r4, #1
 8000264:	f1d5 0e20 	rsbs	lr, r5, #32
 8000268:	db0d      	blt.n	8000286 <__adddf3+0xb2>
 800026a:	fa02 fc0e 	lsl.w	ip, r2, lr
 800026e:	fa22 f205 	lsr.w	r2, r2, r5
 8000272:	1880      	adds	r0, r0, r2
 8000274:	f141 0100 	adc.w	r1, r1, #0
 8000278:	fa03 f20e 	lsl.w	r2, r3, lr
 800027c:	1880      	adds	r0, r0, r2
 800027e:	fa43 f305 	asr.w	r3, r3, r5
 8000282:	4159      	adcs	r1, r3
 8000284:	e00e      	b.n	80002a4 <__adddf3+0xd0>
 8000286:	f1a5 0520 	sub.w	r5, r5, #32
 800028a:	f10e 0e20 	add.w	lr, lr, #32
 800028e:	2a01      	cmp	r2, #1
 8000290:	fa03 fc0e 	lsl.w	ip, r3, lr
 8000294:	bf28      	it	cs
 8000296:	f04c 0c02 	orrcs.w	ip, ip, #2
 800029a:	fa43 f305 	asr.w	r3, r3, r5
 800029e:	18c0      	adds	r0, r0, r3
 80002a0:	eb51 71e3 	adcs.w	r1, r1, r3, asr #31
 80002a4:	f001 4500 	and.w	r5, r1, #2147483648	; 0x80000000
 80002a8:	d507      	bpl.n	80002ba <__adddf3+0xe6>
 80002aa:	f04f 0e00 	mov.w	lr, #0
 80002ae:	f1dc 0c00 	rsbs	ip, ip, #0
 80002b2:	eb7e 0000 	sbcs.w	r0, lr, r0
 80002b6:	eb6e 0101 	sbc.w	r1, lr, r1
 80002ba:	f5b1 1f80 	cmp.w	r1, #1048576	; 0x100000
 80002be:	d31b      	bcc.n	80002f8 <__adddf3+0x124>
 80002c0:	f5b1 1f00 	cmp.w	r1, #2097152	; 0x200000
 80002c4:	d30c      	bcc.n	80002e0 <__adddf3+0x10c>
 80002c6:	0849      	lsrs	r1, r1, #1
 80002c8:	ea5f 0030 	movs.w	r0, r0, rrx
 80002cc:	ea4f 0c3c 	mov.w	ip, ip, rrx
 80002d0:	f104 0401 	add.w	r4, r4, #1
 80002d4:	ea4f 5244 	mov.w	r2, r4, lsl #21
 80002d8:	f512 0f80 	cmn.w	r2, #4194304	; 0x400000
 80002dc:	f080 809a 	bcs.w	8000414 <__adddf3+0x240>
 80002e0:	f1bc 4f00 	cmp.w	ip, #2147483648	; 0x80000000
 80002e4:	bf08      	it	eq
 80002e6:	ea5f 0c50 	movseq.w	ip, r0, lsr #1
 80002ea:	f150 0000 	adcs.w	r0, r0, #0
 80002ee:	eb41 5104 	adc.w	r1, r1, r4, lsl #20
 80002f2:	ea41 0105 	orr.w	r1, r1, r5
 80002f6:	bd30      	pop	{r4, r5, pc}
 80002f8:	ea5f 0c4c 	movs.w	ip, ip, lsl #1
 80002fc:	4140      	adcs	r0, r0
 80002fe:	eb41 0101 	adc.w	r1, r1, r1
 8000302:	3c01      	subs	r4, #1
 8000304:	bf28      	it	cs
 8000306:	f5b1 1f80 	cmpcs.w	r1, #1048576	; 0x100000
 800030a:	d2e9      	bcs.n	80002e0 <__adddf3+0x10c>
 800030c:	f091 0f00 	teq	r1, #0
 8000310:	bf04      	itt	eq
 8000312:	4601      	moveq	r1, r0
 8000314:	2000      	moveq	r0, #0
 8000316:	fab1 f381 	clz	r3, r1
 800031a:	bf08      	it	eq
 800031c:	3320      	addeq	r3, #32
 800031e:	f1a3 030b 	sub.w	r3, r3, #11
 8000322:	f1b3 0220 	subs.w	r2, r3, #32
 8000326:	da0c      	bge.n	8000342 <__adddf3+0x16e>
 8000328:	320c      	adds	r2, #12
 800032a:	dd08      	ble.n	800033e <__adddf3+0x16a>
 800032c:	f102 0c14 	add.w	ip, r2, #20
 8000330:	f1c2 020c 	rsb	r2, r2, #12
 8000334:	fa01 f00c 	lsl.w	r0, r1, ip
 8000338:	fa21 f102 	lsr.w	r1, r1, r2
 800033c:	e00c      	b.n	8000358 <__adddf3+0x184>
 800033e:	f102 0214 	add.w	r2, r2, #20
 8000342:	bfd8      	it	le
 8000344:	f1c2 0c20 	rsble	ip, r2, #32
 8000348:	fa01 f102 	lsl.w	r1, r1, r2
 800034c:	fa20 fc0c 	lsr.w	ip, r0, ip
 8000350:	bfdc      	itt	le
 8000352:	ea41 010c 	orrle.w	r1, r1, ip
 8000356:	4090      	lslle	r0, r2
 8000358:	1ae4      	subs	r4, r4, r3
 800035a:	bfa2      	ittt	ge
 800035c:	eb01 5104 	addge.w	r1, r1, r4, lsl #20
 8000360:	4329      	orrge	r1, r5
 8000362:	bd30      	popge	{r4, r5, pc}
 8000364:	ea6f 0404 	mvn.w	r4, r4
 8000368:	3c1f      	subs	r4, #31
 800036a:	da1c      	bge.n	80003a6 <__adddf3+0x1d2>
 800036c:	340c      	adds	r4, #12
 800036e:	dc0e      	bgt.n	800038e <__adddf3+0x1ba>
 8000370:	f104 0414 	add.w	r4, r4, #20
 8000374:	f1c4 0220 	rsb	r2, r4, #32
 8000378:	fa20 f004 	lsr.w	r0, r0, r4
 800037c:	fa01 f302 	lsl.w	r3, r1, r2
 8000380:	ea40 0003 	orr.w	r0, r0, r3
 8000384:	fa21 f304 	lsr.w	r3, r1, r4
 8000388:	ea45 0103 	orr.w	r1, r5, r3
 800038c:	bd30      	pop	{r4, r5, pc}
 800038e:	f1c4 040c 	rsb	r4, r4, #12
 8000392:	f1c4 0220 	rsb	r2, r4, #32
 8000396:	fa20 f002 	lsr.w	r0, r0, r2
 800039a:	fa01 f304 	lsl.w	r3, r1, r4
 800039e:	ea40 0003 	orr.w	r0, r0, r3
 80003a2:	4629      	mov	r1, r5
 80003a4:	bd30      	pop	{r4, r5, pc}
 80003a6:	fa21 f004 	lsr.w	r0, r1, r4
 80003aa:	4629      	mov	r1, r5
 80003ac:	bd30      	pop	{r4, r5, pc}
 80003ae:	f094 0f00 	teq	r4, #0
 80003b2:	f483 1380 	eor.w	r3, r3, #1048576	; 0x100000
 80003b6:	bf06      	itte	eq
 80003b8:	f481 1180 	eoreq.w	r1, r1, #1048576	; 0x100000
 80003bc:	3401      	addeq	r4, #1
 80003be:	3d01      	subne	r5, #1
 80003c0:	e74e      	b.n	8000260 <__adddf3+0x8c>
 80003c2:	ea7f 5c64 	mvns.w	ip, r4, asr #21
 80003c6:	bf18      	it	ne
 80003c8:	ea7f 5c65 	mvnsne.w	ip, r5, asr #21
 80003cc:	d029      	beq.n	8000422 <__adddf3+0x24e>
 80003ce:	ea94 0f05 	teq	r4, r5
 80003d2:	bf08      	it	eq
 80003d4:	ea90 0f02 	teqeq	r0, r2
 80003d8:	d005      	beq.n	80003e6 <__adddf3+0x212>
 80003da:	ea54 0c00 	orrs.w	ip, r4, r0
 80003de:	bf04      	itt	eq
 80003e0:	4619      	moveq	r1, r3
 80003e2:	4610      	moveq	r0, r2
 80003e4:	bd30      	pop	{r4, r5, pc}
 80003e6:	ea91 0f03 	teq	r1, r3
 80003ea:	bf1e      	ittt	ne
 80003ec:	2100      	movne	r1, #0
 80003ee:	2000      	movne	r0, #0
 80003f0:	bd30      	popne	{r4, r5, pc}
 80003f2:	ea5f 5c54 	movs.w	ip, r4, lsr #21
 80003f6:	d105      	bne.n	8000404 <__adddf3+0x230>
 80003f8:	0040      	lsls	r0, r0, #1
 80003fa:	4149      	adcs	r1, r1
 80003fc:	bf28      	it	cs
 80003fe:	f041 4100 	orrcs.w	r1, r1, #2147483648	; 0x80000000
 8000402:	bd30      	pop	{r4, r5, pc}
 8000404:	f514 0480 	adds.w	r4, r4, #4194304	; 0x400000
 8000408:	bf3c      	itt	cc
 800040a:	f501 1180 	addcc.w	r1, r1, #1048576	; 0x100000
 800040e:	bd30      	popcc	{r4, r5, pc}
 8000410:	f001 4500 	and.w	r5, r1, #2147483648	; 0x80000000
 8000414:	f045 41fe 	orr.w	r1, r5, #2130706432	; 0x7f000000
 8000418:	f441 0170 	orr.w	r1, r1, #15728640	; 0xf00000
 800041c:	f04f 0000 	mov.w	r0, #0
 8000420:	bd30      	pop	{r4, r5, pc}
 8000422:	ea7f 5c64 	mvns.w	ip, r4, asr #21
 8000426:	bf1a      	itte	ne
 8000428:	4619      	movne	r1, r3
 800042a:	4610      	movne	r0, r2
 800042c:	ea7f 5c65 	mvnseq.w	ip, r5, asr #21
 8000430:	bf1c      	itt	ne
 8000432:	460b      	movne	r3, r1
 8000434:	4602      	movne	r2, r0
 8000436:	ea50 3401 	orrs.w	r4, r0, r1, lsl #12
 800043a:	bf06      	itte	eq
 800043c:	ea52 3503 	orrseq.w	r5, r2, r3, lsl #12
 8000440:	ea91 0f03 	teqeq	r1, r3
 8000444:	f441 2100 	orrne.w	r1, r1, #524288	; 0x80000
 8000448:	bd30      	pop	{r4, r5, pc}
 800044a:	bf00      	nop

0800044c <__aeabi_ui2d>:
 800044c:	f090 0f00 	teq	r0, #0
 8000450:	bf04      	itt	eq
 8000452:	2100      	moveq	r1, #0
 8000454:	4770      	bxeq	lr
 8000456:	b530      	push	{r4, r5, lr}
 8000458:	f44f 6480 	mov.w	r4, #1024	; 0x400
 800045c:	f104 0432 	add.w	r4, r4, #50	; 0x32
 8000460:	f04f 0500 	mov.w	r5, #0
 8000464:	f04f 0100 	mov.w	r1, #0
 8000468:	e750      	b.n	800030c <__adddf3+0x138>
 800046a:	bf00      	nop

0800046c <__aeabi_i2d>:
 800046c:	f090 0f00 	teq	r0, #0
 8000470:	bf04      	itt	eq
 8000472:	2100      	moveq	r1, #0
 8000474:	4770      	bxeq	lr
 8000476:	b530      	push	{r4, r5, lr}
 8000478:	f44f 6480 	mov.w	r4, #1024	; 0x400
 800047c:	f104 0432 	add.w	r4, r4, #50	; 0x32
 8000480:	f010 4500 	ands.w	r5, r0, #2147483648	; 0x80000000
 8000484:	bf48      	it	mi
 8000486:	4240      	negmi	r0, r0
 8000488:	f04f 0100 	mov.w	r1, #0
 800048c:	e73e      	b.n	800030c <__adddf3+0x138>
 800048e:	bf00      	nop

08000490 <__aeabi_f2d>:
 8000490:	0042      	lsls	r2, r0, #1
 8000492:	ea4f 01e2 	mov.w	r1, r2, asr #3
 8000496:	ea4f 0131 	mov.w	r1, r1, rrx
 800049a:	ea4f 7002 	mov.w	r0, r2, lsl #28
 800049e:	bf1f      	itttt	ne
 80004a0:	f012 437f 	andsne.w	r3, r2, #4278190080	; 0xff000000
 80004a4:	f093 4f7f 	teqne	r3, #4278190080	; 0xff000000
 80004a8:	f081 5160 	eorne.w	r1, r1, #939524096	; 0x38000000
 80004ac:	4770      	bxne	lr
 80004ae:	f032 427f 	bics.w	r2, r2, #4278190080	; 0xff000000
 80004b2:	bf08      	it	eq
 80004b4:	4770      	bxeq	lr
 80004b6:	f093 4f7f 	teq	r3, #4278190080	; 0xff000000
 80004ba:	bf04      	itt	eq
 80004bc:	f441 2100 	orreq.w	r1, r1, #524288	; 0x80000
 80004c0:	4770      	bxeq	lr
 80004c2:	b530      	push	{r4, r5, lr}
 80004c4:	f44f 7460 	mov.w	r4, #896	; 0x380
 80004c8:	f001 4500 	and.w	r5, r1, #2147483648	; 0x80000000
 80004cc:	f021 4100 	bic.w	r1, r1, #2147483648	; 0x80000000
 80004d0:	e71c      	b.n	800030c <__adddf3+0x138>
 80004d2:	bf00      	nop

080004d4 <__aeabi_ul2d>:
 80004d4:	ea50 0201 	orrs.w	r2, r0, r1
 80004d8:	bf08      	it	eq
 80004da:	4770      	bxeq	lr
 80004dc:	b530      	push	{r4, r5, lr}
 80004de:	f04f 0500 	mov.w	r5, #0
 80004e2:	e00a      	b.n	80004fa <__aeabi_l2d+0x16>

080004e4 <__aeabi_l2d>:
 80004e4:	ea50 0201 	orrs.w	r2, r0, r1
 80004e8:	bf08      	it	eq
 80004ea:	4770      	bxeq	lr
 80004ec:	b530      	push	{r4, r5, lr}
 80004ee:	f011 4500 	ands.w	r5, r1, #2147483648	; 0x80000000
 80004f2:	d502      	bpl.n	80004fa <__aeabi_l2d+0x16>
 80004f4:	4240      	negs	r0, r0
 80004f6:	eb61 0141 	sbc.w	r1, r1, r1, lsl #1
 80004fa:	f44f 6480 	mov.w	r4, #1024	; 0x400
 80004fe:	f104 0432 	add.w	r4, r4, #50	; 0x32
 8000502:	ea5f 5c91 	movs.w	ip, r1, lsr #22
 8000506:	f43f aed8 	beq.w	80002ba <__adddf3+0xe6>
 800050a:	f04f 0203 	mov.w	r2, #3
 800050e:	ea5f 0cdc 	movs.w	ip, ip, lsr #3
 8000512:	bf18      	it	ne
 8000514:	3203      	addne	r2, #3
 8000516:	ea5f 0cdc 	movs.w	ip, ip, lsr #3
 800051a:	bf18      	it	ne
 800051c:	3203      	addne	r2, #3
 800051e:	eb02 02dc 	add.w	r2, r2, ip, lsr #3
 8000522:	f1c2 0320 	rsb	r3, r2, #32
 8000526:	fa00 fc03 	lsl.w	ip, r0, r3
 800052a:	fa20 f002 	lsr.w	r0, r0, r2
 800052e:	fa01 fe03 	lsl.w	lr, r1, r3
 8000532:	ea40 000e 	orr.w	r0, r0, lr
 8000536:	fa21 f102 	lsr.w	r1, r1, r2
 800053a:	4414      	add	r4, r2
 800053c:	e6bd      	b.n	80002ba <__adddf3+0xe6>
 800053e:	bf00      	nop

08000540 <__aeabi_d2uiz>:
 8000540:	004a      	lsls	r2, r1, #1
 8000542:	d211      	bcs.n	8000568 <__aeabi_d2uiz+0x28>
 8000544:	f512 1200 	adds.w	r2, r2, #2097152	; 0x200000
 8000548:	d211      	bcs.n	800056e <__aeabi_d2uiz+0x2e>
 800054a:	d50d      	bpl.n	8000568 <__aeabi_d2uiz+0x28>
 800054c:	f46f 7378 	mvn.w	r3, #992	; 0x3e0
 8000550:	ebb3 5262 	subs.w	r2, r3, r2, asr #21
 8000554:	d40e      	bmi.n	8000574 <__aeabi_d2uiz+0x34>
 8000556:	ea4f 23c1 	mov.w	r3, r1, lsl #11
 800055a:	f043 4300 	orr.w	r3, r3, #2147483648	; 0x80000000
 800055e:	ea43 5350 	orr.w	r3, r3, r0, lsr #21
 8000562:	fa23 f002 	lsr.w	r0, r3, r2
 8000566:	4770      	bx	lr
 8000568:	f04f 0000 	mov.w	r0, #0
 800056c:	4770      	bx	lr
 800056e:	ea50 3001 	orrs.w	r0, r0, r1, lsl #12
 8000572:	d102      	bne.n	800057a <__aeabi_d2uiz+0x3a>
 8000574:	f04f 30ff 	mov.w	r0, #4294967295
 8000578:	4770      	bx	lr
 800057a:	f04f 0000 	mov.w	r0, #0
 800057e:	4770      	bx	lr

08000580 <__aeabi_uldivmod>:
 8000580:	b953      	cbnz	r3, 8000598 <__aeabi_uldivmod+0x18>
 8000582:	b94a      	cbnz	r2, 8000598 <__aeabi_uldivmod+0x18>
 8000584:	2900      	cmp	r1, #0
 8000586:	bf08      	it	eq
 8000588:	2800      	cmpeq	r0, #0
 800058a:	bf1c      	itt	ne
 800058c:	f04f 31ff 	movne.w	r1, #4294967295
 8000590:	f04f 30ff 	movne.w	r0, #4294967295
 8000594:	f000 b974 	b.w	8000880 <__aeabi_idiv0>
 8000598:	f1ad 0c08 	sub.w	ip, sp, #8
 800059c:	e96d ce04 	strd	ip, lr, [sp, #-16]!
 80005a0:	f000 f806 	bl	80005b0 <__udivmoddi4>
 80005a4:	f8dd e004 	ldr.w	lr, [sp, #4]
 80005a8:	e9dd 2302 	ldrd	r2, r3, [sp, #8]
 80005ac:	b004      	add	sp, #16
 80005ae:	4770      	bx	lr

080005b0 <__udivmoddi4>:
 80005b0:	e92d 47f0 	stmdb	sp!, {r4, r5, r6, r7, r8, r9, sl, lr}
 80005b4:	9d08      	ldr	r5, [sp, #32]
 80005b6:	4604      	mov	r4, r0
 80005b8:	468e      	mov	lr, r1
 80005ba:	2b00      	cmp	r3, #0
 80005bc:	d14d      	bne.n	800065a <__udivmoddi4+0xaa>
 80005be:	428a      	cmp	r2, r1
 80005c0:	4694      	mov	ip, r2
 80005c2:	d969      	bls.n	8000698 <__udivmoddi4+0xe8>
 80005c4:	fab2 f282 	clz	r2, r2
 80005c8:	b152      	cbz	r2, 80005e0 <__udivmoddi4+0x30>
 80005ca:	fa01 f302 	lsl.w	r3, r1, r2
 80005ce:	f1c2 0120 	rsb	r1, r2, #32
 80005d2:	fa20 f101 	lsr.w	r1, r0, r1
 80005d6:	fa0c fc02 	lsl.w	ip, ip, r2
 80005da:	ea41 0e03 	orr.w	lr, r1, r3
 80005de:	4094      	lsls	r4, r2
 80005e0:	ea4f 481c 	mov.w	r8, ip, lsr #16
 80005e4:	0c21      	lsrs	r1, r4, #16
 80005e6:	fbbe f6f8 	udiv	r6, lr, r8
 80005ea:	fa1f f78c 	uxth.w	r7, ip
 80005ee:	fb08 e316 	mls	r3, r8, r6, lr
 80005f2:	ea41 4303 	orr.w	r3, r1, r3, lsl #16
 80005f6:	fb06 f107 	mul.w	r1, r6, r7
 80005fa:	4299      	cmp	r1, r3
 80005fc:	d90a      	bls.n	8000614 <__udivmoddi4+0x64>
 80005fe:	eb1c 0303 	adds.w	r3, ip, r3
 8000602:	f106 30ff 	add.w	r0, r6, #4294967295
 8000606:	f080 811f 	bcs.w	8000848 <__udivmoddi4+0x298>
 800060a:	4299      	cmp	r1, r3
 800060c:	f240 811c 	bls.w	8000848 <__udivmoddi4+0x298>
 8000610:	3e02      	subs	r6, #2
 8000612:	4463      	add	r3, ip
 8000614:	1a5b      	subs	r3, r3, r1
 8000616:	b2a4      	uxth	r4, r4
 8000618:	fbb3 f0f8 	udiv	r0, r3, r8
 800061c:	fb08 3310 	mls	r3, r8, r0, r3
 8000620:	ea44 4403 	orr.w	r4, r4, r3, lsl #16
 8000624:	fb00 f707 	mul.w	r7, r0, r7
 8000628:	42a7      	cmp	r7, r4
 800062a:	d90a      	bls.n	8000642 <__udivmoddi4+0x92>
 800062c:	eb1c 0404 	adds.w	r4, ip, r4
 8000630:	f100 33ff 	add.w	r3, r0, #4294967295
 8000634:	f080 810a 	bcs.w	800084c <__udivmoddi4+0x29c>
 8000638:	42a7      	cmp	r7, r4
 800063a:	f240 8107 	bls.w	800084c <__udivmoddi4+0x29c>
 800063e:	4464      	add	r4, ip
 8000640:	3802      	subs	r0, #2
 8000642:	ea40 4006 	orr.w	r0, r0, r6, lsl #16
 8000646:	1be4      	subs	r4, r4, r7
 8000648:	2600      	movs	r6, #0
 800064a:	b11d      	cbz	r5, 8000654 <__udivmoddi4+0xa4>
 800064c:	40d4      	lsrs	r4, r2
 800064e:	2300      	movs	r3, #0
 8000650:	e9c5 4300 	strd	r4, r3, [r5]
 8000654:	4631      	mov	r1, r6
 8000656:	e8bd 87f0 	ldmia.w	sp!, {r4, r5, r6, r7, r8, r9, sl, pc}
 800065a:	428b      	cmp	r3, r1
 800065c:	d909      	bls.n	8000672 <__udivmoddi4+0xc2>
 800065e:	2d00      	cmp	r5, #0
 8000660:	f000 80ef 	beq.w	8000842 <__udivmoddi4+0x292>
 8000664:	2600      	movs	r6, #0
 8000666:	e9c5 0100 	strd	r0, r1, [r5]
 800066a:	4630      	mov	r0, r6
 800066c:	4631      	mov	r1, r6
 800066e:	e8bd 87f0 	ldmia.w	sp!, {r4, r5, r6, r7, r8, r9, sl, pc}
 8000672:	fab3 f683 	clz	r6, r3
 8000676:	2e00      	cmp	r6, #0
 8000678:	d14a      	bne.n	8000710 <__udivmoddi4+0x160>
 800067a:	428b      	cmp	r3, r1
 800067c:	d302      	bcc.n	8000684 <__udivmoddi4+0xd4>
 800067e:	4282      	cmp	r2, r0
 8000680:	f200 80f9 	bhi.w	8000876 <__udivmoddi4+0x2c6>
 8000684:	1a84      	subs	r4, r0, r2
 8000686:	eb61 0303 	sbc.w	r3, r1, r3
 800068a:	2001      	movs	r0, #1
 800068c:	469e      	mov	lr, r3
 800068e:	2d00      	cmp	r5, #0
 8000690:	d0e0      	beq.n	8000654 <__udivmoddi4+0xa4>
 8000692:	e9c5 4e00 	strd	r4, lr, [r5]
 8000696:	e7dd      	b.n	8000654 <__udivmoddi4+0xa4>
 8000698:	b902      	cbnz	r2, 800069c <__udivmoddi4+0xec>
 800069a:	deff      	udf	#255	; 0xff
 800069c:	fab2 f282 	clz	r2, r2
 80006a0:	2a00      	cmp	r2, #0
 80006a2:	f040 8092 	bne.w	80007ca <__udivmoddi4+0x21a>
 80006a6:	eba1 010c 	sub.w	r1, r1, ip
 80006aa:	ea4f 471c 	mov.w	r7, ip, lsr #16
 80006ae:	fa1f fe8c 	uxth.w	lr, ip
 80006b2:	2601      	movs	r6, #1
 80006b4:	0c20      	lsrs	r0, r4, #16
 80006b6:	fbb1 f3f7 	udiv	r3, r1, r7
 80006ba:	fb07 1113 	mls	r1, r7, r3, r1
 80006be:	ea40 4101 	orr.w	r1, r0, r1, lsl #16
 80006c2:	fb0e f003 	mul.w	r0, lr, r3
 80006c6:	4288      	cmp	r0, r1
 80006c8:	d908      	bls.n	80006dc <__udivmoddi4+0x12c>
 80006ca:	eb1c 0101 	adds.w	r1, ip, r1
 80006ce:	f103 38ff 	add.w	r8, r3, #4294967295
 80006d2:	d202      	bcs.n	80006da <__udivmoddi4+0x12a>
 80006d4:	4288      	cmp	r0, r1
 80006d6:	f200 80cb 	bhi.w	8000870 <__udivmoddi4+0x2c0>
 80006da:	4643      	mov	r3, r8
 80006dc:	1a09      	subs	r1, r1, r0
 80006de:	b2a4      	uxth	r4, r4
 80006e0:	fbb1 f0f7 	udiv	r0, r1, r7
 80006e4:	fb07 1110 	mls	r1, r7, r0, r1
 80006e8:	ea44 4401 	orr.w	r4, r4, r1, lsl #16
 80006ec:	fb0e fe00 	mul.w	lr, lr, r0
 80006f0:	45a6      	cmp	lr, r4
 80006f2:	d908      	bls.n	8000706 <__udivmoddi4+0x156>
 80006f4:	eb1c 0404 	adds.w	r4, ip, r4
 80006f8:	f100 31ff 	add.w	r1, r0, #4294967295
 80006fc:	d202      	bcs.n	8000704 <__udivmoddi4+0x154>
 80006fe:	45a6      	cmp	lr, r4
 8000700:	f200 80bb 	bhi.w	800087a <__udivmoddi4+0x2ca>
 8000704:	4608      	mov	r0, r1
 8000706:	eba4 040e 	sub.w	r4, r4, lr
 800070a:	ea40 4003 	orr.w	r0, r0, r3, lsl #16
 800070e:	e79c      	b.n	800064a <__udivmoddi4+0x9a>
 8000710:	f1c6 0720 	rsb	r7, r6, #32
 8000714:	40b3      	lsls	r3, r6
 8000716:	fa22 fc07 	lsr.w	ip, r2, r7
 800071a:	ea4c 0c03 	orr.w	ip, ip, r3
 800071e:	fa20 f407 	lsr.w	r4, r0, r7
 8000722:	fa01 f306 	lsl.w	r3, r1, r6
 8000726:	431c      	orrs	r4, r3
 8000728:	40f9      	lsrs	r1, r7
 800072a:	ea4f 491c 	mov.w	r9, ip, lsr #16
 800072e:	fa00 f306 	lsl.w	r3, r0, r6
 8000732:	fbb1 f8f9 	udiv	r8, r1, r9
 8000736:	0c20      	lsrs	r0, r4, #16
 8000738:	fa1f fe8c 	uxth.w	lr, ip
 800073c:	fb09 1118 	mls	r1, r9, r8, r1
 8000740:	ea40 4101 	orr.w	r1, r0, r1, lsl #16
 8000744:	fb08 f00e 	mul.w	r0, r8, lr
 8000748:	4288      	cmp	r0, r1
 800074a:	fa02 f206 	lsl.w	r2, r2, r6
 800074e:	d90b      	bls.n	8000768 <__udivmoddi4+0x1b8>
 8000750:	eb1c 0101 	adds.w	r1, ip, r1
 8000754:	f108 3aff 	add.w	sl, r8, #4294967295
 8000758:	f080 8088 	bcs.w	800086c <__udivmoddi4+0x2bc>
 800075c:	4288      	cmp	r0, r1
 800075e:	f240 8085 	bls.w	800086c <__udivmoddi4+0x2bc>
 8000762:	f1a8 0802 	sub.w	r8, r8, #2
 8000766:	4461      	add	r1, ip
 8000768:	1a09      	subs	r1, r1, r0
 800076a:	b2a4      	uxth	r4, r4
 800076c:	fbb1 f0f9 	udiv	r0, r1, r9
 8000770:	fb09 1110 	mls	r1, r9, r0, r1
 8000774:	ea44 4101 	orr.w	r1, r4, r1, lsl #16
 8000778:	fb00 fe0e 	mul.w	lr, r0, lr
 800077c:	458e      	cmp	lr, r1
 800077e:	d908      	bls.n	8000792 <__udivmoddi4+0x1e2>
 8000780:	eb1c 0101 	adds.w	r1, ip, r1
 8000784:	f100 34ff 	add.w	r4, r0, #4294967295
 8000788:	d26c      	bcs.n	8000864 <__udivmoddi4+0x2b4>
 800078a:	458e      	cmp	lr, r1
 800078c:	d96a      	bls.n	8000864 <__udivmoddi4+0x2b4>
 800078e:	3802      	subs	r0, #2
 8000790:	4461      	add	r1, ip
 8000792:	ea40 4008 	orr.w	r0, r0, r8, lsl #16
 8000796:	fba0 9402 	umull	r9, r4, r0, r2
 800079a:	eba1 010e 	sub.w	r1, r1, lr
 800079e:	42a1      	cmp	r1, r4
 80007a0:	46c8      	mov	r8, r9
 80007a2:	46a6      	mov	lr, r4
 80007a4:	d356      	bcc.n	8000854 <__udivmoddi4+0x2a4>
 80007a6:	d053      	beq.n	8000850 <__udivmoddi4+0x2a0>
 80007a8:	b15d      	cbz	r5, 80007c2 <__udivmoddi4+0x212>
 80007aa:	ebb3 0208 	subs.w	r2, r3, r8
 80007ae:	eb61 010e 	sbc.w	r1, r1, lr
 80007b2:	fa01 f707 	lsl.w	r7, r1, r7
 80007b6:	fa22 f306 	lsr.w	r3, r2, r6
 80007ba:	40f1      	lsrs	r1, r6
 80007bc:	431f      	orrs	r7, r3
 80007be:	e9c5 7100 	strd	r7, r1, [r5]
 80007c2:	2600      	movs	r6, #0
 80007c4:	4631      	mov	r1, r6
 80007c6:	e8bd 87f0 	ldmia.w	sp!, {r4, r5, r6, r7, r8, r9, sl, pc}
 80007ca:	f1c2 0320 	rsb	r3, r2, #32
 80007ce:	40d8      	lsrs	r0, r3
 80007d0:	fa0c fc02 	lsl.w	ip, ip, r2
 80007d4:	fa21 f303 	lsr.w	r3, r1, r3
 80007d8:	4091      	lsls	r1, r2
 80007da:	4301      	orrs	r1, r0
 80007dc:	ea4f 471c 	mov.w	r7, ip, lsr #16
 80007e0:	fa1f fe8c 	uxth.w	lr, ip
 80007e4:	fbb3 f0f7 	udiv	r0, r3, r7
 80007e8:	fb07 3610 	mls	r6, r7, r0, r3
 80007ec:	0c0b      	lsrs	r3, r1, #16
 80007ee:	ea43 4306 	orr.w	r3, r3, r6, lsl #16
 80007f2:	fb00 f60e 	mul.w	r6, r0, lr
 80007f6:	429e      	cmp	r6, r3
 80007f8:	fa04 f402 	lsl.w	r4, r4, r2
 80007fc:	d908      	bls.n	8000810 <__udivmoddi4+0x260>
 80007fe:	eb1c 0303 	adds.w	r3, ip, r3
 8000802:	f100 38ff 	add.w	r8, r0, #4294967295
 8000806:	d22f      	bcs.n	8000868 <__udivmoddi4+0x2b8>
 8000808:	429e      	cmp	r6, r3
 800080a:	d92d      	bls.n	8000868 <__udivmoddi4+0x2b8>
 800080c:	3802      	subs	r0, #2
 800080e:	4463      	add	r3, ip
 8000810:	1b9b      	subs	r3, r3, r6
 8000812:	b289      	uxth	r1, r1
 8000814:	fbb3 f6f7 	udiv	r6, r3, r7
 8000818:	fb07 3316 	mls	r3, r7, r6, r3
 800081c:	ea41 4103 	orr.w	r1, r1, r3, lsl #16
 8000820:	fb06 f30e 	mul.w	r3, r6, lr
 8000824:	428b      	cmp	r3, r1
 8000826:	d908      	bls.n	800083a <__udivmoddi4+0x28a>
 8000828:	eb1c 0101 	adds.w	r1, ip, r1
 800082c:	f106 38ff 	add.w	r8, r6, #4294967295
 8000830:	d216      	bcs.n	8000860 <__udivmoddi4+0x2b0>
 8000832:	428b      	cmp	r3, r1
 8000834:	d914      	bls.n	8000860 <__udivmoddi4+0x2b0>
 8000836:	3e02      	subs	r6, #2
 8000838:	4461      	add	r1, ip
 800083a:	1ac9      	subs	r1, r1, r3
 800083c:	ea46 4600 	orr.w	r6, r6, r0, lsl #16
 8000840:	e738      	b.n	80006b4 <__udivmoddi4+0x104>
 8000842:	462e      	mov	r6, r5
 8000844:	4628      	mov	r0, r5
 8000846:	e705      	b.n	8000654 <__udivmoddi4+0xa4>
 8000848:	4606      	mov	r6, r0
 800084a:	e6e3      	b.n	8000614 <__udivmoddi4+0x64>
 800084c:	4618      	mov	r0, r3
 800084e:	e6f8      	b.n	8000642 <__udivmoddi4+0x92>
 8000850:	454b      	cmp	r3, r9
 8000852:	d2a9      	bcs.n	80007a8 <__udivmoddi4+0x1f8>
 8000854:	ebb9 0802 	subs.w	r8, r9, r2
 8000858:	eb64 0e0c 	sbc.w	lr, r4, ip
 800085c:	3801      	subs	r0, #1
 800085e:	e7a3      	b.n	80007a8 <__udivmoddi4+0x1f8>
 8000860:	4646      	mov	r6, r8
 8000862:	e7ea      	b.n	800083a <__udivmoddi4+0x28a>
 8000864:	4620      	mov	r0, r4
 8000866:	e794      	b.n	8000792 <__udivmoddi4+0x1e2>
 8000868:	4640      	mov	r0, r8
 800086a:	e7d1      	b.n	8000810 <__udivmoddi4+0x260>
 800086c:	46d0      	mov	r8, sl
 800086e:	e77b      	b.n	8000768 <__udivmoddi4+0x1b8>
 8000870:	3b02      	subs	r3, #2
 8000872:	4461      	add	r1, ip
 8000874:	e732      	b.n	80006dc <__udivmoddi4+0x12c>
 8000876:	4630      	mov	r0, r6
 8000878:	e709      	b.n	800068e <__udivmoddi4+0xde>
 800087a:	4464      	add	r4, ip
 800087c:	3802      	subs	r0, #2
 800087e:	e742      	b.n	8000706 <__udivmoddi4+0x156>

08000880 <__aeabi_idiv0>:
 8000880:	4770      	bx	lr
 8000882:	bf00      	nop

08000884 <MX_ADC1_Init>:
 8000884:	b580      	push	{r7, lr}
 8000886:	b084      	sub	sp, #16
 8000888:	af00      	add	r7, sp, #0
 800088a:	463b      	mov	r3, r7
 800088c:	2200      	movs	r2, #0
 800088e:	601a      	str	r2, [r3, #0]
 8000890:	605a      	str	r2, [r3, #4]
 8000892:	609a      	str	r2, [r3, #8]
 8000894:	60da      	str	r2, [r3, #12]
 8000896:	4b3d      	ldr	r3, [pc, #244]	; (800098c <MX_ADC1_Init+0x108>)
 8000898:	4a3d      	ldr	r2, [pc, #244]	; (8000990 <MX_ADC1_Init+0x10c>)
 800089a:	601a      	str	r2, [r3, #0]
 800089c:	4b3b      	ldr	r3, [pc, #236]	; (800098c <MX_ADC1_Init+0x108>)
 800089e:	2200      	movs	r2, #0
 80008a0:	605a      	str	r2, [r3, #4]
 80008a2:	4b3a      	ldr	r3, [pc, #232]	; (800098c <MX_ADC1_Init+0x108>)
 80008a4:	2200      	movs	r2, #0
 80008a6:	609a      	str	r2, [r3, #8]
 80008a8:	4b38      	ldr	r3, [pc, #224]	; (800098c <MX_ADC1_Init+0x108>)
 80008aa:	2201      	movs	r2, #1
 80008ac:	611a      	str	r2, [r3, #16]
 80008ae:	4b37      	ldr	r3, [pc, #220]	; (800098c <MX_ADC1_Init+0x108>)
 80008b0:	2200      	movs	r2, #0
 80008b2:	761a      	strb	r2, [r3, #24]
 80008b4:	4b35      	ldr	r3, [pc, #212]	; (800098c <MX_ADC1_Init+0x108>)
 80008b6:	2200      	movs	r2, #0
 80008b8:	f883 2020 	strb.w	r2, [r3, #32]
 80008bc:	4b33      	ldr	r3, [pc, #204]	; (800098c <MX_ADC1_Init+0x108>)
 80008be:	2200      	movs	r2, #0
 80008c0:	62da      	str	r2, [r3, #44]	; 0x2c
 80008c2:	4b32      	ldr	r3, [pc, #200]	; (800098c <MX_ADC1_Init+0x108>)
 80008c4:	4a33      	ldr	r2, [pc, #204]	; (8000994 <MX_ADC1_Init+0x110>)
 80008c6:	629a      	str	r2, [r3, #40]	; 0x28
 80008c8:	4b30      	ldr	r3, [pc, #192]	; (800098c <MX_ADC1_Init+0x108>)
 80008ca:	2200      	movs	r2, #0
 80008cc:	60da      	str	r2, [r3, #12]
 80008ce:	4b2f      	ldr	r3, [pc, #188]	; (800098c <MX_ADC1_Init+0x108>)
 80008d0:	2205      	movs	r2, #5
 80008d2:	61da      	str	r2, [r3, #28]
 80008d4:	4b2d      	ldr	r3, [pc, #180]	; (800098c <MX_ADC1_Init+0x108>)
 80008d6:	2200      	movs	r2, #0
 80008d8:	f883 2030 	strb.w	r2, [r3, #48]	; 0x30
 80008dc:	4b2b      	ldr	r3, [pc, #172]	; (800098c <MX_ADC1_Init+0x108>)
 80008de:	2201      	movs	r2, #1
 80008e0:	615a      	str	r2, [r3, #20]
 80008e2:	482a      	ldr	r0, [pc, #168]	; (800098c <MX_ADC1_Init+0x108>)
 80008e4:	f001 fec0 	bl	8002668 <HAL_ADC_Init>
 80008e8:	4603      	mov	r3, r0
 80008ea:	2b00      	cmp	r3, #0
 80008ec:	d001      	beq.n	80008f2 <MX_ADC1_Init+0x6e>
 80008ee:	f001 f995 	bl	8001c1c <Error_Handler>
 80008f2:	2308      	movs	r3, #8
 80008f4:	603b      	str	r3, [r7, #0]
 80008f6:	2301      	movs	r3, #1
 80008f8:	607b      	str	r3, [r7, #4]
 80008fa:	2300      	movs	r3, #0
 80008fc:	60bb      	str	r3, [r7, #8]
 80008fe:	463b      	mov	r3, r7
 8000900:	4619      	mov	r1, r3
 8000902:	4822      	ldr	r0, [pc, #136]	; (800098c <MX_ADC1_Init+0x108>)
 8000904:	f002 f822 	bl	800294c <HAL_ADC_ConfigChannel>
 8000908:	4603      	mov	r3, r0
 800090a:	2b00      	cmp	r3, #0
 800090c:	d001      	beq.n	8000912 <MX_ADC1_Init+0x8e>
 800090e:	f001 f985 	bl	8001c1c <Error_Handler>
 8000912:	2309      	movs	r3, #9
 8000914:	603b      	str	r3, [r7, #0]
 8000916:	2302      	movs	r3, #2
 8000918:	607b      	str	r3, [r7, #4]
 800091a:	463b      	mov	r3, r7
 800091c:	4619      	mov	r1, r3
 800091e:	481b      	ldr	r0, [pc, #108]	; (800098c <MX_ADC1_Init+0x108>)
 8000920:	f002 f814 	bl	800294c <HAL_ADC_ConfigChannel>
 8000924:	4603      	mov	r3, r0
 8000926:	2b00      	cmp	r3, #0
 8000928:	d001      	beq.n	800092e <MX_ADC1_Init+0xaa>
 800092a:	f001 f977 	bl	8001c1c <Error_Handler>
 800092e:	230a      	movs	r3, #10
 8000930:	603b      	str	r3, [r7, #0]
 8000932:	2303      	movs	r3, #3
 8000934:	607b      	str	r3, [r7, #4]
 8000936:	463b      	mov	r3, r7
 8000938:	4619      	mov	r1, r3
 800093a:	4814      	ldr	r0, [pc, #80]	; (800098c <MX_ADC1_Init+0x108>)
 800093c:	f002 f806 	bl	800294c <HAL_ADC_ConfigChannel>
 8000940:	4603      	mov	r3, r0
 8000942:	2b00      	cmp	r3, #0
 8000944:	d001      	beq.n	800094a <MX_ADC1_Init+0xc6>
 8000946:	f001 f969 	bl	8001c1c <Error_Handler>
 800094a:	230b      	movs	r3, #11
 800094c:	603b      	str	r3, [r7, #0]
 800094e:	2304      	movs	r3, #4
 8000950:	607b      	str	r3, [r7, #4]
 8000952:	463b      	mov	r3, r7
 8000954:	4619      	mov	r1, r3
 8000956:	480d      	ldr	r0, [pc, #52]	; (800098c <MX_ADC1_Init+0x108>)
 8000958:	f001 fff8 	bl	800294c <HAL_ADC_ConfigChannel>
 800095c:	4603      	mov	r3, r0
 800095e:	2b00      	cmp	r3, #0
 8000960:	d001      	beq.n	8000966 <MX_ADC1_Init+0xe2>
 8000962:	f001 f95b 	bl	8001c1c <Error_Handler>
 8000966:	230c      	movs	r3, #12
 8000968:	603b      	str	r3, [r7, #0]
 800096a:	2305      	movs	r3, #5
 800096c:	607b      	str	r3, [r7, #4]
 800096e:	463b      	mov	r3, r7
 8000970:	4619      	mov	r1, r3
 8000972:	4806      	ldr	r0, [pc, #24]	; (800098c <MX_ADC1_Init+0x108>)
 8000974:	f001 ffea 	bl	800294c <HAL_ADC_ConfigChannel>
 8000978:	4603      	mov	r3, r0
 800097a:	2b00      	cmp	r3, #0
 800097c:	d001      	beq.n	8000982 <MX_ADC1_Init+0xfe>
 800097e:	f001 f94d 	bl	8001c1c <Error_Handler>
 8000982:	bf00      	nop
 8000984:	3710      	adds	r7, #16
 8000986:	46bd      	mov	sp, r7
 8000988:	bd80      	pop	{r7, pc}
 800098a:	bf00      	nop
 800098c:	20000030 	.word	0x20000030
 8000990:	40012000 	.word	0x40012000
 8000994:	0f000001 	.word	0x0f000001

08000998 <HAL_ADC_MspInit>:
 8000998:	b580      	push	{r7, lr}
 800099a:	b08a      	sub	sp, #40	; 0x28
 800099c:	af00      	add	r7, sp, #0
 800099e:	6078      	str	r0, [r7, #4]
 80009a0:	f107 0314 	add.w	r3, r7, #20
 80009a4:	2200      	movs	r2, #0
 80009a6:	601a      	str	r2, [r3, #0]
 80009a8:	605a      	str	r2, [r3, #4]
 80009aa:	609a      	str	r2, [r3, #8]
 80009ac:	60da      	str	r2, [r3, #12]
 80009ae:	611a      	str	r2, [r3, #16]
 80009b0:	687b      	ldr	r3, [r7, #4]
 80009b2:	681b      	ldr	r3, [r3, #0]
 80009b4:	4a3c      	ldr	r2, [pc, #240]	; (8000aa8 <HAL_ADC_MspInit+0x110>)
 80009b6:	4293      	cmp	r3, r2
 80009b8:	d171      	bne.n	8000a9e <HAL_ADC_MspInit+0x106>
 80009ba:	2300      	movs	r3, #0
 80009bc:	613b      	str	r3, [r7, #16]
 80009be:	4b3b      	ldr	r3, [pc, #236]	; (8000aac <HAL_ADC_MspInit+0x114>)
 80009c0:	6c5b      	ldr	r3, [r3, #68]	; 0x44
 80009c2:	4a3a      	ldr	r2, [pc, #232]	; (8000aac <HAL_ADC_MspInit+0x114>)
 80009c4:	f443 7380 	orr.w	r3, r3, #256	; 0x100
 80009c8:	6453      	str	r3, [r2, #68]	; 0x44
 80009ca:	4b38      	ldr	r3, [pc, #224]	; (8000aac <HAL_ADC_MspInit+0x114>)
 80009cc:	6c5b      	ldr	r3, [r3, #68]	; 0x44
 80009ce:	f403 7380 	and.w	r3, r3, #256	; 0x100
 80009d2:	613b      	str	r3, [r7, #16]
 80009d4:	693b      	ldr	r3, [r7, #16]
 80009d6:	2300      	movs	r3, #0
 80009d8:	60fb      	str	r3, [r7, #12]
 80009da:	4b34      	ldr	r3, [pc, #208]	; (8000aac <HAL_ADC_MspInit+0x114>)
 80009dc:	6b1b      	ldr	r3, [r3, #48]	; 0x30
 80009de:	4a33      	ldr	r2, [pc, #204]	; (8000aac <HAL_ADC_MspInit+0x114>)
 80009e0:	f043 0304 	orr.w	r3, r3, #4
 80009e4:	6313      	str	r3, [r2, #48]	; 0x30
 80009e6:	4b31      	ldr	r3, [pc, #196]	; (8000aac <HAL_ADC_MspInit+0x114>)
 80009e8:	6b1b      	ldr	r3, [r3, #48]	; 0x30
 80009ea:	f003 0304 	and.w	r3, r3, #4
 80009ee:	60fb      	str	r3, [r7, #12]
 80009f0:	68fb      	ldr	r3, [r7, #12]
 80009f2:	2300      	movs	r3, #0
 80009f4:	60bb      	str	r3, [r7, #8]
 80009f6:	4b2d      	ldr	r3, [pc, #180]	; (8000aac <HAL_ADC_MspInit+0x114>)
 80009f8:	6b1b      	ldr	r3, [r3, #48]	; 0x30
 80009fa:	4a2c      	ldr	r2, [pc, #176]	; (8000aac <HAL_ADC_MspInit+0x114>)
 80009fc:	f043 0302 	orr.w	r3, r3, #2
 8000a00:	6313      	str	r3, [r2, #48]	; 0x30
 8000a02:	4b2a      	ldr	r3, [pc, #168]	; (8000aac <HAL_ADC_MspInit+0x114>)
 8000a04:	6b1b      	ldr	r3, [r3, #48]	; 0x30
 8000a06:	f003 0302 	and.w	r3, r3, #2
 8000a0a:	60bb      	str	r3, [r7, #8]
 8000a0c:	68bb      	ldr	r3, [r7, #8]
 8000a0e:	2307      	movs	r3, #7
 8000a10:	617b      	str	r3, [r7, #20]
 8000a12:	2303      	movs	r3, #3
 8000a14:	61bb      	str	r3, [r7, #24]
 8000a16:	2300      	movs	r3, #0
 8000a18:	61fb      	str	r3, [r7, #28]
 8000a1a:	f107 0314 	add.w	r3, r7, #20
 8000a1e:	4619      	mov	r1, r3
 8000a20:	4823      	ldr	r0, [pc, #140]	; (8000ab0 <HAL_ADC_MspInit+0x118>)
 8000a22:	f002 ff47 	bl	80038b4 <HAL_GPIO_Init>
 8000a26:	2303      	movs	r3, #3
 8000a28:	617b      	str	r3, [r7, #20]
 8000a2a:	2303      	movs	r3, #3
 8000a2c:	61bb      	str	r3, [r7, #24]
 8000a2e:	2300      	movs	r3, #0
 8000a30:	61fb      	str	r3, [r7, #28]
 8000a32:	f107 0314 	add.w	r3, r7, #20
 8000a36:	4619      	mov	r1, r3
 8000a38:	481e      	ldr	r0, [pc, #120]	; (8000ab4 <HAL_ADC_MspInit+0x11c>)
 8000a3a:	f002 ff3b 	bl	80038b4 <HAL_GPIO_Init>
 8000a3e:	4b1e      	ldr	r3, [pc, #120]	; (8000ab8 <HAL_ADC_MspInit+0x120>)
 8000a40:	4a1e      	ldr	r2, [pc, #120]	; (8000abc <HAL_ADC_MspInit+0x124>)
 8000a42:	601a      	str	r2, [r3, #0]
 8000a44:	4b1c      	ldr	r3, [pc, #112]	; (8000ab8 <HAL_ADC_MspInit+0x120>)
 8000a46:	2200      	movs	r2, #0
 8000a48:	605a      	str	r2, [r3, #4]
 8000a4a:	4b1b      	ldr	r3, [pc, #108]	; (8000ab8 <HAL_ADC_MspInit+0x120>)
 8000a4c:	2200      	movs	r2, #0
 8000a4e:	609a      	str	r2, [r3, #8]
 8000a50:	4b19      	ldr	r3, [pc, #100]	; (8000ab8 <HAL_ADC_MspInit+0x120>)
 8000a52:	2200      	movs	r2, #0
 8000a54:	60da      	str	r2, [r3, #12]
 8000a56:	4b18      	ldr	r3, [pc, #96]	; (8000ab8 <HAL_ADC_MspInit+0x120>)
 8000a58:	f44f 6280 	mov.w	r2, #1024	; 0x400
 8000a5c:	611a      	str	r2, [r3, #16]
 8000a5e:	4b16      	ldr	r3, [pc, #88]	; (8000ab8 <HAL_ADC_MspInit+0x120>)
 8000a60:	f44f 6200 	mov.w	r2, #2048	; 0x800
 8000a64:	615a      	str	r2, [r3, #20]
 8000a66:	4b14      	ldr	r3, [pc, #80]	; (8000ab8 <HAL_ADC_MspInit+0x120>)
 8000a68:	f44f 5200 	mov.w	r2, #8192	; 0x2000
 8000a6c:	619a      	str	r2, [r3, #24]
 8000a6e:	4b12      	ldr	r3, [pc, #72]	; (8000ab8 <HAL_ADC_MspInit+0x120>)
 8000a70:	f44f 7280 	mov.w	r2, #256	; 0x100
 8000a74:	61da      	str	r2, [r3, #28]
 8000a76:	4b10      	ldr	r3, [pc, #64]	; (8000ab8 <HAL_ADC_MspInit+0x120>)
 8000a78:	2200      	movs	r2, #0
 8000a7a:	621a      	str	r2, [r3, #32]
 8000a7c:	4b0e      	ldr	r3, [pc, #56]	; (8000ab8 <HAL_ADC_MspInit+0x120>)
 8000a7e:	2200      	movs	r2, #0
 8000a80:	625a      	str	r2, [r3, #36]	; 0x24
 8000a82:	480d      	ldr	r0, [pc, #52]	; (8000ab8 <HAL_ADC_MspInit+0x120>)
 8000a84:	f002 fb14 	bl	80030b0 <HAL_DMA_Init>
 8000a88:	4603      	mov	r3, r0
 8000a8a:	2b00      	cmp	r3, #0
 8000a8c:	d001      	beq.n	8000a92 <HAL_ADC_MspInit+0xfa>
 8000a8e:	f001 f8c5 	bl	8001c1c <Error_Handler>
 8000a92:	687b      	ldr	r3, [r7, #4]
 8000a94:	4a08      	ldr	r2, [pc, #32]	; (8000ab8 <HAL_ADC_MspInit+0x120>)
 8000a96:	639a      	str	r2, [r3, #56]	; 0x38
 8000a98:	4a07      	ldr	r2, [pc, #28]	; (8000ab8 <HAL_ADC_MspInit+0x120>)
 8000a9a:	687b      	ldr	r3, [r7, #4]
 8000a9c:	6393      	str	r3, [r2, #56]	; 0x38
 8000a9e:	bf00      	nop
 8000aa0:	3728      	adds	r7, #40	; 0x28
 8000aa2:	46bd      	mov	sp, r7
 8000aa4:	bd80      	pop	{r7, pc}
 8000aa6:	bf00      	nop
 8000aa8:	40012000 	.word	0x40012000
 8000aac:	40023800 	.word	0x40023800
 8000ab0:	40020800 	.word	0x40020800
 8000ab4:	40020400 	.word	0x40020400
 8000ab8:	20000078 	.word	0x20000078
 8000abc:	40026410 	.word	0x40026410

08000ac0 <button_init>:
 8000ac0:	b580      	push	{r7, lr}
 8000ac2:	af00      	add	r7, sp, #0
 8000ac4:	2201      	movs	r2, #1
 8000ac6:	2108      	movs	r1, #8
 8000ac8:	4802      	ldr	r0, [pc, #8]	; (8000ad4 <button_init+0x14>)
 8000aca:	f003 f8a7 	bl	8003c1c <HAL_GPIO_WritePin>
 8000ace:	bf00      	nop
 8000ad0:	bd80      	pop	{r7, pc}
 8000ad2:	bf00      	nop
 8000ad4:	40020c00 	.word	0x40020c00

08000ad8 <MX_DMA_Init>:
 8000ad8:	b580      	push	{r7, lr}
 8000ada:	b082      	sub	sp, #8
 8000adc:	af00      	add	r7, sp, #0
 8000ade:	2300      	movs	r3, #0
 8000ae0:	607b      	str	r3, [r7, #4]
 8000ae2:	4b0c      	ldr	r3, [pc, #48]	; (8000b14 <MX_DMA_Init+0x3c>)
 8000ae4:	6b1b      	ldr	r3, [r3, #48]	; 0x30
 8000ae6:	4a0b      	ldr	r2, [pc, #44]	; (8000b14 <MX_DMA_Init+0x3c>)
 8000ae8:	f443 0380 	orr.w	r3, r3, #4194304	; 0x400000
 8000aec:	6313      	str	r3, [r2, #48]	; 0x30
 8000aee:	4b09      	ldr	r3, [pc, #36]	; (8000b14 <MX_DMA_Init+0x3c>)
 8000af0:	6b1b      	ldr	r3, [r3, #48]	; 0x30
 8000af2:	f403 0380 	and.w	r3, r3, #4194304	; 0x400000
 8000af6:	607b      	str	r3, [r7, #4]
 8000af8:	687b      	ldr	r3, [r7, #4]
 8000afa:	2200      	movs	r2, #0
 8000afc:	2100      	movs	r1, #0
 8000afe:	2038      	movs	r0, #56	; 0x38
 8000b00:	f002 fa9f 	bl	8003042 <HAL_NVIC_SetPriority>
 8000b04:	2038      	movs	r0, #56	; 0x38
 8000b06:	f002 fab8 	bl	800307a <HAL_NVIC_EnableIRQ>
 8000b0a:	bf00      	nop
 8000b0c:	3708      	adds	r7, #8
 8000b0e:	46bd      	mov	sp, r7
 8000b10:	bd80      	pop	{r7, pc}
 8000b12:	bf00      	nop
 8000b14:	40023800 	.word	0x40023800

08000b18 <MX_FSMC_Init>:
 8000b18:	b580      	push	{r7, lr}
 8000b1a:	b08e      	sub	sp, #56	; 0x38
 8000b1c:	af00      	add	r7, sp, #0
 8000b1e:	f107 031c 	add.w	r3, r7, #28
 8000b22:	2200      	movs	r2, #0
 8000b24:	601a      	str	r2, [r3, #0]
 8000b26:	605a      	str	r2, [r3, #4]
 8000b28:	609a      	str	r2, [r3, #8]
 8000b2a:	60da      	str	r2, [r3, #12]
 8000b2c:	611a      	str	r2, [r3, #16]
 8000b2e:	615a      	str	r2, [r3, #20]
 8000b30:	619a      	str	r2, [r3, #24]
 8000b32:	463b      	mov	r3, r7
 8000b34:	2200      	movs	r2, #0
 8000b36:	601a      	str	r2, [r3, #0]
 8000b38:	605a      	str	r2, [r3, #4]
 8000b3a:	609a      	str	r2, [r3, #8]
 8000b3c:	60da      	str	r2, [r3, #12]
 8000b3e:	611a      	str	r2, [r3, #16]
 8000b40:	615a      	str	r2, [r3, #20]
 8000b42:	619a      	str	r2, [r3, #24]
 8000b44:	4b2f      	ldr	r3, [pc, #188]	; (8000c04 <MX_FSMC_Init+0xec>)
 8000b46:	f04f 4220 	mov.w	r2, #2684354560	; 0xa0000000
 8000b4a:	601a      	str	r2, [r3, #0]
 8000b4c:	4b2d      	ldr	r3, [pc, #180]	; (8000c04 <MX_FSMC_Init+0xec>)
 8000b4e:	4a2e      	ldr	r2, [pc, #184]	; (8000c08 <MX_FSMC_Init+0xf0>)
 8000b50:	605a      	str	r2, [r3, #4]
 8000b52:	4b2c      	ldr	r3, [pc, #176]	; (8000c04 <MX_FSMC_Init+0xec>)
 8000b54:	2200      	movs	r2, #0
 8000b56:	609a      	str	r2, [r3, #8]
 8000b58:	4b2a      	ldr	r3, [pc, #168]	; (8000c04 <MX_FSMC_Init+0xec>)
 8000b5a:	2200      	movs	r2, #0
 8000b5c:	60da      	str	r2, [r3, #12]
 8000b5e:	4b29      	ldr	r3, [pc, #164]	; (8000c04 <MX_FSMC_Init+0xec>)
 8000b60:	2200      	movs	r2, #0
 8000b62:	611a      	str	r2, [r3, #16]
 8000b64:	4b27      	ldr	r3, [pc, #156]	; (8000c04 <MX_FSMC_Init+0xec>)
 8000b66:	2210      	movs	r2, #16
 8000b68:	615a      	str	r2, [r3, #20]
 8000b6a:	4b26      	ldr	r3, [pc, #152]	; (8000c04 <MX_FSMC_Init+0xec>)
 8000b6c:	2200      	movs	r2, #0
 8000b6e:	619a      	str	r2, [r3, #24]
 8000b70:	4b24      	ldr	r3, [pc, #144]	; (8000c04 <MX_FSMC_Init+0xec>)
 8000b72:	2200      	movs	r2, #0
 8000b74:	61da      	str	r2, [r3, #28]
 8000b76:	4b23      	ldr	r3, [pc, #140]	; (8000c04 <MX_FSMC_Init+0xec>)
 8000b78:	2200      	movs	r2, #0
 8000b7a:	621a      	str	r2, [r3, #32]
 8000b7c:	4b21      	ldr	r3, [pc, #132]	; (8000c04 <MX_FSMC_Init+0xec>)
 8000b7e:	2200      	movs	r2, #0
 8000b80:	625a      	str	r2, [r3, #36]	; 0x24
 8000b82:	4b20      	ldr	r3, [pc, #128]	; (8000c04 <MX_FSMC_Init+0xec>)
 8000b84:	f44f 5280 	mov.w	r2, #4096	; 0x1000
 8000b88:	629a      	str	r2, [r3, #40]	; 0x28
 8000b8a:	4b1e      	ldr	r3, [pc, #120]	; (8000c04 <MX_FSMC_Init+0xec>)
 8000b8c:	2200      	movs	r2, #0
 8000b8e:	62da      	str	r2, [r3, #44]	; 0x2c
 8000b90:	4b1c      	ldr	r3, [pc, #112]	; (8000c04 <MX_FSMC_Init+0xec>)
 8000b92:	f44f 4280 	mov.w	r2, #16384	; 0x4000
 8000b96:	631a      	str	r2, [r3, #48]	; 0x30
 8000b98:	4b1a      	ldr	r3, [pc, #104]	; (8000c04 <MX_FSMC_Init+0xec>)
 8000b9a:	2200      	movs	r2, #0
 8000b9c:	635a      	str	r2, [r3, #52]	; 0x34
 8000b9e:	4b19      	ldr	r3, [pc, #100]	; (8000c04 <MX_FSMC_Init+0xec>)
 8000ba0:	2200      	movs	r2, #0
 8000ba2:	639a      	str	r2, [r3, #56]	; 0x38
 8000ba4:	4b17      	ldr	r3, [pc, #92]	; (8000c04 <MX_FSMC_Init+0xec>)
 8000ba6:	2200      	movs	r2, #0
 8000ba8:	645a      	str	r2, [r3, #68]	; 0x44
 8000baa:	230f      	movs	r3, #15
 8000bac:	61fb      	str	r3, [r7, #28]
 8000bae:	230f      	movs	r3, #15
 8000bb0:	623b      	str	r3, [r7, #32]
 8000bb2:	233c      	movs	r3, #60	; 0x3c
 8000bb4:	627b      	str	r3, [r7, #36]	; 0x24
 8000bb6:	2300      	movs	r3, #0
 8000bb8:	62bb      	str	r3, [r7, #40]	; 0x28
 8000bba:	2310      	movs	r3, #16
 8000bbc:	62fb      	str	r3, [r7, #44]	; 0x2c
 8000bbe:	2311      	movs	r3, #17
 8000bc0:	633b      	str	r3, [r7, #48]	; 0x30
 8000bc2:	2300      	movs	r3, #0
 8000bc4:	637b      	str	r3, [r7, #52]	; 0x34
 8000bc6:	2308      	movs	r3, #8
 8000bc8:	603b      	str	r3, [r7, #0]
 8000bca:	230f      	movs	r3, #15
 8000bcc:	607b      	str	r3, [r7, #4]
 8000bce:	2309      	movs	r3, #9
 8000bd0:	60bb      	str	r3, [r7, #8]
 8000bd2:	2300      	movs	r3, #0
 8000bd4:	60fb      	str	r3, [r7, #12]
 8000bd6:	2310      	movs	r3, #16
 8000bd8:	613b      	str	r3, [r7, #16]
 8000bda:	2311      	movs	r3, #17
 8000bdc:	617b      	str	r3, [r7, #20]
 8000bde:	2300      	movs	r3, #0
 8000be0:	61bb      	str	r3, [r7, #24]
 8000be2:	463a      	mov	r2, r7
 8000be4:	f107 031c 	add.w	r3, r7, #28
 8000be8:	4619      	mov	r1, r3
 8000bea:	4806      	ldr	r0, [pc, #24]	; (8000c04 <MX_FSMC_Init+0xec>)
 8000bec:	f004 f8b6 	bl	8004d5c <HAL_SRAM_Init>
 8000bf0:	4603      	mov	r3, r0
 8000bf2:	2b00      	cmp	r3, #0
 8000bf4:	d001      	beq.n	8000bfa <MX_FSMC_Init+0xe2>
 8000bf6:	f001 f811 	bl	8001c1c <Error_Handler>
 8000bfa:	bf00      	nop
 8000bfc:	3738      	adds	r7, #56	; 0x38
 8000bfe:	46bd      	mov	sp, r7
 8000c00:	bd80      	pop	{r7, pc}
 8000c02:	bf00      	nop
 8000c04:	200000d8 	.word	0x200000d8
 8000c08:	a0000104 	.word	0xa0000104

08000c0c <HAL_FSMC_MspInit>:
 8000c0c:	b580      	push	{r7, lr}
 8000c0e:	b086      	sub	sp, #24
 8000c10:	af00      	add	r7, sp, #0
 8000c12:	1d3b      	adds	r3, r7, #4
 8000c14:	2200      	movs	r2, #0
 8000c16:	601a      	str	r2, [r3, #0]
 8000c18:	605a      	str	r2, [r3, #4]
 8000c1a:	609a      	str	r2, [r3, #8]
 8000c1c:	60da      	str	r2, [r3, #12]
 8000c1e:	611a      	str	r2, [r3, #16]
 8000c20:	4b1c      	ldr	r3, [pc, #112]	; (8000c94 <HAL_FSMC_MspInit+0x88>)
 8000c22:	681b      	ldr	r3, [r3, #0]
 8000c24:	2b00      	cmp	r3, #0
 8000c26:	d131      	bne.n	8000c8c <HAL_FSMC_MspInit+0x80>
 8000c28:	4b1a      	ldr	r3, [pc, #104]	; (8000c94 <HAL_FSMC_MspInit+0x88>)
 8000c2a:	2201      	movs	r2, #1
 8000c2c:	601a      	str	r2, [r3, #0]
 8000c2e:	2300      	movs	r3, #0
 8000c30:	603b      	str	r3, [r7, #0]
 8000c32:	4b19      	ldr	r3, [pc, #100]	; (8000c98 <HAL_FSMC_MspInit+0x8c>)
 8000c34:	6b9b      	ldr	r3, [r3, #56]	; 0x38
 8000c36:	4a18      	ldr	r2, [pc, #96]	; (8000c98 <HAL_FSMC_MspInit+0x8c>)
 8000c38:	f043 0301 	orr.w	r3, r3, #1
 8000c3c:	6393      	str	r3, [r2, #56]	; 0x38
 8000c3e:	4b16      	ldr	r3, [pc, #88]	; (8000c98 <HAL_FSMC_MspInit+0x8c>)
 8000c40:	6b9b      	ldr	r3, [r3, #56]	; 0x38
 8000c42:	f003 0301 	and.w	r3, r3, #1
 8000c46:	603b      	str	r3, [r7, #0]
 8000c48:	683b      	ldr	r3, [r7, #0]
 8000c4a:	f64f 7388 	movw	r3, #65416	; 0xff88
 8000c4e:	607b      	str	r3, [r7, #4]
 8000c50:	2302      	movs	r3, #2
 8000c52:	60bb      	str	r3, [r7, #8]
 8000c54:	2300      	movs	r3, #0
 8000c56:	60fb      	str	r3, [r7, #12]
 8000c58:	2303      	movs	r3, #3
 8000c5a:	613b      	str	r3, [r7, #16]
 8000c5c:	230c      	movs	r3, #12
 8000c5e:	617b      	str	r3, [r7, #20]
 8000c60:	1d3b      	adds	r3, r7, #4
 8000c62:	4619      	mov	r1, r3
 8000c64:	480d      	ldr	r0, [pc, #52]	; (8000c9c <HAL_FSMC_MspInit+0x90>)
 8000c66:	f002 fe25 	bl	80038b4 <HAL_GPIO_Init>
 8000c6a:	f24c 73b3 	movw	r3, #51123	; 0xc7b3
 8000c6e:	607b      	str	r3, [r7, #4]
 8000c70:	2302      	movs	r3, #2
 8000c72:	60bb      	str	r3, [r7, #8]
 8000c74:	2300      	movs	r3, #0
 8000c76:	60fb      	str	r3, [r7, #12]
 8000c78:	2303      	movs	r3, #3
 8000c7a:	613b      	str	r3, [r7, #16]
 8000c7c:	230c      	movs	r3, #12
 8000c7e:	617b      	str	r3, [r7, #20]
 8000c80:	1d3b      	adds	r3, r7, #4
 8000c82:	4619      	mov	r1, r3
 8000c84:	4806      	ldr	r0, [pc, #24]	; (8000ca0 <HAL_FSMC_MspInit+0x94>)
 8000c86:	f002 fe15 	bl	80038b4 <HAL_GPIO_Init>
 8000c8a:	e000      	b.n	8000c8e <HAL_FSMC_MspInit+0x82>
 8000c8c:	bf00      	nop
 8000c8e:	3718      	adds	r7, #24
 8000c90:	46bd      	mov	sp, r7
 8000c92:	bd80      	pop	{r7, pc}
 8000c94:	20000128 	.word	0x20000128
 8000c98:	40023800 	.word	0x40023800
 8000c9c:	40021000 	.word	0x40021000
 8000ca0:	40020c00 	.word	0x40020c00

08000ca4 <HAL_SRAM_MspInit>:
 8000ca4:	b580      	push	{r7, lr}
 8000ca6:	b082      	sub	sp, #8
 8000ca8:	af00      	add	r7, sp, #0
 8000caa:	6078      	str	r0, [r7, #4]
 8000cac:	f7ff ffae 	bl	8000c0c <HAL_FSMC_MspInit>
 8000cb0:	bf00      	nop
 8000cb2:	3708      	adds	r7, #8
 8000cb4:	46bd      	mov	sp, r7
 8000cb6:	bd80      	pop	{r7, pc}

08000cb8 <MX_GPIO_Init>:
 8000cb8:	b580      	push	{r7, lr}
 8000cba:	b08e      	sub	sp, #56	; 0x38
 8000cbc:	af00      	add	r7, sp, #0
 8000cbe:	f107 0324 	add.w	r3, r7, #36	; 0x24
 8000cc2:	2200      	movs	r2, #0
 8000cc4:	601a      	str	r2, [r3, #0]
 8000cc6:	605a      	str	r2, [r3, #4]
 8000cc8:	609a      	str	r2, [r3, #8]
 8000cca:	60da      	str	r2, [r3, #12]
 8000ccc:	611a      	str	r2, [r3, #16]
 8000cce:	2300      	movs	r3, #0
 8000cd0:	623b      	str	r3, [r7, #32]
 8000cd2:	4b8f      	ldr	r3, [pc, #572]	; (8000f10 <MX_GPIO_Init+0x258>)
 8000cd4:	6b1b      	ldr	r3, [r3, #48]	; 0x30
 8000cd6:	4a8e      	ldr	r2, [pc, #568]	; (8000f10 <MX_GPIO_Init+0x258>)
 8000cd8:	f043 0310 	orr.w	r3, r3, #16
 8000cdc:	6313      	str	r3, [r2, #48]	; 0x30
 8000cde:	4b8c      	ldr	r3, [pc, #560]	; (8000f10 <MX_GPIO_Init+0x258>)
 8000ce0:	6b1b      	ldr	r3, [r3, #48]	; 0x30
 8000ce2:	f003 0310 	and.w	r3, r3, #16
 8000ce6:	623b      	str	r3, [r7, #32]
 8000ce8:	6a3b      	ldr	r3, [r7, #32]
 8000cea:	2300      	movs	r3, #0
 8000cec:	61fb      	str	r3, [r7, #28]
 8000cee:	4b88      	ldr	r3, [pc, #544]	; (8000f10 <MX_GPIO_Init+0x258>)
 8000cf0:	6b1b      	ldr	r3, [r3, #48]	; 0x30
 8000cf2:	4a87      	ldr	r2, [pc, #540]	; (8000f10 <MX_GPIO_Init+0x258>)
 8000cf4:	f043 0304 	orr.w	r3, r3, #4
 8000cf8:	6313      	str	r3, [r2, #48]	; 0x30
 8000cfa:	4b85      	ldr	r3, [pc, #532]	; (8000f10 <MX_GPIO_Init+0x258>)
 8000cfc:	6b1b      	ldr	r3, [r3, #48]	; 0x30
 8000cfe:	f003 0304 	and.w	r3, r3, #4
 8000d02:	61fb      	str	r3, [r7, #28]
 8000d04:	69fb      	ldr	r3, [r7, #28]
 8000d06:	2300      	movs	r3, #0
 8000d08:	61bb      	str	r3, [r7, #24]
 8000d0a:	4b81      	ldr	r3, [pc, #516]	; (8000f10 <MX_GPIO_Init+0x258>)
 8000d0c:	6b1b      	ldr	r3, [r3, #48]	; 0x30
 8000d0e:	4a80      	ldr	r2, [pc, #512]	; (8000f10 <MX_GPIO_Init+0x258>)
 8000d10:	f043 0320 	orr.w	r3, r3, #32
 8000d14:	6313      	str	r3, [r2, #48]	; 0x30
 8000d16:	4b7e      	ldr	r3, [pc, #504]	; (8000f10 <MX_GPIO_Init+0x258>)
 8000d18:	6b1b      	ldr	r3, [r3, #48]	; 0x30
 8000d1a:	f003 0320 	and.w	r3, r3, #32
 8000d1e:	61bb      	str	r3, [r7, #24]
 8000d20:	69bb      	ldr	r3, [r7, #24]
 8000d22:	2300      	movs	r3, #0
 8000d24:	617b      	str	r3, [r7, #20]
 8000d26:	4b7a      	ldr	r3, [pc, #488]	; (8000f10 <MX_GPIO_Init+0x258>)
 8000d28:	6b1b      	ldr	r3, [r3, #48]	; 0x30
 8000d2a:	4a79      	ldr	r2, [pc, #484]	; (8000f10 <MX_GPIO_Init+0x258>)
 8000d2c:	f043 0380 	orr.w	r3, r3, #128	; 0x80
 8000d30:	6313      	str	r3, [r2, #48]	; 0x30
 8000d32:	4b77      	ldr	r3, [pc, #476]	; (8000f10 <MX_GPIO_Init+0x258>)
 8000d34:	6b1b      	ldr	r3, [r3, #48]	; 0x30
 8000d36:	f003 0380 	and.w	r3, r3, #128	; 0x80
 8000d3a:	617b      	str	r3, [r7, #20]
 8000d3c:	697b      	ldr	r3, [r7, #20]
 8000d3e:	2300      	movs	r3, #0
 8000d40:	613b      	str	r3, [r7, #16]
 8000d42:	4b73      	ldr	r3, [pc, #460]	; (8000f10 <MX_GPIO_Init+0x258>)
 8000d44:	6b1b      	ldr	r3, [r3, #48]	; 0x30
 8000d46:	4a72      	ldr	r2, [pc, #456]	; (8000f10 <MX_GPIO_Init+0x258>)
 8000d48:	f043 0301 	orr.w	r3, r3, #1
 8000d4c:	6313      	str	r3, [r2, #48]	; 0x30
 8000d4e:	4b70      	ldr	r3, [pc, #448]	; (8000f10 <MX_GPIO_Init+0x258>)
 8000d50:	6b1b      	ldr	r3, [r3, #48]	; 0x30
 8000d52:	f003 0301 	and.w	r3, r3, #1
 8000d56:	613b      	str	r3, [r7, #16]
 8000d58:	693b      	ldr	r3, [r7, #16]
 8000d5a:	2300      	movs	r3, #0
 8000d5c:	60fb      	str	r3, [r7, #12]
 8000d5e:	4b6c      	ldr	r3, [pc, #432]	; (8000f10 <MX_GPIO_Init+0x258>)
 8000d60:	6b1b      	ldr	r3, [r3, #48]	; 0x30
 8000d62:	4a6b      	ldr	r2, [pc, #428]	; (8000f10 <MX_GPIO_Init+0x258>)
 8000d64:	f043 0302 	orr.w	r3, r3, #2
 8000d68:	6313      	str	r3, [r2, #48]	; 0x30
 8000d6a:	4b69      	ldr	r3, [pc, #420]	; (8000f10 <MX_GPIO_Init+0x258>)
 8000d6c:	6b1b      	ldr	r3, [r3, #48]	; 0x30
 8000d6e:	f003 0302 	and.w	r3, r3, #2
 8000d72:	60fb      	str	r3, [r7, #12]
 8000d74:	68fb      	ldr	r3, [r7, #12]
 8000d76:	2300      	movs	r3, #0
 8000d78:	60bb      	str	r3, [r7, #8]
 8000d7a:	4b65      	ldr	r3, [pc, #404]	; (8000f10 <MX_GPIO_Init+0x258>)
 8000d7c:	6b1b      	ldr	r3, [r3, #48]	; 0x30
 8000d7e:	4a64      	ldr	r2, [pc, #400]	; (8000f10 <MX_GPIO_Init+0x258>)
 8000d80:	f043 0308 	orr.w	r3, r3, #8
 8000d84:	6313      	str	r3, [r2, #48]	; 0x30
 8000d86:	4b62      	ldr	r3, [pc, #392]	; (8000f10 <MX_GPIO_Init+0x258>)
 8000d88:	6b1b      	ldr	r3, [r3, #48]	; 0x30
 8000d8a:	f003 0308 	and.w	r3, r3, #8
 8000d8e:	60bb      	str	r3, [r7, #8]
 8000d90:	68bb      	ldr	r3, [r7, #8]
 8000d92:	2300      	movs	r3, #0
 8000d94:	607b      	str	r3, [r7, #4]
 8000d96:	4b5e      	ldr	r3, [pc, #376]	; (8000f10 <MX_GPIO_Init+0x258>)
 8000d98:	6b1b      	ldr	r3, [r3, #48]	; 0x30
 8000d9a:	4a5d      	ldr	r2, [pc, #372]	; (8000f10 <MX_GPIO_Init+0x258>)
 8000d9c:	f043 0340 	orr.w	r3, r3, #64	; 0x40
 8000da0:	6313      	str	r3, [r2, #48]	; 0x30
 8000da2:	4b5b      	ldr	r3, [pc, #364]	; (8000f10 <MX_GPIO_Init+0x258>)
 8000da4:	6b1b      	ldr	r3, [r3, #48]	; 0x30
 8000da6:	f003 0340 	and.w	r3, r3, #64	; 0x40
 8000daa:	607b      	str	r3, [r7, #4]
 8000dac:	687b      	ldr	r3, [r7, #4]
 8000dae:	2200      	movs	r2, #0
 8000db0:	2170      	movs	r1, #112	; 0x70
 8000db2:	4858      	ldr	r0, [pc, #352]	; (8000f14 <MX_GPIO_Init+0x25c>)
 8000db4:	f002 ff32 	bl	8003c1c <HAL_GPIO_WritePin>
 8000db8:	2200      	movs	r2, #0
 8000dba:	f44f 5108 	mov.w	r1, #8704	; 0x2200
 8000dbe:	4856      	ldr	r0, [pc, #344]	; (8000f18 <MX_GPIO_Init+0x260>)
 8000dc0:	f002 ff2c 	bl	8003c1c <HAL_GPIO_WritePin>
 8000dc4:	2200      	movs	r2, #0
 8000dc6:	f44f 6180 	mov.w	r1, #1024	; 0x400
 8000dca:	4854      	ldr	r0, [pc, #336]	; (8000f1c <MX_GPIO_Init+0x264>)
 8000dcc:	f002 ff26 	bl	8003c1c <HAL_GPIO_WritePin>
 8000dd0:	2200      	movs	r2, #0
 8000dd2:	f44f 71e0 	mov.w	r1, #448	; 0x1c0
 8000dd6:	4852      	ldr	r0, [pc, #328]	; (8000f20 <MX_GPIO_Init+0x268>)
 8000dd8:	f002 ff20 	bl	8003c1c <HAL_GPIO_WritePin>
 8000ddc:	2200      	movs	r2, #0
 8000dde:	f44f 7180 	mov.w	r1, #256	; 0x100
 8000de2:	4850      	ldr	r0, [pc, #320]	; (8000f24 <MX_GPIO_Init+0x26c>)
 8000de4:	f002 ff1a 	bl	8003c1c <HAL_GPIO_WritePin>
 8000de8:	2200      	movs	r2, #0
 8000dea:	2108      	movs	r1, #8
 8000dec:	484e      	ldr	r0, [pc, #312]	; (8000f28 <MX_GPIO_Init+0x270>)
 8000dee:	f002 ff15 	bl	8003c1c <HAL_GPIO_WritePin>
 8000df2:	2370      	movs	r3, #112	; 0x70
 8000df4:	627b      	str	r3, [r7, #36]	; 0x24
 8000df6:	2301      	movs	r3, #1
 8000df8:	62bb      	str	r3, [r7, #40]	; 0x28
 8000dfa:	2300      	movs	r3, #0
 8000dfc:	62fb      	str	r3, [r7, #44]	; 0x2c
 8000dfe:	2300      	movs	r3, #0
 8000e00:	633b      	str	r3, [r7, #48]	; 0x30
 8000e02:	f107 0324 	add.w	r3, r7, #36	; 0x24
 8000e06:	4619      	mov	r1, r3
 8000e08:	4842      	ldr	r0, [pc, #264]	; (8000f14 <MX_GPIO_Init+0x25c>)
 8000e0a:	f002 fd53 	bl	80038b4 <HAL_GPIO_Init>
 8000e0e:	f44f 5308 	mov.w	r3, #8704	; 0x2200
 8000e12:	627b      	str	r3, [r7, #36]	; 0x24
 8000e14:	2301      	movs	r3, #1
 8000e16:	62bb      	str	r3, [r7, #40]	; 0x28
 8000e18:	2300      	movs	r3, #0
 8000e1a:	62fb      	str	r3, [r7, #44]	; 0x2c
 8000e1c:	2300      	movs	r3, #0
 8000e1e:	633b      	str	r3, [r7, #48]	; 0x30
 8000e20:	f107 0324 	add.w	r3, r7, #36	; 0x24
 8000e24:	4619      	mov	r1, r3
 8000e26:	483c      	ldr	r0, [pc, #240]	; (8000f18 <MX_GPIO_Init+0x260>)
 8000e28:	f002 fd44 	bl	80038b4 <HAL_GPIO_Init>
 8000e2c:	f44f 7300 	mov.w	r3, #512	; 0x200
 8000e30:	627b      	str	r3, [r7, #36]	; 0x24
 8000e32:	2300      	movs	r3, #0
 8000e34:	62bb      	str	r3, [r7, #40]	; 0x28
 8000e36:	2300      	movs	r3, #0
 8000e38:	62fb      	str	r3, [r7, #44]	; 0x2c
 8000e3a:	f107 0324 	add.w	r3, r7, #36	; 0x24
 8000e3e:	4619      	mov	r1, r3
 8000e40:	4836      	ldr	r0, [pc, #216]	; (8000f1c <MX_GPIO_Init+0x264>)
 8000e42:	f002 fd37 	bl	80038b4 <HAL_GPIO_Init>
 8000e46:	f44f 6380 	mov.w	r3, #1024	; 0x400
 8000e4a:	627b      	str	r3, [r7, #36]	; 0x24
 8000e4c:	2301      	movs	r3, #1
 8000e4e:	62bb      	str	r3, [r7, #40]	; 0x28
 8000e50:	2300      	movs	r3, #0
 8000e52:	62fb      	str	r3, [r7, #44]	; 0x2c
 8000e54:	2300      	movs	r3, #0
 8000e56:	633b      	str	r3, [r7, #48]	; 0x30
 8000e58:	f107 0324 	add.w	r3, r7, #36	; 0x24
 8000e5c:	4619      	mov	r1, r3
 8000e5e:	482f      	ldr	r0, [pc, #188]	; (8000f1c <MX_GPIO_Init+0x264>)
 8000e60:	f002 fd28 	bl	80038b4 <HAL_GPIO_Init>
 8000e64:	23c0      	movs	r3, #192	; 0xc0
 8000e66:	627b      	str	r3, [r7, #36]	; 0x24
 8000e68:	2300      	movs	r3, #0
 8000e6a:	62bb      	str	r3, [r7, #40]	; 0x28
 8000e6c:	2300      	movs	r3, #0
 8000e6e:	62fb      	str	r3, [r7, #44]	; 0x2c
 8000e70:	f107 0324 	add.w	r3, r7, #36	; 0x24
 8000e74:	4619      	mov	r1, r3
 8000e76:	482b      	ldr	r0, [pc, #172]	; (8000f24 <MX_GPIO_Init+0x26c>)
 8000e78:	f002 fd1c 	bl	80038b4 <HAL_GPIO_Init>
 8000e7c:	2330      	movs	r3, #48	; 0x30
 8000e7e:	627b      	str	r3, [r7, #36]	; 0x24
 8000e80:	2300      	movs	r3, #0
 8000e82:	62bb      	str	r3, [r7, #40]	; 0x28
 8000e84:	2300      	movs	r3, #0
 8000e86:	62fb      	str	r3, [r7, #44]	; 0x2c
 8000e88:	f107 0324 	add.w	r3, r7, #36	; 0x24
 8000e8c:	4619      	mov	r1, r3
 8000e8e:	4822      	ldr	r0, [pc, #136]	; (8000f18 <MX_GPIO_Init+0x260>)
 8000e90:	f002 fd10 	bl	80038b4 <HAL_GPIO_Init>
 8000e94:	f44f 73e0 	mov.w	r3, #448	; 0x1c0
 8000e98:	627b      	str	r3, [r7, #36]	; 0x24
 8000e9a:	2301      	movs	r3, #1
 8000e9c:	62bb      	str	r3, [r7, #40]	; 0x28
 8000e9e:	2300      	movs	r3, #0
 8000ea0:	62fb      	str	r3, [r7, #44]	; 0x2c
 8000ea2:	2300      	movs	r3, #0
 8000ea4:	633b      	str	r3, [r7, #48]	; 0x30
 8000ea6:	f107 0324 	add.w	r3, r7, #36	; 0x24
 8000eaa:	4619      	mov	r1, r3
 8000eac:	481c      	ldr	r0, [pc, #112]	; (8000f20 <MX_GPIO_Init+0x268>)
 8000eae:	f002 fd01 	bl	80038b4 <HAL_GPIO_Init>
 8000eb2:	f44f 5388 	mov.w	r3, #4352	; 0x1100
 8000eb6:	627b      	str	r3, [r7, #36]	; 0x24
 8000eb8:	2300      	movs	r3, #0
 8000eba:	62bb      	str	r3, [r7, #40]	; 0x28
 8000ebc:	2301      	movs	r3, #1
 8000ebe:	62fb      	str	r3, [r7, #44]	; 0x2c
 8000ec0:	f107 0324 	add.w	r3, r7, #36	; 0x24
 8000ec4:	4619      	mov	r1, r3
 8000ec6:	4814      	ldr	r0, [pc, #80]	; (8000f18 <MX_GPIO_Init+0x260>)
 8000ec8:	f002 fcf4 	bl	80038b4 <HAL_GPIO_Init>
 8000ecc:	f44f 7380 	mov.w	r3, #256	; 0x100
 8000ed0:	627b      	str	r3, [r7, #36]	; 0x24
 8000ed2:	2301      	movs	r3, #1
 8000ed4:	62bb      	str	r3, [r7, #40]	; 0x28
 8000ed6:	2300      	movs	r3, #0
 8000ed8:	62fb      	str	r3, [r7, #44]	; 0x2c
 8000eda:	2300      	movs	r3, #0
 8000edc:	633b      	str	r3, [r7, #48]	; 0x30
 8000ede:	f107 0324 	add.w	r3, r7, #36	; 0x24
 8000ee2:	4619      	mov	r1, r3
 8000ee4:	480f      	ldr	r0, [pc, #60]	; (8000f24 <MX_GPIO_Init+0x26c>)
 8000ee6:	f002 fce5 	bl	80038b4 <HAL_GPIO_Init>
 8000eea:	2308      	movs	r3, #8
 8000eec:	627b      	str	r3, [r7, #36]	; 0x24
 8000eee:	2301      	movs	r3, #1
 8000ef0:	62bb      	str	r3, [r7, #40]	; 0x28
 8000ef2:	2300      	movs	r3, #0
 8000ef4:	62fb      	str	r3, [r7, #44]	; 0x2c
 8000ef6:	2300      	movs	r3, #0
 8000ef8:	633b      	str	r3, [r7, #48]	; 0x30
 8000efa:	f107 0324 	add.w	r3, r7, #36	; 0x24
 8000efe:	4619      	mov	r1, r3
 8000f00:	4809      	ldr	r0, [pc, #36]	; (8000f28 <MX_GPIO_Init+0x270>)
 8000f02:	f002 fcd7 	bl	80038b4 <HAL_GPIO_Init>
 8000f06:	bf00      	nop
 8000f08:	3738      	adds	r7, #56	; 0x38
 8000f0a:	46bd      	mov	sp, r7
 8000f0c:	bd80      	pop	{r7, pc}
 8000f0e:	bf00      	nop
 8000f10:	40023800 	.word	0x40023800
 8000f14:	40021000 	.word	0x40021000
 8000f18:	40020800 	.word	0x40020800
 8000f1c:	40021400 	.word	0x40021400
 8000f20:	40021800 	.word	0x40021800
 8000f24:	40020000 	.word	0x40020000
 8000f28:	40020c00 	.word	0x40020c00

08000f2c <MX_I2C1_Init>:
 8000f2c:	b580      	push	{r7, lr}
 8000f2e:	af00      	add	r7, sp, #0
 8000f30:	4b12      	ldr	r3, [pc, #72]	; (8000f7c <MX_I2C1_Init+0x50>)
 8000f32:	4a13      	ldr	r2, [pc, #76]	; (8000f80 <MX_I2C1_Init+0x54>)
 8000f34:	601a      	str	r2, [r3, #0]
 8000f36:	4b11      	ldr	r3, [pc, #68]	; (8000f7c <MX_I2C1_Init+0x50>)
 8000f38:	4a12      	ldr	r2, [pc, #72]	; (8000f84 <MX_I2C1_Init+0x58>)
 8000f3a:	605a      	str	r2, [r3, #4]
 8000f3c:	4b0f      	ldr	r3, [pc, #60]	; (8000f7c <MX_I2C1_Init+0x50>)
 8000f3e:	2200      	movs	r2, #0
 8000f40:	609a      	str	r2, [r3, #8]
 8000f42:	4b0e      	ldr	r3, [pc, #56]	; (8000f7c <MX_I2C1_Init+0x50>)
 8000f44:	2200      	movs	r2, #0
 8000f46:	60da      	str	r2, [r3, #12]
 8000f48:	4b0c      	ldr	r3, [pc, #48]	; (8000f7c <MX_I2C1_Init+0x50>)
 8000f4a:	f44f 4280 	mov.w	r2, #16384	; 0x4000
 8000f4e:	611a      	str	r2, [r3, #16]
 8000f50:	4b0a      	ldr	r3, [pc, #40]	; (8000f7c <MX_I2C1_Init+0x50>)
 8000f52:	2200      	movs	r2, #0
 8000f54:	615a      	str	r2, [r3, #20]
 8000f56:	4b09      	ldr	r3, [pc, #36]	; (8000f7c <MX_I2C1_Init+0x50>)
 8000f58:	2200      	movs	r2, #0
 8000f5a:	619a      	str	r2, [r3, #24]
 8000f5c:	4b07      	ldr	r3, [pc, #28]	; (8000f7c <MX_I2C1_Init+0x50>)
 8000f5e:	2200      	movs	r2, #0
 8000f60:	61da      	str	r2, [r3, #28]
 8000f62:	4b06      	ldr	r3, [pc, #24]	; (8000f7c <MX_I2C1_Init+0x50>)
 8000f64:	2200      	movs	r2, #0
 8000f66:	621a      	str	r2, [r3, #32]
 8000f68:	4804      	ldr	r0, [pc, #16]	; (8000f7c <MX_I2C1_Init+0x50>)
 8000f6a:	f002 fe8b 	bl	8003c84 <HAL_I2C_Init>
 8000f6e:	4603      	mov	r3, r0
 8000f70:	2b00      	cmp	r3, #0
 8000f72:	d001      	beq.n	8000f78 <MX_I2C1_Init+0x4c>
 8000f74:	f000 fe52 	bl	8001c1c <Error_Handler>
 8000f78:	bf00      	nop
 8000f7a:	bd80      	pop	{r7, pc}
 8000f7c:	2000012c 	.word	0x2000012c
 8000f80:	40005400 	.word	0x40005400
 8000f84:	000186a0 	.word	0x000186a0

08000f88 <HAL_I2C_MspInit>:
 8000f88:	b580      	push	{r7, lr}
 8000f8a:	b08a      	sub	sp, #40	; 0x28
 8000f8c:	af00      	add	r7, sp, #0
 8000f8e:	6078      	str	r0, [r7, #4]
 8000f90:	f107 0314 	add.w	r3, r7, #20
 8000f94:	2200      	movs	r2, #0
 8000f96:	601a      	str	r2, [r3, #0]
 8000f98:	605a      	str	r2, [r3, #4]
 8000f9a:	609a      	str	r2, [r3, #8]
 8000f9c:	60da      	str	r2, [r3, #12]
 8000f9e:	611a      	str	r2, [r3, #16]
 8000fa0:	687b      	ldr	r3, [r7, #4]
 8000fa2:	681b      	ldr	r3, [r3, #0]
 8000fa4:	4a19      	ldr	r2, [pc, #100]	; (800100c <HAL_I2C_MspInit+0x84>)
 8000fa6:	4293      	cmp	r3, r2
 8000fa8:	d12b      	bne.n	8001002 <HAL_I2C_MspInit+0x7a>
 8000faa:	2300      	movs	r3, #0
 8000fac:	613b      	str	r3, [r7, #16]
 8000fae:	4b18      	ldr	r3, [pc, #96]	; (8001010 <HAL_I2C_MspInit+0x88>)
 8000fb0:	6b1b      	ldr	r3, [r3, #48]	; 0x30
 8000fb2:	4a17      	ldr	r2, [pc, #92]	; (8001010 <HAL_I2C_MspInit+0x88>)
 8000fb4:	f043 0302 	orr.w	r3, r3, #2
 8000fb8:	6313      	str	r3, [r2, #48]	; 0x30
 8000fba:	4b15      	ldr	r3, [pc, #84]	; (8001010 <HAL_I2C_MspInit+0x88>)
 8000fbc:	6b1b      	ldr	r3, [r3, #48]	; 0x30
 8000fbe:	f003 0302 	and.w	r3, r3, #2
 8000fc2:	613b      	str	r3, [r7, #16]
 8000fc4:	693b      	ldr	r3, [r7, #16]
 8000fc6:	23c0      	movs	r3, #192	; 0xc0
 8000fc8:	617b      	str	r3, [r7, #20]
 8000fca:	2312      	movs	r3, #18
 8000fcc:	61bb      	str	r3, [r7, #24]
 8000fce:	2300      	movs	r3, #0
 8000fd0:	61fb      	str	r3, [r7, #28]
 8000fd2:	2303      	movs	r3, #3
 8000fd4:	623b      	str	r3, [r7, #32]
 8000fd6:	2304      	movs	r3, #4
 8000fd8:	627b      	str	r3, [r7, #36]	; 0x24
 8000fda:	f107 0314 	add.w	r3, r7, #20
 8000fde:	4619      	mov	r1, r3
 8000fe0:	480c      	ldr	r0, [pc, #48]	; (8001014 <HAL_I2C_MspInit+0x8c>)
 8000fe2:	f002 fc67 	bl	80038b4 <HAL_GPIO_Init>
 8000fe6:	2300      	movs	r3, #0
 8000fe8:	60fb      	str	r3, [r7, #12]
 8000fea:	4b09      	ldr	r3, [pc, #36]	; (8001010 <HAL_I2C_MspInit+0x88>)
 8000fec:	6c1b      	ldr	r3, [r3, #64]	; 0x40
 8000fee:	4a08      	ldr	r2, [pc, #32]	; (8001010 <HAL_I2C_MspInit+0x88>)
 8000ff0:	f443 1300 	orr.w	r3, r3, #2097152	; 0x200000
 8000ff4:	6413      	str	r3, [r2, #64]	; 0x40
 8000ff6:	4b06      	ldr	r3, [pc, #24]	; (8001010 <HAL_I2C_MspInit+0x88>)
 8000ff8:	6c1b      	ldr	r3, [r3, #64]	; 0x40
 8000ffa:	f403 1300 	and.w	r3, r3, #2097152	; 0x200000
 8000ffe:	60fb      	str	r3, [r7, #12]
 8001000:	68fb      	ldr	r3, [r7, #12]
 8001002:	bf00      	nop
 8001004:	3728      	adds	r7, #40	; 0x28
 8001006:	46bd      	mov	sp, r7
 8001008:	bd80      	pop	{r7, pc}
 800100a:	bf00      	nop
 800100c:	40005400 	.word	0x40005400
 8001010:	40023800 	.word	0x40023800
 8001014:	40020400 	.word	0x40020400

08001018 <LCD_WR_REG>:
 8001018:	b480      	push	{r7}
 800101a:	b083      	sub	sp, #12
 800101c:	af00      	add	r7, sp, #0
 800101e:	4603      	mov	r3, r0
 8001020:	80fb      	strh	r3, [r7, #6]
 8001022:	4a04      	ldr	r2, [pc, #16]	; (8001034 <LCD_WR_REG+0x1c>)
 8001024:	88fb      	ldrh	r3, [r7, #6]
 8001026:	8013      	strh	r3, [r2, #0]
 8001028:	bf00      	nop
 800102a:	370c      	adds	r7, #12
 800102c:	46bd      	mov	sp, r7
 800102e:	f85d 7b04 	ldr.w	r7, [sp], #4
 8001032:	4770      	bx	lr
 8001034:	600ffffe 	.word	0x600ffffe

08001038 <LCD_WR_DATA>:
 8001038:	b480      	push	{r7}
 800103a:	b083      	sub	sp, #12
 800103c:	af00      	add	r7, sp, #0
 800103e:	4603      	mov	r3, r0
 8001040:	80fb      	strh	r3, [r7, #6]
 8001042:	4a04      	ldr	r2, [pc, #16]	; (8001054 <LCD_WR_DATA+0x1c>)
 8001044:	88fb      	ldrh	r3, [r7, #6]
 8001046:	8053      	strh	r3, [r2, #2]
 8001048:	bf00      	nop
 800104a:	370c      	adds	r7, #12
 800104c:	46bd      	mov	sp, r7
 800104e:	f85d 7b04 	ldr.w	r7, [sp], #4
 8001052:	4770      	bx	lr
 8001054:	600ffffe 	.word	0x600ffffe

08001058 <LCD_RD_DATA>:
 8001058:	b480      	push	{r7}
 800105a:	b083      	sub	sp, #12
 800105c:	af00      	add	r7, sp, #0
 800105e:	4b06      	ldr	r3, [pc, #24]	; (8001078 <LCD_RD_DATA+0x20>)
 8001060:	885b      	ldrh	r3, [r3, #2]
 8001062:	b29b      	uxth	r3, r3
 8001064:	80fb      	strh	r3, [r7, #6]
 8001066:	88fb      	ldrh	r3, [r7, #6]
 8001068:	b29b      	uxth	r3, r3
 800106a:	4618      	mov	r0, r3
 800106c:	370c      	adds	r7, #12
 800106e:	46bd      	mov	sp, r7
 8001070:	f85d 7b04 	ldr.w	r7, [sp], #4
 8001074:	4770      	bx	lr
 8001076:	bf00      	nop
 8001078:	600ffffe 	.word	0x600ffffe

0800107c <lcd_AddressSet>:
 800107c:	b590      	push	{r4, r7, lr}
 800107e:	b083      	sub	sp, #12
 8001080:	af00      	add	r7, sp, #0
 8001082:	4604      	mov	r4, r0
 8001084:	4608      	mov	r0, r1
 8001086:	4611      	mov	r1, r2
 8001088:	461a      	mov	r2, r3
 800108a:	4623      	mov	r3, r4
 800108c:	80fb      	strh	r3, [r7, #6]
 800108e:	4603      	mov	r3, r0
 8001090:	80bb      	strh	r3, [r7, #4]
 8001092:	460b      	mov	r3, r1
 8001094:	807b      	strh	r3, [r7, #2]
 8001096:	4613      	mov	r3, r2
 8001098:	803b      	strh	r3, [r7, #0]
 800109a:	202a      	movs	r0, #42	; 0x2a
 800109c:	f7ff ffbc 	bl	8001018 <LCD_WR_REG>
 80010a0:	88fb      	ldrh	r3, [r7, #6]
 80010a2:	0a1b      	lsrs	r3, r3, #8
 80010a4:	b29b      	uxth	r3, r3
 80010a6:	4618      	mov	r0, r3
 80010a8:	f7ff ffc6 	bl	8001038 <LCD_WR_DATA>
 80010ac:	88fb      	ldrh	r3, [r7, #6]
 80010ae:	b2db      	uxtb	r3, r3
 80010b0:	b29b      	uxth	r3, r3
 80010b2:	4618      	mov	r0, r3
 80010b4:	f7ff ffc0 	bl	8001038 <LCD_WR_DATA>
 80010b8:	887b      	ldrh	r3, [r7, #2]
 80010ba:	0a1b      	lsrs	r3, r3, #8
 80010bc:	b29b      	uxth	r3, r3
 80010be:	4618      	mov	r0, r3
 80010c0:	f7ff ffba 	bl	8001038 <LCD_WR_DATA>
 80010c4:	887b      	ldrh	r3, [r7, #2]
 80010c6:	b2db      	uxtb	r3, r3
 80010c8:	b29b      	uxth	r3, r3
 80010ca:	4618      	mov	r0, r3
 80010cc:	f7ff ffb4 	bl	8001038 <LCD_WR_DATA>
 80010d0:	202b      	movs	r0, #43	; 0x2b
 80010d2:	f7ff ffa1 	bl	8001018 <LCD_WR_REG>
 80010d6:	88bb      	ldrh	r3, [r7, #4]
 80010d8:	0a1b      	lsrs	r3, r3, #8
 80010da:	b29b      	uxth	r3, r3
 80010dc:	4618      	mov	r0, r3
 80010de:	f7ff ffab 	bl	8001038 <LCD_WR_DATA>
 80010e2:	88bb      	ldrh	r3, [r7, #4]
 80010e4:	b2db      	uxtb	r3, r3
 80010e6:	b29b      	uxth	r3, r3
 80010e8:	4618      	mov	r0, r3
 80010ea:	f7ff ffa5 	bl	8001038 <LCD_WR_DATA>
 80010ee:	883b      	ldrh	r3, [r7, #0]
 80010f0:	0a1b      	lsrs	r3, r3, #8
 80010f2:	b29b      	uxth	r3, r3
 80010f4:	4618      	mov	r0, r3
 80010f6:	f7ff ff9f 	bl	8001038 <LCD_WR_DATA>
 80010fa:	883b      	ldrh	r3, [r7, #0]
 80010fc:	b2db      	uxtb	r3, r3
 80010fe:	b29b      	uxth	r3, r3
 8001100:	4618      	mov	r0, r3
 8001102:	f7ff ff99 	bl	8001038 <LCD_WR_DATA>
 8001106:	202c      	movs	r0, #44	; 0x2c
 8001108:	f7ff ff86 	bl	8001018 <LCD_WR_REG>
 800110c:	bf00      	nop
 800110e:	370c      	adds	r7, #12
 8001110:	46bd      	mov	sp, r7
 8001112:	bd90      	pop	{r4, r7, pc}

08001114 <lcd_Clear>:
 8001114:	b580      	push	{r7, lr}
 8001116:	b084      	sub	sp, #16
 8001118:	af00      	add	r7, sp, #0
 800111a:	4603      	mov	r3, r0
 800111c:	80fb      	strh	r3, [r7, #6]
 800111e:	4b15      	ldr	r3, [pc, #84]	; (8001174 <lcd_Clear+0x60>)
 8001120:	881b      	ldrh	r3, [r3, #0]
 8001122:	3b01      	subs	r3, #1
 8001124:	b29a      	uxth	r2, r3
 8001126:	4b13      	ldr	r3, [pc, #76]	; (8001174 <lcd_Clear+0x60>)
 8001128:	885b      	ldrh	r3, [r3, #2]
 800112a:	3b01      	subs	r3, #1
 800112c:	b29b      	uxth	r3, r3
 800112e:	2100      	movs	r1, #0
 8001130:	2000      	movs	r0, #0
 8001132:	f7ff ffa3 	bl	800107c <lcd_AddressSet>
 8001136:	2300      	movs	r3, #0
 8001138:	81fb      	strh	r3, [r7, #14]
 800113a:	e011      	b.n	8001160 <lcd_Clear+0x4c>
 800113c:	2300      	movs	r3, #0
 800113e:	81bb      	strh	r3, [r7, #12]
 8001140:	e006      	b.n	8001150 <lcd_Clear+0x3c>
 8001142:	88fb      	ldrh	r3, [r7, #6]
 8001144:	4618      	mov	r0, r3
 8001146:	f7ff ff77 	bl	8001038 <LCD_WR_DATA>
 800114a:	89bb      	ldrh	r3, [r7, #12]
 800114c:	3301      	adds	r3, #1
 800114e:	81bb      	strh	r3, [r7, #12]
 8001150:	4b08      	ldr	r3, [pc, #32]	; (8001174 <lcd_Clear+0x60>)
 8001152:	885b      	ldrh	r3, [r3, #2]
 8001154:	89ba      	ldrh	r2, [r7, #12]
 8001156:	429a      	cmp	r2, r3
 8001158:	d3f3      	bcc.n	8001142 <lcd_Clear+0x2e>
 800115a:	89fb      	ldrh	r3, [r7, #14]
 800115c:	3301      	adds	r3, #1
 800115e:	81fb      	strh	r3, [r7, #14]
 8001160:	4b04      	ldr	r3, [pc, #16]	; (8001174 <lcd_Clear+0x60>)
 8001162:	881b      	ldrh	r3, [r3, #0]
 8001164:	89fa      	ldrh	r2, [r7, #14]
 8001166:	429a      	cmp	r2, r3
 8001168:	d3e8      	bcc.n	800113c <lcd_Clear+0x28>
 800116a:	bf00      	nop
 800116c:	bf00      	nop
 800116e:	3710      	adds	r7, #16
 8001170:	46bd      	mov	sp, r7
 8001172:	bd80      	pop	{r7, pc}
 8001174:	20000180 	.word	0x20000180

08001178 <lcd_DrawPoint>:
 8001178:	b580      	push	{r7, lr}
 800117a:	b082      	sub	sp, #8
 800117c:	af00      	add	r7, sp, #0
 800117e:	4603      	mov	r3, r0
 8001180:	80fb      	strh	r3, [r7, #6]
 8001182:	460b      	mov	r3, r1
 8001184:	80bb      	strh	r3, [r7, #4]
 8001186:	4613      	mov	r3, r2
 8001188:	807b      	strh	r3, [r7, #2]
 800118a:	88bb      	ldrh	r3, [r7, #4]
 800118c:	88fa      	ldrh	r2, [r7, #6]
 800118e:	88b9      	ldrh	r1, [r7, #4]
 8001190:	88f8      	ldrh	r0, [r7, #6]
 8001192:	f7ff ff73 	bl	800107c <lcd_AddressSet>
 8001196:	887b      	ldrh	r3, [r7, #2]
 8001198:	4618      	mov	r0, r3
 800119a:	f7ff ff4d 	bl	8001038 <LCD_WR_DATA>
 800119e:	bf00      	nop
 80011a0:	3708      	adds	r7, #8
 80011a2:	46bd      	mov	sp, r7
 80011a4:	bd80      	pop	{r7, pc}
	...

080011a8 <lcd_ShowChar>:
 80011a8:	b590      	push	{r4, r7, lr}
 80011aa:	b087      	sub	sp, #28
 80011ac:	af00      	add	r7, sp, #0
 80011ae:	4604      	mov	r4, r0
 80011b0:	4608      	mov	r0, r1
 80011b2:	4611      	mov	r1, r2
 80011b4:	461a      	mov	r2, r3
 80011b6:	4623      	mov	r3, r4
 80011b8:	80fb      	strh	r3, [r7, #6]
 80011ba:	4603      	mov	r3, r0
 80011bc:	80bb      	strh	r3, [r7, #4]
 80011be:	460b      	mov	r3, r1
 80011c0:	70fb      	strb	r3, [r7, #3]
 80011c2:	4613      	mov	r3, r2
 80011c4:	803b      	strh	r3, [r7, #0]
 80011c6:	2300      	movs	r3, #0
 80011c8:	757b      	strb	r3, [r7, #21]
 80011ca:	88fb      	ldrh	r3, [r7, #6]
 80011cc:	823b      	strh	r3, [r7, #16]
 80011ce:	f897 302c 	ldrb.w	r3, [r7, #44]	; 0x2c
 80011d2:	085b      	lsrs	r3, r3, #1
 80011d4:	73fb      	strb	r3, [r7, #15]
 80011d6:	7bfb      	ldrb	r3, [r7, #15]
 80011d8:	08db      	lsrs	r3, r3, #3
 80011da:	b2db      	uxtb	r3, r3
 80011dc:	461a      	mov	r2, r3
 80011de:	7bfb      	ldrb	r3, [r7, #15]
 80011e0:	f003 0307 	and.w	r3, r3, #7
 80011e4:	b2db      	uxtb	r3, r3
 80011e6:	2b00      	cmp	r3, #0
 80011e8:	bf14      	ite	ne
 80011ea:	2301      	movne	r3, #1
 80011ec:	2300      	moveq	r3, #0
 80011ee:	b2db      	uxtb	r3, r3
 80011f0:	4413      	add	r3, r2
 80011f2:	b29a      	uxth	r2, r3
 80011f4:	f897 302c 	ldrb.w	r3, [r7, #44]	; 0x2c
 80011f8:	b29b      	uxth	r3, r3
 80011fa:	fb12 f303 	smulbb	r3, r2, r3
 80011fe:	81bb      	strh	r3, [r7, #12]
 8001200:	78fb      	ldrb	r3, [r7, #3]
 8001202:	3b20      	subs	r3, #32
 8001204:	70fb      	strb	r3, [r7, #3]
 8001206:	7bfb      	ldrb	r3, [r7, #15]
 8001208:	b29a      	uxth	r2, r3
 800120a:	88fb      	ldrh	r3, [r7, #6]
 800120c:	4413      	add	r3, r2
 800120e:	b29b      	uxth	r3, r3
 8001210:	3b01      	subs	r3, #1
 8001212:	b29c      	uxth	r4, r3
 8001214:	f897 302c 	ldrb.w	r3, [r7, #44]	; 0x2c
 8001218:	b29a      	uxth	r2, r3
 800121a:	88bb      	ldrh	r3, [r7, #4]
 800121c:	4413      	add	r3, r2
 800121e:	b29b      	uxth	r3, r3
 8001220:	3b01      	subs	r3, #1
 8001222:	b29b      	uxth	r3, r3
 8001224:	88b9      	ldrh	r1, [r7, #4]
 8001226:	88f8      	ldrh	r0, [r7, #6]
 8001228:	4622      	mov	r2, r4
 800122a:	f7ff ff27 	bl	800107c <lcd_AddressSet>
 800122e:	2300      	movs	r3, #0
 8001230:	827b      	strh	r3, [r7, #18]
 8001232:	e07a      	b.n	800132a <lcd_ShowChar+0x182>
 8001234:	f897 302c 	ldrb.w	r3, [r7, #44]	; 0x2c
 8001238:	2b0c      	cmp	r3, #12
 800123a:	d028      	beq.n	800128e <lcd_ShowChar+0xe6>
 800123c:	f897 302c 	ldrb.w	r3, [r7, #44]	; 0x2c
 8001240:	2b10      	cmp	r3, #16
 8001242:	d108      	bne.n	8001256 <lcd_ShowChar+0xae>
 8001244:	78fa      	ldrb	r2, [r7, #3]
 8001246:	8a7b      	ldrh	r3, [r7, #18]
 8001248:	493c      	ldr	r1, [pc, #240]	; (800133c <lcd_ShowChar+0x194>)
 800124a:	0112      	lsls	r2, r2, #4
 800124c:	440a      	add	r2, r1
 800124e:	4413      	add	r3, r2
 8001250:	781b      	ldrb	r3, [r3, #0]
 8001252:	75fb      	strb	r3, [r7, #23]
 8001254:	e01b      	b.n	800128e <lcd_ShowChar+0xe6>
 8001256:	f897 302c 	ldrb.w	r3, [r7, #44]	; 0x2c
 800125a:	2b18      	cmp	r3, #24
 800125c:	d10b      	bne.n	8001276 <lcd_ShowChar+0xce>
 800125e:	78fa      	ldrb	r2, [r7, #3]
 8001260:	8a79      	ldrh	r1, [r7, #18]
 8001262:	4837      	ldr	r0, [pc, #220]	; (8001340 <lcd_ShowChar+0x198>)
 8001264:	4613      	mov	r3, r2
 8001266:	005b      	lsls	r3, r3, #1
 8001268:	4413      	add	r3, r2
 800126a:	011b      	lsls	r3, r3, #4
 800126c:	4403      	add	r3, r0
 800126e:	440b      	add	r3, r1
 8001270:	781b      	ldrb	r3, [r3, #0]
 8001272:	75fb      	strb	r3, [r7, #23]
 8001274:	e00b      	b.n	800128e <lcd_ShowChar+0xe6>
 8001276:	f897 302c 	ldrb.w	r3, [r7, #44]	; 0x2c
 800127a:	2b20      	cmp	r3, #32
 800127c:	d15a      	bne.n	8001334 <lcd_ShowChar+0x18c>
 800127e:	78fa      	ldrb	r2, [r7, #3]
 8001280:	8a7b      	ldrh	r3, [r7, #18]
 8001282:	4930      	ldr	r1, [pc, #192]	; (8001344 <lcd_ShowChar+0x19c>)
 8001284:	0192      	lsls	r2, r2, #6
 8001286:	440a      	add	r2, r1
 8001288:	4413      	add	r3, r2
 800128a:	781b      	ldrb	r3, [r3, #0]
 800128c:	75fb      	strb	r3, [r7, #23]
 800128e:	2300      	movs	r3, #0
 8001290:	75bb      	strb	r3, [r7, #22]
 8001292:	e044      	b.n	800131e <lcd_ShowChar+0x176>
 8001294:	f897 3030 	ldrb.w	r3, [r7, #48]	; 0x30
 8001298:	2b00      	cmp	r3, #0
 800129a:	d120      	bne.n	80012de <lcd_ShowChar+0x136>
 800129c:	7dfa      	ldrb	r2, [r7, #23]
 800129e:	7dbb      	ldrb	r3, [r7, #22]
 80012a0:	fa42 f303 	asr.w	r3, r2, r3
 80012a4:	f003 0301 	and.w	r3, r3, #1
 80012a8:	2b00      	cmp	r3, #0
 80012aa:	d004      	beq.n	80012b6 <lcd_ShowChar+0x10e>
 80012ac:	883b      	ldrh	r3, [r7, #0]
 80012ae:	4618      	mov	r0, r3
 80012b0:	f7ff fec2 	bl	8001038 <LCD_WR_DATA>
 80012b4:	e003      	b.n	80012be <lcd_ShowChar+0x116>
 80012b6:	8d3b      	ldrh	r3, [r7, #40]	; 0x28
 80012b8:	4618      	mov	r0, r3
 80012ba:	f7ff febd 	bl	8001038 <LCD_WR_DATA>
 80012be:	7d7b      	ldrb	r3, [r7, #21]
 80012c0:	3301      	adds	r3, #1
 80012c2:	757b      	strb	r3, [r7, #21]
 80012c4:	7d7b      	ldrb	r3, [r7, #21]
 80012c6:	7bfa      	ldrb	r2, [r7, #15]
 80012c8:	fbb3 f1f2 	udiv	r1, r3, r2
 80012cc:	fb01 f202 	mul.w	r2, r1, r2
 80012d0:	1a9b      	subs	r3, r3, r2
 80012d2:	b2db      	uxtb	r3, r3
 80012d4:	2b00      	cmp	r3, #0
 80012d6:	d11f      	bne.n	8001318 <lcd_ShowChar+0x170>
 80012d8:	2300      	movs	r3, #0
 80012da:	757b      	strb	r3, [r7, #21]
 80012dc:	e022      	b.n	8001324 <lcd_ShowChar+0x17c>
 80012de:	7dfa      	ldrb	r2, [r7, #23]
 80012e0:	7dbb      	ldrb	r3, [r7, #22]
 80012e2:	fa42 f303 	asr.w	r3, r2, r3
 80012e6:	f003 0301 	and.w	r3, r3, #1
 80012ea:	2b00      	cmp	r3, #0
 80012ec:	d005      	beq.n	80012fa <lcd_ShowChar+0x152>
 80012ee:	883a      	ldrh	r2, [r7, #0]
 80012f0:	88b9      	ldrh	r1, [r7, #4]
 80012f2:	88fb      	ldrh	r3, [r7, #6]
 80012f4:	4618      	mov	r0, r3
 80012f6:	f7ff ff3f 	bl	8001178 <lcd_DrawPoint>
 80012fa:	88fb      	ldrh	r3, [r7, #6]
 80012fc:	3301      	adds	r3, #1
 80012fe:	80fb      	strh	r3, [r7, #6]
 8001300:	88fa      	ldrh	r2, [r7, #6]
 8001302:	8a3b      	ldrh	r3, [r7, #16]
 8001304:	1ad2      	subs	r2, r2, r3
 8001306:	7bfb      	ldrb	r3, [r7, #15]
 8001308:	429a      	cmp	r2, r3
 800130a:	d105      	bne.n	8001318 <lcd_ShowChar+0x170>
 800130c:	8a3b      	ldrh	r3, [r7, #16]
 800130e:	80fb      	strh	r3, [r7, #6]
 8001310:	88bb      	ldrh	r3, [r7, #4]
 8001312:	3301      	adds	r3, #1
 8001314:	80bb      	strh	r3, [r7, #4]
 8001316:	e005      	b.n	8001324 <lcd_ShowChar+0x17c>
 8001318:	7dbb      	ldrb	r3, [r7, #22]
 800131a:	3301      	adds	r3, #1
 800131c:	75bb      	strb	r3, [r7, #22]
 800131e:	7dbb      	ldrb	r3, [r7, #22]
 8001320:	2b07      	cmp	r3, #7
 8001322:	d9b7      	bls.n	8001294 <lcd_ShowChar+0xec>
 8001324:	8a7b      	ldrh	r3, [r7, #18]
 8001326:	3301      	adds	r3, #1
 8001328:	827b      	strh	r3, [r7, #18]
 800132a:	8a7a      	ldrh	r2, [r7, #18]
 800132c:	89bb      	ldrh	r3, [r7, #12]
 800132e:	429a      	cmp	r2, r3
 8001330:	d380      	bcc.n	8001234 <lcd_ShowChar+0x8c>
 8001332:	e000      	b.n	8001336 <lcd_ShowChar+0x18e>
 8001334:	bf00      	nop
 8001336:	371c      	adds	r7, #28
 8001338:	46bd      	mov	sp, r7
 800133a:	bd90      	pop	{r4, r7, pc}
 800133c:	08007104 	.word	0x08007104
 8001340:	080076f4 	.word	0x080076f4
 8001344:	080088c4 	.word	0x080088c4

08001348 <mypow>:
 8001348:	b480      	push	{r7}
 800134a:	b085      	sub	sp, #20
 800134c:	af00      	add	r7, sp, #0
 800134e:	4603      	mov	r3, r0
 8001350:	460a      	mov	r2, r1
 8001352:	71fb      	strb	r3, [r7, #7]
 8001354:	4613      	mov	r3, r2
 8001356:	71bb      	strb	r3, [r7, #6]
 8001358:	2301      	movs	r3, #1
 800135a:	60fb      	str	r3, [r7, #12]
 800135c:	e004      	b.n	8001368 <mypow+0x20>
 800135e:	79fa      	ldrb	r2, [r7, #7]
 8001360:	68fb      	ldr	r3, [r7, #12]
 8001362:	fb02 f303 	mul.w	r3, r2, r3
 8001366:	60fb      	str	r3, [r7, #12]
 8001368:	79bb      	ldrb	r3, [r7, #6]
 800136a:	1e5a      	subs	r2, r3, #1
 800136c:	71ba      	strb	r2, [r7, #6]
 800136e:	2b00      	cmp	r3, #0
 8001370:	d1f5      	bne.n	800135e <mypow+0x16>
 8001372:	68fb      	ldr	r3, [r7, #12]
 8001374:	4618      	mov	r0, r3
 8001376:	3714      	adds	r7, #20
 8001378:	46bd      	mov	sp, r7
 800137a:	f85d 7b04 	ldr.w	r7, [sp], #4
 800137e:	4770      	bx	lr

08001380 <lcd_ShowFloatNum>:
 8001380:	b590      	push	{r4, r7, lr}
 8001382:	b08b      	sub	sp, #44	; 0x2c
 8001384:	af04      	add	r7, sp, #16
 8001386:	4604      	mov	r4, r0
 8001388:	4608      	mov	r0, r1
 800138a:	ed87 0a02 	vstr	s0, [r7, #8]
 800138e:	4611      	mov	r1, r2
 8001390:	461a      	mov	r2, r3
 8001392:	4623      	mov	r3, r4
 8001394:	81fb      	strh	r3, [r7, #14]
 8001396:	4603      	mov	r3, r0
 8001398:	81bb      	strh	r3, [r7, #12]
 800139a:	460b      	mov	r3, r1
 800139c:	71fb      	strb	r3, [r7, #7]
 800139e:	4613      	mov	r3, r2
 80013a0:	80bb      	strh	r3, [r7, #4]
 80013a2:	f897 302c 	ldrb.w	r3, [r7, #44]	; 0x2c
 80013a6:	085b      	lsrs	r3, r3, #1
 80013a8:	75bb      	strb	r3, [r7, #22]
 80013aa:	edd7 7a02 	vldr	s15, [r7, #8]
 80013ae:	ed9f 7a36 	vldr	s14, [pc, #216]	; 8001488 <lcd_ShowFloatNum+0x108>
 80013b2:	ee67 7a87 	vmul.f32	s15, s15, s14
 80013b6:	eefc 7ae7 	vcvt.u32.f32	s15, s15
 80013ba:	ee17 3a90 	vmov	r3, s15
 80013be:	82bb      	strh	r3, [r7, #20]
 80013c0:	2300      	movs	r3, #0
 80013c2:	75fb      	strb	r3, [r7, #23]
 80013c4:	e057      	b.n	8001476 <lcd_ShowFloatNum+0xf6>
 80013c6:	8abc      	ldrh	r4, [r7, #20]
 80013c8:	79fa      	ldrb	r2, [r7, #7]
 80013ca:	7dfb      	ldrb	r3, [r7, #23]
 80013cc:	1ad3      	subs	r3, r2, r3
 80013ce:	b2db      	uxtb	r3, r3
 80013d0:	3b01      	subs	r3, #1
 80013d2:	b2db      	uxtb	r3, r3
 80013d4:	4619      	mov	r1, r3
 80013d6:	200a      	movs	r0, #10
 80013d8:	f7ff ffb6 	bl	8001348 <mypow>
 80013dc:	4603      	mov	r3, r0
 80013de:	fbb4 f1f3 	udiv	r1, r4, r3
 80013e2:	4b2a      	ldr	r3, [pc, #168]	; (800148c <lcd_ShowFloatNum+0x10c>)
 80013e4:	fba3 2301 	umull	r2, r3, r3, r1
 80013e8:	08da      	lsrs	r2, r3, #3
 80013ea:	4613      	mov	r3, r2
 80013ec:	009b      	lsls	r3, r3, #2
 80013ee:	4413      	add	r3, r2
 80013f0:	005b      	lsls	r3, r3, #1
 80013f2:	1aca      	subs	r2, r1, r3
 80013f4:	4613      	mov	r3, r2
 80013f6:	74fb      	strb	r3, [r7, #19]
 80013f8:	7dfa      	ldrb	r2, [r7, #23]
 80013fa:	79fb      	ldrb	r3, [r7, #7]
 80013fc:	3b02      	subs	r3, #2
 80013fe:	429a      	cmp	r2, r3
 8001400:	d11d      	bne.n	800143e <lcd_ShowFloatNum+0xbe>
 8001402:	79fb      	ldrb	r3, [r7, #7]
 8001404:	3b02      	subs	r3, #2
 8001406:	b29a      	uxth	r2, r3
 8001408:	7dbb      	ldrb	r3, [r7, #22]
 800140a:	b29b      	uxth	r3, r3
 800140c:	fb12 f303 	smulbb	r3, r2, r3
 8001410:	b29a      	uxth	r2, r3
 8001412:	89fb      	ldrh	r3, [r7, #14]
 8001414:	4413      	add	r3, r2
 8001416:	b298      	uxth	r0, r3
 8001418:	88ba      	ldrh	r2, [r7, #4]
 800141a:	89b9      	ldrh	r1, [r7, #12]
 800141c:	2300      	movs	r3, #0
 800141e:	9302      	str	r3, [sp, #8]
 8001420:	f897 302c 	ldrb.w	r3, [r7, #44]	; 0x2c
 8001424:	9301      	str	r3, [sp, #4]
 8001426:	8d3b      	ldrh	r3, [r7, #40]	; 0x28
 8001428:	9300      	str	r3, [sp, #0]
 800142a:	4613      	mov	r3, r2
 800142c:	222e      	movs	r2, #46	; 0x2e
 800142e:	f7ff febb 	bl	80011a8 <lcd_ShowChar>
 8001432:	7dfb      	ldrb	r3, [r7, #23]
 8001434:	3301      	adds	r3, #1
 8001436:	75fb      	strb	r3, [r7, #23]
 8001438:	79fb      	ldrb	r3, [r7, #7]
 800143a:	3301      	adds	r3, #1
 800143c:	71fb      	strb	r3, [r7, #7]
 800143e:	7dfb      	ldrb	r3, [r7, #23]
 8001440:	b29a      	uxth	r2, r3
 8001442:	7dbb      	ldrb	r3, [r7, #22]
 8001444:	b29b      	uxth	r3, r3
 8001446:	fb12 f303 	smulbb	r3, r2, r3
 800144a:	b29a      	uxth	r2, r3
 800144c:	89fb      	ldrh	r3, [r7, #14]
 800144e:	4413      	add	r3, r2
 8001450:	b298      	uxth	r0, r3
 8001452:	7cfb      	ldrb	r3, [r7, #19]
 8001454:	3330      	adds	r3, #48	; 0x30
 8001456:	b2da      	uxtb	r2, r3
 8001458:	88bc      	ldrh	r4, [r7, #4]
 800145a:	89b9      	ldrh	r1, [r7, #12]
 800145c:	2300      	movs	r3, #0
 800145e:	9302      	str	r3, [sp, #8]
 8001460:	f897 302c 	ldrb.w	r3, [r7, #44]	; 0x2c
 8001464:	9301      	str	r3, [sp, #4]
 8001466:	8d3b      	ldrh	r3, [r7, #40]	; 0x28
 8001468:	9300      	str	r3, [sp, #0]
 800146a:	4623      	mov	r3, r4
 800146c:	f7ff fe9c 	bl	80011a8 <lcd_ShowChar>
 8001470:	7dfb      	ldrb	r3, [r7, #23]
 8001472:	3301      	adds	r3, #1
 8001474:	75fb      	strb	r3, [r7, #23]
 8001476:	7dfa      	ldrb	r2, [r7, #23]
 8001478:	79fb      	ldrb	r3, [r7, #7]
 800147a:	429a      	cmp	r2, r3
 800147c:	d3a3      	bcc.n	80013c6 <lcd_ShowFloatNum+0x46>
 800147e:	bf00      	nop
 8001480:	bf00      	nop
 8001482:	371c      	adds	r7, #28
 8001484:	46bd      	mov	sp, r7
 8001486:	bd90      	pop	{r4, r7, pc}
 8001488:	42c80000 	.word	0x42c80000
 800148c:	cccccccd 	.word	0xcccccccd

08001490 <lcd_SetDir>:
 8001490:	b480      	push	{r7}
 8001492:	b083      	sub	sp, #12
 8001494:	af00      	add	r7, sp, #0
 8001496:	4603      	mov	r3, r0
 8001498:	71fb      	strb	r3, [r7, #7]
 800149a:	79fb      	ldrb	r3, [r7, #7]
 800149c:	091b      	lsrs	r3, r3, #4
 800149e:	b2db      	uxtb	r3, r3
 80014a0:	f003 0303 	and.w	r3, r3, #3
 80014a4:	b2db      	uxtb	r3, r3
 80014a6:	2b00      	cmp	r3, #0
 80014a8:	d007      	beq.n	80014ba <lcd_SetDir+0x2a>
 80014aa:	4b0a      	ldr	r3, [pc, #40]	; (80014d4 <lcd_SetDir+0x44>)
 80014ac:	f44f 72a0 	mov.w	r2, #320	; 0x140
 80014b0:	801a      	strh	r2, [r3, #0]
 80014b2:	4b08      	ldr	r3, [pc, #32]	; (80014d4 <lcd_SetDir+0x44>)
 80014b4:	22f0      	movs	r2, #240	; 0xf0
 80014b6:	805a      	strh	r2, [r3, #2]
 80014b8:	e006      	b.n	80014c8 <lcd_SetDir+0x38>
 80014ba:	4b06      	ldr	r3, [pc, #24]	; (80014d4 <lcd_SetDir+0x44>)
 80014bc:	22f0      	movs	r2, #240	; 0xf0
 80014be:	801a      	strh	r2, [r3, #0]
 80014c0:	4b04      	ldr	r3, [pc, #16]	; (80014d4 <lcd_SetDir+0x44>)
 80014c2:	f44f 72a0 	mov.w	r2, #320	; 0x140
 80014c6:	805a      	strh	r2, [r3, #2]
 80014c8:	bf00      	nop
 80014ca:	370c      	adds	r7, #12
 80014cc:	46bd      	mov	sp, r7
 80014ce:	f85d 7b04 	ldr.w	r7, [sp], #4
 80014d2:	4770      	bx	lr
 80014d4:	20000180 	.word	0x20000180

080014d8 <lcd_init>:
 80014d8:	b580      	push	{r7, lr}
 80014da:	af00      	add	r7, sp, #0
 80014dc:	2200      	movs	r2, #0
 80014de:	f44f 5100 	mov.w	r1, #8192	; 0x2000
 80014e2:	48aa      	ldr	r0, [pc, #680]	; (800178c <lcd_init+0x2b4>)
 80014e4:	f002 fb9a 	bl	8003c1c <HAL_GPIO_WritePin>
 80014e8:	f44f 70fa 	mov.w	r0, #500	; 0x1f4
 80014ec:	f001 f898 	bl	8002620 <HAL_Delay>
 80014f0:	2201      	movs	r2, #1
 80014f2:	f44f 5100 	mov.w	r1, #8192	; 0x2000
 80014f6:	48a5      	ldr	r0, [pc, #660]	; (800178c <lcd_init+0x2b4>)
 80014f8:	f002 fb90 	bl	8003c1c <HAL_GPIO_WritePin>
 80014fc:	f44f 70fa 	mov.w	r0, #500	; 0x1f4
 8001500:	f001 f88e 	bl	8002620 <HAL_Delay>
 8001504:	2000      	movs	r0, #0
 8001506:	f7ff ffc3 	bl	8001490 <lcd_SetDir>
 800150a:	20d3      	movs	r0, #211	; 0xd3
 800150c:	f7ff fd84 	bl	8001018 <LCD_WR_REG>
 8001510:	f7ff fda2 	bl	8001058 <LCD_RD_DATA>
 8001514:	4603      	mov	r3, r0
 8001516:	461a      	mov	r2, r3
 8001518:	4b9d      	ldr	r3, [pc, #628]	; (8001790 <lcd_init+0x2b8>)
 800151a:	809a      	strh	r2, [r3, #4]
 800151c:	f7ff fd9c 	bl	8001058 <LCD_RD_DATA>
 8001520:	4603      	mov	r3, r0
 8001522:	461a      	mov	r2, r3
 8001524:	4b9a      	ldr	r3, [pc, #616]	; (8001790 <lcd_init+0x2b8>)
 8001526:	809a      	strh	r2, [r3, #4]
 8001528:	f7ff fd96 	bl	8001058 <LCD_RD_DATA>
 800152c:	4603      	mov	r3, r0
 800152e:	461a      	mov	r2, r3
 8001530:	4b97      	ldr	r3, [pc, #604]	; (8001790 <lcd_init+0x2b8>)
 8001532:	809a      	strh	r2, [r3, #4]
 8001534:	4b96      	ldr	r3, [pc, #600]	; (8001790 <lcd_init+0x2b8>)
 8001536:	889b      	ldrh	r3, [r3, #4]
 8001538:	021b      	lsls	r3, r3, #8
 800153a:	b29a      	uxth	r2, r3
 800153c:	4b94      	ldr	r3, [pc, #592]	; (8001790 <lcd_init+0x2b8>)
 800153e:	809a      	strh	r2, [r3, #4]
 8001540:	f7ff fd8a 	bl	8001058 <LCD_RD_DATA>
 8001544:	4603      	mov	r3, r0
 8001546:	461a      	mov	r2, r3
 8001548:	4b91      	ldr	r3, [pc, #580]	; (8001790 <lcd_init+0x2b8>)
 800154a:	889b      	ldrh	r3, [r3, #4]
 800154c:	4313      	orrs	r3, r2
 800154e:	b29a      	uxth	r2, r3
 8001550:	4b8f      	ldr	r3, [pc, #572]	; (8001790 <lcd_init+0x2b8>)
 8001552:	809a      	strh	r2, [r3, #4]
 8001554:	20cf      	movs	r0, #207	; 0xcf
 8001556:	f7ff fd5f 	bl	8001018 <LCD_WR_REG>
 800155a:	2000      	movs	r0, #0
 800155c:	f7ff fd6c 	bl	8001038 <LCD_WR_DATA>
 8001560:	20c1      	movs	r0, #193	; 0xc1
 8001562:	f7ff fd69 	bl	8001038 <LCD_WR_DATA>
 8001566:	2030      	movs	r0, #48	; 0x30
 8001568:	f7ff fd66 	bl	8001038 <LCD_WR_DATA>
 800156c:	20ed      	movs	r0, #237	; 0xed
 800156e:	f7ff fd53 	bl	8001018 <LCD_WR_REG>
 8001572:	2064      	movs	r0, #100	; 0x64
 8001574:	f7ff fd60 	bl	8001038 <LCD_WR_DATA>
 8001578:	2003      	movs	r0, #3
 800157a:	f7ff fd5d 	bl	8001038 <LCD_WR_DATA>
 800157e:	2012      	movs	r0, #18
 8001580:	f7ff fd5a 	bl	8001038 <LCD_WR_DATA>
 8001584:	2081      	movs	r0, #129	; 0x81
 8001586:	f7ff fd57 	bl	8001038 <LCD_WR_DATA>
 800158a:	20e8      	movs	r0, #232	; 0xe8
 800158c:	f7ff fd44 	bl	8001018 <LCD_WR_REG>
 8001590:	2085      	movs	r0, #133	; 0x85
 8001592:	f7ff fd51 	bl	8001038 <LCD_WR_DATA>
 8001596:	2010      	movs	r0, #16
 8001598:	f7ff fd4e 	bl	8001038 <LCD_WR_DATA>
 800159c:	207a      	movs	r0, #122	; 0x7a
 800159e:	f7ff fd4b 	bl	8001038 <LCD_WR_DATA>
 80015a2:	20cb      	movs	r0, #203	; 0xcb
 80015a4:	f7ff fd38 	bl	8001018 <LCD_WR_REG>
 80015a8:	2039      	movs	r0, #57	; 0x39
 80015aa:	f7ff fd45 	bl	8001038 <LCD_WR_DATA>
 80015ae:	202c      	movs	r0, #44	; 0x2c
 80015b0:	f7ff fd42 	bl	8001038 <LCD_WR_DATA>
 80015b4:	2000      	movs	r0, #0
 80015b6:	f7ff fd3f 	bl	8001038 <LCD_WR_DATA>
 80015ba:	2034      	movs	r0, #52	; 0x34
 80015bc:	f7ff fd3c 	bl	8001038 <LCD_WR_DATA>
 80015c0:	2002      	movs	r0, #2
 80015c2:	f7ff fd39 	bl	8001038 <LCD_WR_DATA>
 80015c6:	20f7      	movs	r0, #247	; 0xf7
 80015c8:	f7ff fd26 	bl	8001018 <LCD_WR_REG>
 80015cc:	2020      	movs	r0, #32
 80015ce:	f7ff fd33 	bl	8001038 <LCD_WR_DATA>
 80015d2:	20ea      	movs	r0, #234	; 0xea
 80015d4:	f7ff fd20 	bl	8001018 <LCD_WR_REG>
 80015d8:	2000      	movs	r0, #0
 80015da:	f7ff fd2d 	bl	8001038 <LCD_WR_DATA>
 80015de:	2000      	movs	r0, #0
 80015e0:	f7ff fd2a 	bl	8001038 <LCD_WR_DATA>
 80015e4:	20c0      	movs	r0, #192	; 0xc0
 80015e6:	f7ff fd17 	bl	8001018 <LCD_WR_REG>
 80015ea:	201b      	movs	r0, #27
 80015ec:	f7ff fd24 	bl	8001038 <LCD_WR_DATA>
 80015f0:	20c1      	movs	r0, #193	; 0xc1
 80015f2:	f7ff fd11 	bl	8001018 <LCD_WR_REG>
 80015f6:	2001      	movs	r0, #1
 80015f8:	f7ff fd1e 	bl	8001038 <LCD_WR_DATA>
 80015fc:	20c5      	movs	r0, #197	; 0xc5
 80015fe:	f7ff fd0b 	bl	8001018 <LCD_WR_REG>
 8001602:	2030      	movs	r0, #48	; 0x30
 8001604:	f7ff fd18 	bl	8001038 <LCD_WR_DATA>
 8001608:	2030      	movs	r0, #48	; 0x30
 800160a:	f7ff fd15 	bl	8001038 <LCD_WR_DATA>
 800160e:	20c7      	movs	r0, #199	; 0xc7
 8001610:	f7ff fd02 	bl	8001018 <LCD_WR_REG>
 8001614:	20b7      	movs	r0, #183	; 0xb7
 8001616:	f7ff fd0f 	bl	8001038 <LCD_WR_DATA>
 800161a:	2036      	movs	r0, #54	; 0x36
 800161c:	f7ff fcfc 	bl	8001018 <LCD_WR_REG>
 8001620:	2008      	movs	r0, #8
 8001622:	f7ff fd09 	bl	8001038 <LCD_WR_DATA>
 8001626:	203a      	movs	r0, #58	; 0x3a
 8001628:	f7ff fcf6 	bl	8001018 <LCD_WR_REG>
 800162c:	2055      	movs	r0, #85	; 0x55
 800162e:	f7ff fd03 	bl	8001038 <LCD_WR_DATA>
 8001632:	20b1      	movs	r0, #177	; 0xb1
 8001634:	f7ff fcf0 	bl	8001018 <LCD_WR_REG>
 8001638:	2000      	movs	r0, #0
 800163a:	f7ff fcfd 	bl	8001038 <LCD_WR_DATA>
 800163e:	201a      	movs	r0, #26
 8001640:	f7ff fcfa 	bl	8001038 <LCD_WR_DATA>
 8001644:	20b6      	movs	r0, #182	; 0xb6
 8001646:	f7ff fce7 	bl	8001018 <LCD_WR_REG>
 800164a:	200a      	movs	r0, #10
 800164c:	f7ff fcf4 	bl	8001038 <LCD_WR_DATA>
 8001650:	20a2      	movs	r0, #162	; 0xa2
 8001652:	f7ff fcf1 	bl	8001038 <LCD_WR_DATA>
 8001656:	20f2      	movs	r0, #242	; 0xf2
 8001658:	f7ff fcde 	bl	8001018 <LCD_WR_REG>
 800165c:	2000      	movs	r0, #0
 800165e:	f7ff fceb 	bl	8001038 <LCD_WR_DATA>
 8001662:	2026      	movs	r0, #38	; 0x26
 8001664:	f7ff fcd8 	bl	8001018 <LCD_WR_REG>
 8001668:	2001      	movs	r0, #1
 800166a:	f7ff fce5 	bl	8001038 <LCD_WR_DATA>
 800166e:	20e0      	movs	r0, #224	; 0xe0
 8001670:	f7ff fcd2 	bl	8001018 <LCD_WR_REG>
 8001674:	200f      	movs	r0, #15
 8001676:	f7ff fcdf 	bl	8001038 <LCD_WR_DATA>
 800167a:	202a      	movs	r0, #42	; 0x2a
 800167c:	f7ff fcdc 	bl	8001038 <LCD_WR_DATA>
 8001680:	2028      	movs	r0, #40	; 0x28
 8001682:	f7ff fcd9 	bl	8001038 <LCD_WR_DATA>
 8001686:	2008      	movs	r0, #8
 8001688:	f7ff fcd6 	bl	8001038 <LCD_WR_DATA>
 800168c:	200e      	movs	r0, #14
 800168e:	f7ff fcd3 	bl	8001038 <LCD_WR_DATA>
 8001692:	2008      	movs	r0, #8
 8001694:	f7ff fcd0 	bl	8001038 <LCD_WR_DATA>
 8001698:	2054      	movs	r0, #84	; 0x54
 800169a:	f7ff fccd 	bl	8001038 <LCD_WR_DATA>
 800169e:	20a9      	movs	r0, #169	; 0xa9
 80016a0:	f7ff fcca 	bl	8001038 <LCD_WR_DATA>
 80016a4:	2043      	movs	r0, #67	; 0x43
 80016a6:	f7ff fcc7 	bl	8001038 <LCD_WR_DATA>
 80016aa:	200a      	movs	r0, #10
 80016ac:	f7ff fcc4 	bl	8001038 <LCD_WR_DATA>
 80016b0:	200f      	movs	r0, #15
 80016b2:	f7ff fcc1 	bl	8001038 <LCD_WR_DATA>
 80016b6:	2000      	movs	r0, #0
 80016b8:	f7ff fcbe 	bl	8001038 <LCD_WR_DATA>
 80016bc:	2000      	movs	r0, #0
 80016be:	f7ff fcbb 	bl	8001038 <LCD_WR_DATA>
 80016c2:	2000      	movs	r0, #0
 80016c4:	f7ff fcb8 	bl	8001038 <LCD_WR_DATA>
 80016c8:	2000      	movs	r0, #0
 80016ca:	f7ff fcb5 	bl	8001038 <LCD_WR_DATA>
 80016ce:	20e1      	movs	r0, #225	; 0xe1
 80016d0:	f7ff fca2 	bl	8001018 <LCD_WR_REG>
 80016d4:	2000      	movs	r0, #0
 80016d6:	f7ff fcaf 	bl	8001038 <LCD_WR_DATA>
 80016da:	2015      	movs	r0, #21
 80016dc:	f7ff fcac 	bl	8001038 <LCD_WR_DATA>
 80016e0:	2017      	movs	r0, #23
 80016e2:	f7ff fca9 	bl	8001038 <LCD_WR_DATA>
 80016e6:	2007      	movs	r0, #7
 80016e8:	f7ff fca6 	bl	8001038 <LCD_WR_DATA>
 80016ec:	2011      	movs	r0, #17
 80016ee:	f7ff fca3 	bl	8001038 <LCD_WR_DATA>
 80016f2:	2006      	movs	r0, #6
 80016f4:	f7ff fca0 	bl	8001038 <LCD_WR_DATA>
 80016f8:	202b      	movs	r0, #43	; 0x2b
 80016fa:	f7ff fc9d 	bl	8001038 <LCD_WR_DATA>
 80016fe:	2056      	movs	r0, #86	; 0x56
 8001700:	f7ff fc9a 	bl	8001038 <LCD_WR_DATA>
 8001704:	203c      	movs	r0, #60	; 0x3c
 8001706:	f7ff fc97 	bl	8001038 <LCD_WR_DATA>
 800170a:	2005      	movs	r0, #5
 800170c:	f7ff fc94 	bl	8001038 <LCD_WR_DATA>
 8001710:	2010      	movs	r0, #16
 8001712:	f7ff fc91 	bl	8001038 <LCD_WR_DATA>
 8001716:	200f      	movs	r0, #15
 8001718:	f7ff fc8e 	bl	8001038 <LCD_WR_DATA>
 800171c:	203f      	movs	r0, #63	; 0x3f
 800171e:	f7ff fc8b 	bl	8001038 <LCD_WR_DATA>
 8001722:	203f      	movs	r0, #63	; 0x3f
 8001724:	f7ff fc88 	bl	8001038 <LCD_WR_DATA>
 8001728:	200f      	movs	r0, #15
 800172a:	f7ff fc85 	bl	8001038 <LCD_WR_DATA>
 800172e:	202b      	movs	r0, #43	; 0x2b
 8001730:	f7ff fc72 	bl	8001018 <LCD_WR_REG>
 8001734:	2000      	movs	r0, #0
 8001736:	f7ff fc7f 	bl	8001038 <LCD_WR_DATA>
 800173a:	2000      	movs	r0, #0
 800173c:	f7ff fc7c 	bl	8001038 <LCD_WR_DATA>
 8001740:	2001      	movs	r0, #1
 8001742:	f7ff fc79 	bl	8001038 <LCD_WR_DATA>
 8001746:	203f      	movs	r0, #63	; 0x3f
 8001748:	f7ff fc76 	bl	8001038 <LCD_WR_DATA>
 800174c:	202a      	movs	r0, #42	; 0x2a
 800174e:	f7ff fc63 	bl	8001018 <LCD_WR_REG>
 8001752:	2000      	movs	r0, #0
 8001754:	f7ff fc70 	bl	8001038 <LCD_WR_DATA>
 8001758:	2000      	movs	r0, #0
 800175a:	f7ff fc6d 	bl	8001038 <LCD_WR_DATA>
 800175e:	2000      	movs	r0, #0
 8001760:	f7ff fc6a 	bl	8001038 <LCD_WR_DATA>
 8001764:	20ef      	movs	r0, #239	; 0xef
 8001766:	f7ff fc67 	bl	8001038 <LCD_WR_DATA>
 800176a:	2011      	movs	r0, #17
 800176c:	f7ff fc54 	bl	8001018 <LCD_WR_REG>
 8001770:	2078      	movs	r0, #120	; 0x78
 8001772:	f000 ff55 	bl	8002620 <HAL_Delay>
 8001776:	2029      	movs	r0, #41	; 0x29
 8001778:	f7ff fc4e 	bl	8001018 <LCD_WR_REG>
 800177c:	2201      	movs	r2, #1
 800177e:	f44f 7180 	mov.w	r1, #256	; 0x100
 8001782:	4804      	ldr	r0, [pc, #16]	; (8001794 <lcd_init+0x2bc>)
 8001784:	f002 fa4a 	bl	8003c1c <HAL_GPIO_WritePin>
 8001788:	bf00      	nop
 800178a:	bd80      	pop	{r7, pc}
 800178c:	40020800 	.word	0x40020800
 8001790:	20000180 	.word	0x20000180
 8001794:	40020000 	.word	0x40020000

08001798 <lcd_ShowStr>:
 8001798:	b590      	push	{r4, r7, lr}
 800179a:	b08b      	sub	sp, #44	; 0x2c
 800179c:	af04      	add	r7, sp, #16
 800179e:	60ba      	str	r2, [r7, #8]
 80017a0:	461a      	mov	r2, r3
 80017a2:	4603      	mov	r3, r0
 80017a4:	81fb      	strh	r3, [r7, #14]
 80017a6:	460b      	mov	r3, r1
 80017a8:	81bb      	strh	r3, [r7, #12]
 80017aa:	4613      	mov	r3, r2
 80017ac:	80fb      	strh	r3, [r7, #6]
 80017ae:	89fb      	ldrh	r3, [r7, #14]
 80017b0:	82bb      	strh	r3, [r7, #20]
 80017b2:	2300      	movs	r3, #0
 80017b4:	75fb      	strb	r3, [r7, #23]
 80017b6:	e048      	b.n	800184a <lcd_ShowStr+0xb2>
 80017b8:	7dfb      	ldrb	r3, [r7, #23]
 80017ba:	2b00      	cmp	r3, #0
 80017bc:	d145      	bne.n	800184a <lcd_ShowStr+0xb2>
 80017be:	89fa      	ldrh	r2, [r7, #14]
 80017c0:	4b26      	ldr	r3, [pc, #152]	; (800185c <lcd_ShowStr+0xc4>)
 80017c2:	881b      	ldrh	r3, [r3, #0]
 80017c4:	4619      	mov	r1, r3
 80017c6:	f897 302c 	ldrb.w	r3, [r7, #44]	; 0x2c
 80017ca:	085b      	lsrs	r3, r3, #1
 80017cc:	b2db      	uxtb	r3, r3
 80017ce:	1acb      	subs	r3, r1, r3
 80017d0:	429a      	cmp	r2, r3
 80017d2:	dc3f      	bgt.n	8001854 <lcd_ShowStr+0xbc>
 80017d4:	89ba      	ldrh	r2, [r7, #12]
 80017d6:	4b21      	ldr	r3, [pc, #132]	; (800185c <lcd_ShowStr+0xc4>)
 80017d8:	885b      	ldrh	r3, [r3, #2]
 80017da:	4619      	mov	r1, r3
 80017dc:	f897 302c 	ldrb.w	r3, [r7, #44]	; 0x2c
 80017e0:	1acb      	subs	r3, r1, r3
 80017e2:	429a      	cmp	r2, r3
 80017e4:	dc36      	bgt.n	8001854 <lcd_ShowStr+0xbc>
 80017e6:	68bb      	ldr	r3, [r7, #8]
 80017e8:	781b      	ldrb	r3, [r3, #0]
 80017ea:	2b80      	cmp	r3, #128	; 0x80
 80017ec:	d902      	bls.n	80017f4 <lcd_ShowStr+0x5c>
 80017ee:	2301      	movs	r3, #1
 80017f0:	75fb      	strb	r3, [r7, #23]
 80017f2:	e02a      	b.n	800184a <lcd_ShowStr+0xb2>
 80017f4:	68bb      	ldr	r3, [r7, #8]
 80017f6:	781b      	ldrb	r3, [r3, #0]
 80017f8:	2b0d      	cmp	r3, #13
 80017fa:	d10b      	bne.n	8001814 <lcd_ShowStr+0x7c>
 80017fc:	f897 302c 	ldrb.w	r3, [r7, #44]	; 0x2c
 8001800:	b29a      	uxth	r2, r3
 8001802:	89bb      	ldrh	r3, [r7, #12]
 8001804:	4413      	add	r3, r2
 8001806:	81bb      	strh	r3, [r7, #12]
 8001808:	8abb      	ldrh	r3, [r7, #20]
 800180a:	81fb      	strh	r3, [r7, #14]
 800180c:	68bb      	ldr	r3, [r7, #8]
 800180e:	3301      	adds	r3, #1
 8001810:	60bb      	str	r3, [r7, #8]
 8001812:	e017      	b.n	8001844 <lcd_ShowStr+0xac>
 8001814:	68bb      	ldr	r3, [r7, #8]
 8001816:	781a      	ldrb	r2, [r3, #0]
 8001818:	88fc      	ldrh	r4, [r7, #6]
 800181a:	89b9      	ldrh	r1, [r7, #12]
 800181c:	89f8      	ldrh	r0, [r7, #14]
 800181e:	f897 3030 	ldrb.w	r3, [r7, #48]	; 0x30
 8001822:	9302      	str	r3, [sp, #8]
 8001824:	f897 302c 	ldrb.w	r3, [r7, #44]	; 0x2c
 8001828:	9301      	str	r3, [sp, #4]
 800182a:	8d3b      	ldrh	r3, [r7, #40]	; 0x28
 800182c:	9300      	str	r3, [sp, #0]
 800182e:	4623      	mov	r3, r4
 8001830:	f7ff fcba 	bl	80011a8 <lcd_ShowChar>
 8001834:	f897 302c 	ldrb.w	r3, [r7, #44]	; 0x2c
 8001838:	085b      	lsrs	r3, r3, #1
 800183a:	b2db      	uxtb	r3, r3
 800183c:	b29a      	uxth	r2, r3
 800183e:	89fb      	ldrh	r3, [r7, #14]
 8001840:	4413      	add	r3, r2
 8001842:	81fb      	strh	r3, [r7, #14]
 8001844:	68bb      	ldr	r3, [r7, #8]
 8001846:	3301      	adds	r3, #1
 8001848:	60bb      	str	r3, [r7, #8]
 800184a:	68bb      	ldr	r3, [r7, #8]
 800184c:	781b      	ldrb	r3, [r3, #0]
 800184e:	2b00      	cmp	r3, #0
 8001850:	d1b2      	bne.n	80017b8 <lcd_ShowStr+0x20>
 8001852:	e000      	b.n	8001856 <lcd_ShowStr+0xbe>
 8001854:	bf00      	nop
 8001856:	371c      	adds	r7, #28
 8001858:	46bd      	mov	sp, r7
 800185a:	bd90      	pop	{r4, r7, pc}
 800185c:	20000180 	.word	0x20000180

08001860 <led7_Scan>:
 8001860:	b580      	push	{r7, lr}
 8001862:	af00      	add	r7, sp, #0
 8001864:	4b3f      	ldr	r3, [pc, #252]	; (8001964 <led7_Scan+0x104>)
 8001866:	881b      	ldrh	r3, [r3, #0]
 8001868:	b2db      	uxtb	r3, r3
 800186a:	b29a      	uxth	r2, r3
 800186c:	4b3d      	ldr	r3, [pc, #244]	; (8001964 <led7_Scan+0x104>)
 800186e:	801a      	strh	r2, [r3, #0]
 8001870:	4b3d      	ldr	r3, [pc, #244]	; (8001968 <led7_Scan+0x108>)
 8001872:	681b      	ldr	r3, [r3, #0]
 8001874:	4a3d      	ldr	r2, [pc, #244]	; (800196c <led7_Scan+0x10c>)
 8001876:	5cd3      	ldrb	r3, [r2, r3]
 8001878:	021b      	lsls	r3, r3, #8
 800187a:	b21a      	sxth	r2, r3
 800187c:	4b39      	ldr	r3, [pc, #228]	; (8001964 <led7_Scan+0x104>)
 800187e:	881b      	ldrh	r3, [r3, #0]
 8001880:	b21b      	sxth	r3, r3
 8001882:	4313      	orrs	r3, r2
 8001884:	b21b      	sxth	r3, r3
 8001886:	b29a      	uxth	r2, r3
 8001888:	4b36      	ldr	r3, [pc, #216]	; (8001964 <led7_Scan+0x104>)
 800188a:	801a      	strh	r2, [r3, #0]
 800188c:	4b36      	ldr	r3, [pc, #216]	; (8001968 <led7_Scan+0x108>)
 800188e:	681b      	ldr	r3, [r3, #0]
 8001890:	2b03      	cmp	r3, #3
 8001892:	d847      	bhi.n	8001924 <led7_Scan+0xc4>
 8001894:	a201      	add	r2, pc, #4	; (adr r2, 800189c <led7_Scan+0x3c>)
 8001896:	f852 f023 	ldr.w	pc, [r2, r3, lsl #2]
 800189a:	bf00      	nop
 800189c:	080018ad 	.word	0x080018ad
 80018a0:	080018cb 	.word	0x080018cb
 80018a4:	080018e9 	.word	0x080018e9
 80018a8:	08001907 	.word	0x08001907
 80018ac:	4b2d      	ldr	r3, [pc, #180]	; (8001964 <led7_Scan+0x104>)
 80018ae:	881b      	ldrh	r3, [r3, #0]
 80018b0:	f043 03b0 	orr.w	r3, r3, #176	; 0xb0
 80018b4:	b29a      	uxth	r2, r3
 80018b6:	4b2b      	ldr	r3, [pc, #172]	; (8001964 <led7_Scan+0x104>)
 80018b8:	801a      	strh	r2, [r3, #0]
 80018ba:	4b2a      	ldr	r3, [pc, #168]	; (8001964 <led7_Scan+0x104>)
 80018bc:	881b      	ldrh	r3, [r3, #0]
 80018be:	f023 0340 	bic.w	r3, r3, #64	; 0x40
 80018c2:	b29a      	uxth	r2, r3
 80018c4:	4b27      	ldr	r3, [pc, #156]	; (8001964 <led7_Scan+0x104>)
 80018c6:	801a      	strh	r2, [r3, #0]
 80018c8:	e02d      	b.n	8001926 <led7_Scan+0xc6>
 80018ca:	4b26      	ldr	r3, [pc, #152]	; (8001964 <led7_Scan+0x104>)
 80018cc:	881b      	ldrh	r3, [r3, #0]
 80018ce:	f043 03d0 	orr.w	r3, r3, #208	; 0xd0
 80018d2:	b29a      	uxth	r2, r3
 80018d4:	4b23      	ldr	r3, [pc, #140]	; (8001964 <led7_Scan+0x104>)
 80018d6:	801a      	strh	r2, [r3, #0]
 80018d8:	4b22      	ldr	r3, [pc, #136]	; (8001964 <led7_Scan+0x104>)
 80018da:	881b      	ldrh	r3, [r3, #0]
 80018dc:	f023 0320 	bic.w	r3, r3, #32
 80018e0:	b29a      	uxth	r2, r3
 80018e2:	4b20      	ldr	r3, [pc, #128]	; (8001964 <led7_Scan+0x104>)
 80018e4:	801a      	strh	r2, [r3, #0]
 80018e6:	e01e      	b.n	8001926 <led7_Scan+0xc6>
 80018e8:	4b1e      	ldr	r3, [pc, #120]	; (8001964 <led7_Scan+0x104>)
 80018ea:	881b      	ldrh	r3, [r3, #0]
 80018ec:	f043 03e0 	orr.w	r3, r3, #224	; 0xe0
 80018f0:	b29a      	uxth	r2, r3
 80018f2:	4b1c      	ldr	r3, [pc, #112]	; (8001964 <led7_Scan+0x104>)
 80018f4:	801a      	strh	r2, [r3, #0]
 80018f6:	4b1b      	ldr	r3, [pc, #108]	; (8001964 <led7_Scan+0x104>)
 80018f8:	881b      	ldrh	r3, [r3, #0]
 80018fa:	f023 0310 	bic.w	r3, r3, #16
 80018fe:	b29a      	uxth	r2, r3
 8001900:	4b18      	ldr	r3, [pc, #96]	; (8001964 <led7_Scan+0x104>)
 8001902:	801a      	strh	r2, [r3, #0]
 8001904:	e00f      	b.n	8001926 <led7_Scan+0xc6>
 8001906:	4b17      	ldr	r3, [pc, #92]	; (8001964 <led7_Scan+0x104>)
 8001908:	881b      	ldrh	r3, [r3, #0]
 800190a:	f043 0370 	orr.w	r3, r3, #112	; 0x70
 800190e:	b29a      	uxth	r2, r3
 8001910:	4b14      	ldr	r3, [pc, #80]	; (8001964 <led7_Scan+0x104>)
 8001912:	801a      	strh	r2, [r3, #0]
 8001914:	4b13      	ldr	r3, [pc, #76]	; (8001964 <led7_Scan+0x104>)
 8001916:	881b      	ldrh	r3, [r3, #0]
 8001918:	f023 0380 	bic.w	r3, r3, #128	; 0x80
 800191c:	b29a      	uxth	r2, r3
 800191e:	4b11      	ldr	r3, [pc, #68]	; (8001964 <led7_Scan+0x104>)
 8001920:	801a      	strh	r2, [r3, #0]
 8001922:	e000      	b.n	8001926 <led7_Scan+0xc6>
 8001924:	bf00      	nop
 8001926:	4b10      	ldr	r3, [pc, #64]	; (8001968 <led7_Scan+0x108>)
 8001928:	681b      	ldr	r3, [r3, #0]
 800192a:	3301      	adds	r3, #1
 800192c:	425a      	negs	r2, r3
 800192e:	f003 0303 	and.w	r3, r3, #3
 8001932:	f002 0203 	and.w	r2, r2, #3
 8001936:	bf58      	it	pl
 8001938:	4253      	negpl	r3, r2
 800193a:	4a0b      	ldr	r2, [pc, #44]	; (8001968 <led7_Scan+0x108>)
 800193c:	6013      	str	r3, [r2, #0]
 800193e:	2200      	movs	r2, #0
 8001940:	2140      	movs	r1, #64	; 0x40
 8001942:	480b      	ldr	r0, [pc, #44]	; (8001970 <led7_Scan+0x110>)
 8001944:	f002 f96a 	bl	8003c1c <HAL_GPIO_WritePin>
 8001948:	2301      	movs	r3, #1
 800194a:	2202      	movs	r2, #2
 800194c:	4905      	ldr	r1, [pc, #20]	; (8001964 <led7_Scan+0x104>)
 800194e:	4809      	ldr	r0, [pc, #36]	; (8001974 <led7_Scan+0x114>)
 8001950:	f002 fffd 	bl	800494e <HAL_SPI_Transmit>
 8001954:	2201      	movs	r2, #1
 8001956:	2140      	movs	r1, #64	; 0x40
 8001958:	4805      	ldr	r0, [pc, #20]	; (8001970 <led7_Scan+0x110>)
 800195a:	f002 f95f 	bl	8003c1c <HAL_GPIO_WritePin>
 800195e:	bf00      	nop
 8001960:	bd80      	pop	{r7, pc}
 8001962:	bf00      	nop
 8001964:	20000004 	.word	0x20000004
 8001968:	20000188 	.word	0x20000188
 800196c:	20000000 	.word	0x20000000
 8001970:	40021800 	.word	0x40021800
 8001974:	200001a8 	.word	0x200001a8

08001978 <main>:
/**
  * @brief  The application entry point.
  * @retval int
  */
int main(void)
{
 8001978:	b580      	push	{r7, lr}
 800197a:	af00      	add	r7, sp, #0
  /* USER CODE END 1 */

  /* MCU Configuration--------------------------------------------------------*/

  /* Reset of all peripherals, Initializes the Flash interface and the Systick. */
  HAL_Init();
 800197c:	f000 fdde 	bl	800253c <HAL_Init>
  /* USER CODE BEGIN Init */

  /* USER CODE END Init */

  /* Configure the system clock */
  SystemClock_Config();
 8001980:	f000 f84a 	bl	8001a18 <SystemClock_Config>
  /* USER CODE BEGIN SysInit */

  /* USER CODE END SysInit */

  /* Initialize all configured peripherals */
  MX_GPIO_Init();
 8001984:	f7ff f998 	bl	8000cb8 <MX_GPIO_Init>
  MX_DMA_Init();
 8001988:	f7ff f8a6 	bl	8000ad8 <MX_DMA_Init>
  MX_SPI1_Init();
 800198c:	f000 f9da 	bl	8001d44 <MX_SPI1_Init>
  MX_FSMC_Init();
 8001990:	f7ff f8c2 	bl	8000b18 <MX_FSMC_Init>
  MX_I2C1_Init();
 8001994:	f7ff faca 	bl	8000f2c <MX_I2C1_Init>
  MX_TIM13_Init();
 8001998:	f000 fb7a 	bl	8002090 <MX_TIM13_Init>
  MX_TIM2_Init();
 800199c:	f000 fb2c 	bl	8001ff8 <MX_TIM2_Init>
  MX_ADC1_Init();
 80019a0:	f7fe ff70 	bl	8000884 <MX_ADC1_Init>
  MX_TIM1_Init();
 80019a4:	f000 fad8 	bl	8001f58 <MX_TIM1_Init>
  MX_USART2_UART_Init();
 80019a8:	f000 fce8 	bl	800237c <MX_USART2_UART_Init>
  MX_USART1_UART_Init();
 80019ac:	f000 fcbc 	bl	8002328 <MX_USART1_UART_Init>
  /* USER CODE BEGIN 2 */
  system_init();
 80019b0:	f000 f89c 	bl	8001aec <system_init>
  /* USER CODE END 2 */

  /* Infinite loop */
  /* USER CODE BEGIN WHILE */
  lcd_Clear(BLACK);
 80019b4:	2000      	movs	r0, #0
 80019b6:	f7ff fbad 	bl	8001114 <lcd_Clear>
  while (1)
  {
	  // 50ms task
	  if(flag_timer2)
 80019ba:	4b13      	ldr	r3, [pc, #76]	; (8001a08 <main+0x90>)
 80019bc:	881b      	ldrh	r3, [r3, #0]
 80019be:	2b00      	cmp	r3, #0
 80019c0:	d01e      	beq.n	8001a00 <main+0x88>
	  {
		  flag_timer2 = 0;
 80019c2:	4b11      	ldr	r3, [pc, #68]	; (8001a08 <main+0x90>)
 80019c4:	2200      	movs	r2, #0
 80019c6:	801a      	strh	r2, [r3, #0]
		  test_LedDebug();
 80019c8:	f000 f8a2 	bl	8001b10 <test_LedDebug>
		  switch (system_status)
 80019cc:	4b0f      	ldr	r3, [pc, #60]	; (8001a0c <main+0x94>)
 80019ce:	781b      	ldrb	r3, [r3, #0]
 80019d0:	2b00      	cmp	r3, #0
 80019d2:	d002      	beq.n	80019da <main+0x62>
 80019d4:	2b01      	cmp	r3, #1
 80019d6:	d00c      	beq.n	80019f2 <main+0x7a>
 80019d8:	e015      	b.n	8001a06 <main+0x8e>
		  {
		  case WAIT_ESP_INIT:
			  if (GPIO_PIN_RESET == HAL_GPIO_ReadPin(ESP12_BUSY_GPIO_Port, ESP12_BUSY_Pin))
 80019da:	f44f 7100 	mov.w	r1, #512	; 0x200
 80019de:	480c      	ldr	r0, [pc, #48]	; (8001a10 <main+0x98>)
 80019e0:	f002 f904 	bl	8003bec <HAL_GPIO_ReadPin>
 80019e4:	4603      	mov	r3, r0
 80019e6:	2b00      	cmp	r3, #0
 80019e8:	d10c      	bne.n	8001a04 <main+0x8c>
			  {
				  system_status = SEND_TEMPERATURE;
 80019ea:	4b08      	ldr	r3, [pc, #32]	; (8001a0c <main+0x94>)
 80019ec:	2201      	movs	r2, #1
 80019ee:	701a      	strb	r2, [r3, #0]
			  }
			  break;
 80019f0:	e008      	b.n	8001a04 <main+0x8c>
		  case SEND_TEMPERATURE:
			  readTemperature();
 80019f2:	f000 f8b1 	bl	8001b58 <readTemperature>
//			  uart_EspSendBytes(temperatureBytesArray, 4);
			  uart_EspSendBytes(&roundedTemperature, 1);
 80019f6:	2101      	movs	r1, #1
 80019f8:	4806      	ldr	r0, [pc, #24]	; (8001a14 <main+0x9c>)
 80019fa:	f000 fc39 	bl	8002270 <uart_EspSendBytes>
			  break;
 80019fe:	e002      	b.n	8001a06 <main+0x8e>
		  }
	  }
 8001a00:	bf00      	nop
 8001a02:	e7da      	b.n	80019ba <main+0x42>
			  break;
 8001a04:	bf00      	nop
	  if(flag_timer2)
 8001a06:	e7d8      	b.n	80019ba <main+0x42>
 8001a08:	200001a2 	.word	0x200001a2
 8001a0c:	2000018d 	.word	0x2000018d
 8001a10:	40021400 	.word	0x40021400
 8001a14:	20000194 	.word	0x20000194

08001a18 <SystemClock_Config>:
/**
  * @brief System Clock Configuration
  * @retval None
  */
void SystemClock_Config(void)
{
 8001a18:	b580      	push	{r7, lr}
 8001a1a:	b094      	sub	sp, #80	; 0x50
 8001a1c:	af00      	add	r7, sp, #0
  RCC_OscInitTypeDef RCC_OscInitStruct = {0};
 8001a1e:	f107 0320 	add.w	r3, r7, #32
 8001a22:	2230      	movs	r2, #48	; 0x30
 8001a24:	2100      	movs	r1, #0
 8001a26:	4618      	mov	r0, r3
 8001a28:	f005 fb0a 	bl	8007040 <memset>
  RCC_ClkInitTypeDef RCC_ClkInitStruct = {0};
 8001a2c:	f107 030c 	add.w	r3, r7, #12
 8001a30:	2200      	movs	r2, #0
 8001a32:	601a      	str	r2, [r3, #0]
 8001a34:	605a      	str	r2, [r3, #4]
 8001a36:	609a      	str	r2, [r3, #8]
 8001a38:	60da      	str	r2, [r3, #12]
 8001a3a:	611a      	str	r2, [r3, #16]

  /** Configure the main internal regulator output voltage
  */
  __HAL_RCC_PWR_CLK_ENABLE();
 8001a3c:	2300      	movs	r3, #0
 8001a3e:	60bb      	str	r3, [r7, #8]
 8001a40:	4b28      	ldr	r3, [pc, #160]	; (8001ae4 <SystemClock_Config+0xcc>)
 8001a42:	6c1b      	ldr	r3, [r3, #64]	; 0x40
 8001a44:	4a27      	ldr	r2, [pc, #156]	; (8001ae4 <SystemClock_Config+0xcc>)
 8001a46:	f043 5380 	orr.w	r3, r3, #268435456	; 0x10000000
 8001a4a:	6413      	str	r3, [r2, #64]	; 0x40
 8001a4c:	4b25      	ldr	r3, [pc, #148]	; (8001ae4 <SystemClock_Config+0xcc>)
 8001a4e:	6c1b      	ldr	r3, [r3, #64]	; 0x40
 8001a50:	f003 5380 	and.w	r3, r3, #268435456	; 0x10000000
 8001a54:	60bb      	str	r3, [r7, #8]
 8001a56:	68bb      	ldr	r3, [r7, #8]
  __HAL_PWR_VOLTAGESCALING_CONFIG(PWR_REGULATOR_VOLTAGE_SCALE1);
 8001a58:	2300      	movs	r3, #0
 8001a5a:	607b      	str	r3, [r7, #4]
 8001a5c:	4b22      	ldr	r3, [pc, #136]	; (8001ae8 <SystemClock_Config+0xd0>)
 8001a5e:	681b      	ldr	r3, [r3, #0]
 8001a60:	4a21      	ldr	r2, [pc, #132]	; (8001ae8 <SystemClock_Config+0xd0>)
 8001a62:	f443 4380 	orr.w	r3, r3, #16384	; 0x4000
 8001a66:	6013      	str	r3, [r2, #0]
 8001a68:	4b1f      	ldr	r3, [pc, #124]	; (8001ae8 <SystemClock_Config+0xd0>)
 8001a6a:	681b      	ldr	r3, [r3, #0]
 8001a6c:	f403 4380 	and.w	r3, r3, #16384	; 0x4000
 8001a70:	607b      	str	r3, [r7, #4]
 8001a72:	687b      	ldr	r3, [r7, #4]

  /** Initializes the RCC Oscillators according to the specified parameters
  * in the RCC_OscInitTypeDef structure.
  */
  RCC_OscInitStruct.OscillatorType = RCC_OSCILLATORTYPE_HSI;
 8001a74:	2302      	movs	r3, #2
 8001a76:	623b      	str	r3, [r7, #32]
  RCC_OscInitStruct.HSIState = RCC_HSI_ON;
 8001a78:	2301      	movs	r3, #1
 8001a7a:	62fb      	str	r3, [r7, #44]	; 0x2c
  RCC_OscInitStruct.HSICalibrationValue = RCC_HSICALIBRATION_DEFAULT;
 8001a7c:	2310      	movs	r3, #16
 8001a7e:	633b      	str	r3, [r7, #48]	; 0x30
  RCC_OscInitStruct.PLL.PLLState = RCC_PLL_ON;
 8001a80:	2302      	movs	r3, #2
 8001a82:	63bb      	str	r3, [r7, #56]	; 0x38
  RCC_OscInitStruct.PLL.PLLSource = RCC_PLLSOURCE_HSI;
 8001a84:	2300      	movs	r3, #0
 8001a86:	63fb      	str	r3, [r7, #60]	; 0x3c
  RCC_OscInitStruct.PLL.PLLM = 8;
 8001a88:	2308      	movs	r3, #8
 8001a8a:	643b      	str	r3, [r7, #64]	; 0x40
  RCC_OscInitStruct.PLL.PLLN = 168;
 8001a8c:	23a8      	movs	r3, #168	; 0xa8
 8001a8e:	647b      	str	r3, [r7, #68]	; 0x44
  RCC_OscInitStruct.PLL.PLLP = RCC_PLLP_DIV2;
 8001a90:	2302      	movs	r3, #2
 8001a92:	64bb      	str	r3, [r7, #72]	; 0x48
  RCC_OscInitStruct.PLL.PLLQ = 4;
 8001a94:	2304      	movs	r3, #4
 8001a96:	64fb      	str	r3, [r7, #76]	; 0x4c
  if (HAL_RCC_OscConfig(&RCC_OscInitStruct) != HAL_OK)
 8001a98:	f107 0320 	add.w	r3, r7, #32
 8001a9c:	4618      	mov	r0, r3
 8001a9e:	f002 fa35 	bl	8003f0c <HAL_RCC_OscConfig>
 8001aa2:	4603      	mov	r3, r0
 8001aa4:	2b00      	cmp	r3, #0
 8001aa6:	d001      	beq.n	8001aac <SystemClock_Config+0x94>
  {
    Error_Handler();
 8001aa8:	f000 f8b8 	bl	8001c1c <Error_Handler>
  }

  /** Initializes the CPU, AHB and APB buses clocks
  */
  RCC_ClkInitStruct.ClockType = RCC_CLOCKTYPE_HCLK|RCC_CLOCKTYPE_SYSCLK
 8001aac:	230f      	movs	r3, #15
 8001aae:	60fb      	str	r3, [r7, #12]
                              |RCC_CLOCKTYPE_PCLK1|RCC_CLOCKTYPE_PCLK2;
  RCC_ClkInitStruct.SYSCLKSource = RCC_SYSCLKSOURCE_PLLCLK;
 8001ab0:	2302      	movs	r3, #2
 8001ab2:	613b      	str	r3, [r7, #16]
  RCC_ClkInitStruct.AHBCLKDivider = RCC_SYSCLK_DIV1;
 8001ab4:	2300      	movs	r3, #0
 8001ab6:	617b      	str	r3, [r7, #20]
  RCC_ClkInitStruct.APB1CLKDivider = RCC_HCLK_DIV4;
 8001ab8:	f44f 53a0 	mov.w	r3, #5120	; 0x1400
 8001abc:	61bb      	str	r3, [r7, #24]
  RCC_ClkInitStruct.APB2CLKDivider = RCC_HCLK_DIV4;
 8001abe:	f44f 53a0 	mov.w	r3, #5120	; 0x1400
 8001ac2:	61fb      	str	r3, [r7, #28]

  if (HAL_RCC_ClockConfig(&RCC_ClkInitStruct, FLASH_LATENCY_5) != HAL_OK)
 8001ac4:	f107 030c 	add.w	r3, r7, #12
 8001ac8:	2105      	movs	r1, #5
 8001aca:	4618      	mov	r0, r3
 8001acc:	f002 fc96 	bl	80043fc <HAL_RCC_ClockConfig>
 8001ad0:	4603      	mov	r3, r0
 8001ad2:	2b00      	cmp	r3, #0
 8001ad4:	d001      	beq.n	8001ada <SystemClock_Config+0xc2>
  {
    Error_Handler();
 8001ad6:	f000 f8a1 	bl	8001c1c <Error_Handler>
  }
}
 8001ada:	bf00      	nop
 8001adc:	3750      	adds	r7, #80	; 0x50
 8001ade:	46bd      	mov	sp, r7
 8001ae0:	bd80      	pop	{r7, pc}
 8001ae2:	bf00      	nop
 8001ae4:	40023800 	.word	0x40023800
 8001ae8:	40007000 	.word	0x40007000

08001aec <system_init>:

/* USER CODE BEGIN 4 */
void system_init(){
 8001aec:	b580      	push	{r7, lr}
 8001aee:	af00      	add	r7, sp, #0
	  timer_init();
 8001af0:	f000 f8d4 	bl	8001c9c <timer_init>
	  button_init();
 8001af4:	f7fe ffe4 	bl	8000ac0 <button_init>
	  sensor_init();
 8001af8:	f000 f896 	bl	8001c28 <sensor_init>
	  lcd_init();
 8001afc:	f7ff fcec 	bl	80014d8 <lcd_init>
	  uart_init_esp();
 8001b00:	f000 fba0 	bl	8002244 <uart_init_esp>
	  setTimer2(50);
 8001b04:	2032      	movs	r0, #50	; 0x32
 8001b06:	f000 f8d7 	bl	8001cb8 <setTimer2>
}
 8001b0a:	bf00      	nop
 8001b0c:	bd80      	pop	{r7, pc}
	...

08001b10 <test_LedDebug>:

uint8_t count_led_debug = 0;
void test_LedDebug(){
 8001b10:	b580      	push	{r7, lr}
 8001b12:	af00      	add	r7, sp, #0
	count_led_debug = (count_led_debug + 1)%20;
 8001b14:	4b0d      	ldr	r3, [pc, #52]	; (8001b4c <test_LedDebug+0x3c>)
 8001b16:	781b      	ldrb	r3, [r3, #0]
 8001b18:	1c5a      	adds	r2, r3, #1
 8001b1a:	4b0d      	ldr	r3, [pc, #52]	; (8001b50 <test_LedDebug+0x40>)
 8001b1c:	fb83 1302 	smull	r1, r3, r3, r2
 8001b20:	10d9      	asrs	r1, r3, #3
 8001b22:	17d3      	asrs	r3, r2, #31
 8001b24:	1ac9      	subs	r1, r1, r3
 8001b26:	460b      	mov	r3, r1
 8001b28:	009b      	lsls	r3, r3, #2
 8001b2a:	440b      	add	r3, r1
 8001b2c:	009b      	lsls	r3, r3, #2
 8001b2e:	1ad1      	subs	r1, r2, r3
 8001b30:	b2ca      	uxtb	r2, r1
 8001b32:	4b06      	ldr	r3, [pc, #24]	; (8001b4c <test_LedDebug+0x3c>)
 8001b34:	701a      	strb	r2, [r3, #0]
	if(count_led_debug == 0){
 8001b36:	4b05      	ldr	r3, [pc, #20]	; (8001b4c <test_LedDebug+0x3c>)
 8001b38:	781b      	ldrb	r3, [r3, #0]
 8001b3a:	2b00      	cmp	r3, #0
 8001b3c:	d103      	bne.n	8001b46 <test_LedDebug+0x36>
		HAL_GPIO_TogglePin(DEBUG_LED_GPIO_Port, DEBUG_LED_Pin);
 8001b3e:	2110      	movs	r1, #16
 8001b40:	4804      	ldr	r0, [pc, #16]	; (8001b54 <test_LedDebug+0x44>)
 8001b42:	f002 f884 	bl	8003c4e <HAL_GPIO_TogglePin>
	}
}
 8001b46:	bf00      	nop
 8001b48:	bd80      	pop	{r7, pc}
 8001b4a:	bf00      	nop
 8001b4c:	20000195 	.word	0x20000195
 8001b50:	66666667 	.word	0x66666667
 8001b54:	40021000 	.word	0x40021000

08001b58 <readTemperature>:

uint8_t timer_temperature_cnt = 0;
void readTemperature() {
 8001b58:	b580      	push	{r7, lr}
 8001b5a:	b086      	sub	sp, #24
 8001b5c:	af04      	add	r7, sp, #16
	timer_temperature_cnt = (timer_temperature_cnt + 1) % READ_TEMP_CYCLE;
 8001b5e:	4b2a      	ldr	r3, [pc, #168]	; (8001c08 <readTemperature+0xb0>)
 8001b60:	781b      	ldrb	r3, [r3, #0]
 8001b62:	3301      	adds	r3, #1
 8001b64:	4a29      	ldr	r2, [pc, #164]	; (8001c0c <readTemperature+0xb4>)
 8001b66:	fb82 1203 	smull	r1, r2, r2, r3
 8001b6a:	1191      	asrs	r1, r2, #6
 8001b6c:	17da      	asrs	r2, r3, #31
 8001b6e:	1a8a      	subs	r2, r1, r2
 8001b70:	f44f 7116 	mov.w	r1, #600	; 0x258
 8001b74:	fb01 f202 	mul.w	r2, r1, r2
 8001b78:	1a9a      	subs	r2, r3, r2
 8001b7a:	b2d2      	uxtb	r2, r2
 8001b7c:	4b22      	ldr	r3, [pc, #136]	; (8001c08 <readTemperature+0xb0>)
 8001b7e:	701a      	strb	r2, [r3, #0]
	if (timer_temperature_cnt == 0){
 8001b80:	4b21      	ldr	r3, [pc, #132]	; (8001c08 <readTemperature+0xb0>)
 8001b82:	781b      	ldrb	r3, [r3, #0]
 8001b84:	2b00      	cmp	r3, #0
 8001b86:	d13a      	bne.n	8001bfe <readTemperature+0xa6>
		sensor_Read();
 8001b88:	f000 f85c 	bl	8001c44 <sensor_Read>
		lcd_ShowStr(10, 180, "Temperature:", RED, BLACK, 16, 0);
 8001b8c:	2300      	movs	r3, #0
 8001b8e:	9302      	str	r3, [sp, #8]
 8001b90:	2310      	movs	r3, #16
 8001b92:	9301      	str	r3, [sp, #4]
 8001b94:	2300      	movs	r3, #0
 8001b96:	9300      	str	r3, [sp, #0]
 8001b98:	f44f 4378 	mov.w	r3, #63488	; 0xf800
 8001b9c:	4a1c      	ldr	r2, [pc, #112]	; (8001c10 <readTemperature+0xb8>)
 8001b9e:	21b4      	movs	r1, #180	; 0xb4
 8001ba0:	200a      	movs	r0, #10
 8001ba2:	f7ff fdf9 	bl	8001798 <lcd_ShowStr>

		// Send float temperature
		float currentTemperature = sensor_GetTemperature();
 8001ba6:	f000 f85b 	bl	8001c60 <sensor_GetTemperature>
 8001baa:	eef0 7a40 	vmov.f32	s15, s0
 8001bae:	edc7 7a01 	vstr	s15, [r7, #4]
 8001bb2:	687b      	ldr	r3, [r7, #4]
		memcpy(temperatureBytesArray, (uint8_t*)&currentTemperature, sizeof(float));
 8001bb4:	4a17      	ldr	r2, [pc, #92]	; (8001c14 <readTemperature+0xbc>)
 8001bb6:	6013      	str	r3, [r2, #0]

		// Send rounded temperature
		roundedTemperature = round(currentTemperature);
 8001bb8:	687b      	ldr	r3, [r7, #4]
 8001bba:	4618      	mov	r0, r3
 8001bbc:	f7fe fc68 	bl	8000490 <__aeabi_f2d>
 8001bc0:	4602      	mov	r2, r0
 8001bc2:	460b      	mov	r3, r1
 8001bc4:	ec43 2b10 	vmov	d0, r2, r3
 8001bc8:	f005 fa42 	bl	8007050 <round>
 8001bcc:	ec53 2b10 	vmov	r2, r3, d0
 8001bd0:	4610      	mov	r0, r2
 8001bd2:	4619      	mov	r1, r3
 8001bd4:	f7fe fcb4 	bl	8000540 <__aeabi_d2uiz>
 8001bd8:	4603      	mov	r3, r0
 8001bda:	b2da      	uxtb	r2, r3
 8001bdc:	4b0e      	ldr	r3, [pc, #56]	; (8001c18 <readTemperature+0xc0>)
 8001bde:	701a      	strb	r2, [r3, #0]

		lcd_ShowFloatNum(130, 180,currentTemperature, 4, RED, BLACK, 16);
 8001be0:	edd7 7a01 	vldr	s15, [r7, #4]
 8001be4:	2310      	movs	r3, #16
 8001be6:	9301      	str	r3, [sp, #4]
 8001be8:	2300      	movs	r3, #0
 8001bea:	9300      	str	r3, [sp, #0]
 8001bec:	f44f 4378 	mov.w	r3, #63488	; 0xf800
 8001bf0:	2204      	movs	r2, #4
 8001bf2:	eeb0 0a67 	vmov.f32	s0, s15
 8001bf6:	21b4      	movs	r1, #180	; 0xb4
 8001bf8:	2082      	movs	r0, #130	; 0x82
 8001bfa:	f7ff fbc1 	bl	8001380 <lcd_ShowFloatNum>
	}
}
 8001bfe:	bf00      	nop
 8001c00:	3708      	adds	r7, #8
 8001c02:	46bd      	mov	sp, r7
 8001c04:	bd80      	pop	{r7, pc}
 8001c06:	bf00      	nop
 8001c08:	20000196 	.word	0x20000196
 8001c0c:	1b4e81b5 	.word	0x1b4e81b5
 8001c10:	080070f4 	.word	0x080070f4
 8001c14:	20000190 	.word	0x20000190
 8001c18:	20000194 	.word	0x20000194

08001c1c <Error_Handler>:
/**
  * @brief  This function is executed in case of error occurrence.
  * @retval None
  */
void Error_Handler(void)
{
 8001c1c:	b480      	push	{r7}
 8001c1e:	af00      	add	r7, sp, #0
  \details Disables IRQ interrupts by setting the I-bit in the CPSR.
           Can only be executed in Privileged modes.
 */
__STATIC_FORCEINLINE void __disable_irq(void)
{
  __ASM volatile ("cpsid i" : : : "memory");
 8001c20:	b672      	cpsid	i
}
 8001c22:	bf00      	nop
  /* USER CODE BEGIN Error_Handler_Debug */
  /* User can add his own implementation to report the HAL error return state */
  __disable_irq();
  while (1)
 8001c24:	e7fe      	b.n	8001c24 <Error_Handler+0x8>
	...

08001c28 <sensor_init>:
 8001c28:	b580      	push	{r7, lr}
 8001c2a:	af00      	add	r7, sp, #0
 8001c2c:	2205      	movs	r2, #5
 8001c2e:	4903      	ldr	r1, [pc, #12]	; (8001c3c <sensor_init+0x14>)
 8001c30:	4803      	ldr	r0, [pc, #12]	; (8001c40 <sensor_init+0x18>)
 8001c32:	f000 fd5d 	bl	80026f0 <HAL_ADC_Start_DMA>
 8001c36:	bf00      	nop
 8001c38:	bd80      	pop	{r7, pc}
 8001c3a:	bf00      	nop
 8001c3c:	20000198 	.word	0x20000198
 8001c40:	20000030 	.word	0x20000030

08001c44 <sensor_Read>:
 8001c44:	b580      	push	{r7, lr}
 8001c46:	af00      	add	r7, sp, #0
 8001c48:	2205      	movs	r2, #5
 8001c4a:	4903      	ldr	r1, [pc, #12]	; (8001c58 <sensor_Read+0x14>)
 8001c4c:	4803      	ldr	r0, [pc, #12]	; (8001c5c <sensor_Read+0x18>)
 8001c4e:	f000 fd4f 	bl	80026f0 <HAL_ADC_Start_DMA>
 8001c52:	bf00      	nop
 8001c54:	bd80      	pop	{r7, pc}
 8001c56:	bf00      	nop
 8001c58:	20000198 	.word	0x20000198
 8001c5c:	20000030 	.word	0x20000030

08001c60 <sensor_GetTemperature>:
 8001c60:	b480      	push	{r7}
 8001c62:	af00      	add	r7, sp, #0
 8001c64:	4b0a      	ldr	r3, [pc, #40]	; (8001c90 <sensor_GetTemperature+0x30>)
 8001c66:	891b      	ldrh	r3, [r3, #8]
 8001c68:	ee07 3a90 	vmov	s15, r3
 8001c6c:	eef8 7a67 	vcvt.f32.u32	s15, s15
 8001c70:	ed9f 7a08 	vldr	s14, [pc, #32]	; 8001c94 <sensor_GetTemperature+0x34>
 8001c74:	ee67 7a87 	vmul.f32	s15, s15, s14
 8001c78:	ed9f 7a07 	vldr	s14, [pc, #28]	; 8001c98 <sensor_GetTemperature+0x38>
 8001c7c:	eec7 6a87 	vdiv.f32	s13, s15, s14
 8001c80:	eef0 7a66 	vmov.f32	s15, s13
 8001c84:	eeb0 0a67 	vmov.f32	s0, s15
 8001c88:	46bd      	mov	sp, r7
 8001c8a:	f85d 7b04 	ldr.w	r7, [sp], #4
 8001c8e:	4770      	bx	lr
 8001c90:	20000198 	.word	0x20000198
 8001c94:	43a50000 	.word	0x43a50000
 8001c98:	457ff000 	.word	0x457ff000

08001c9c <timer_init>:
 8001c9c:	b580      	push	{r7, lr}
 8001c9e:	af00      	add	r7, sp, #0
 8001ca0:	4803      	ldr	r0, [pc, #12]	; (8001cb0 <timer_init+0x14>)
 8001ca2:	f003 f95b 	bl	8004f5c <HAL_TIM_Base_Start_IT>
 8001ca6:	4803      	ldr	r0, [pc, #12]	; (8001cb4 <timer_init+0x18>)
 8001ca8:	f003 f8f0 	bl	8004e8c <HAL_TIM_Base_Start>
 8001cac:	bf00      	nop
 8001cae:	bd80      	pop	{r7, pc}
 8001cb0:	20000248 	.word	0x20000248
 8001cb4:	20000200 	.word	0x20000200

08001cb8 <setTimer2>:
 8001cb8:	b480      	push	{r7}
 8001cba:	b083      	sub	sp, #12
 8001cbc:	af00      	add	r7, sp, #0
 8001cbe:	4603      	mov	r3, r0
 8001cc0:	80fb      	strh	r3, [r7, #6]
 8001cc2:	4a08      	ldr	r2, [pc, #32]	; (8001ce4 <setTimer2+0x2c>)
 8001cc4:	88fb      	ldrh	r3, [r7, #6]
 8001cc6:	8013      	strh	r3, [r2, #0]
 8001cc8:	4b06      	ldr	r3, [pc, #24]	; (8001ce4 <setTimer2+0x2c>)
 8001cca:	881a      	ldrh	r2, [r3, #0]
 8001ccc:	4b06      	ldr	r3, [pc, #24]	; (8001ce8 <setTimer2+0x30>)
 8001cce:	801a      	strh	r2, [r3, #0]
 8001cd0:	4b06      	ldr	r3, [pc, #24]	; (8001cec <setTimer2+0x34>)
 8001cd2:	2200      	movs	r2, #0
 8001cd4:	801a      	strh	r2, [r3, #0]
 8001cd6:	bf00      	nop
 8001cd8:	370c      	adds	r7, #12
 8001cda:	46bd      	mov	sp, r7
 8001cdc:	f85d 7b04 	ldr.w	r7, [sp], #4
 8001ce0:	4770      	bx	lr
 8001ce2:	bf00      	nop
 8001ce4:	200001a6 	.word	0x200001a6
 8001ce8:	200001a4 	.word	0x200001a4
 8001cec:	200001a2 	.word	0x200001a2

08001cf0 <HAL_TIM_PeriodElapsedCallback>:
 8001cf0:	b580      	push	{r7, lr}
 8001cf2:	b082      	sub	sp, #8
 8001cf4:	af00      	add	r7, sp, #0
 8001cf6:	6078      	str	r0, [r7, #4]
 8001cf8:	687b      	ldr	r3, [r7, #4]
 8001cfa:	681b      	ldr	r3, [r3, #0]
 8001cfc:	f1b3 4f80 	cmp.w	r3, #1073741824	; 0x40000000
 8001d00:	d116      	bne.n	8001d30 <HAL_TIM_PeriodElapsedCallback+0x40>
 8001d02:	4b0d      	ldr	r3, [pc, #52]	; (8001d38 <HAL_TIM_PeriodElapsedCallback+0x48>)
 8001d04:	881b      	ldrh	r3, [r3, #0]
 8001d06:	2b00      	cmp	r3, #0
 8001d08:	d010      	beq.n	8001d2c <HAL_TIM_PeriodElapsedCallback+0x3c>
 8001d0a:	4b0b      	ldr	r3, [pc, #44]	; (8001d38 <HAL_TIM_PeriodElapsedCallback+0x48>)
 8001d0c:	881b      	ldrh	r3, [r3, #0]
 8001d0e:	3b01      	subs	r3, #1
 8001d10:	b29a      	uxth	r2, r3
 8001d12:	4b09      	ldr	r3, [pc, #36]	; (8001d38 <HAL_TIM_PeriodElapsedCallback+0x48>)
 8001d14:	801a      	strh	r2, [r3, #0]
 8001d16:	4b08      	ldr	r3, [pc, #32]	; (8001d38 <HAL_TIM_PeriodElapsedCallback+0x48>)
 8001d18:	881b      	ldrh	r3, [r3, #0]
 8001d1a:	2b00      	cmp	r3, #0
 8001d1c:	d106      	bne.n	8001d2c <HAL_TIM_PeriodElapsedCallback+0x3c>
 8001d1e:	4b07      	ldr	r3, [pc, #28]	; (8001d3c <HAL_TIM_PeriodElapsedCallback+0x4c>)
 8001d20:	2201      	movs	r2, #1
 8001d22:	801a      	strh	r2, [r3, #0]
 8001d24:	4b06      	ldr	r3, [pc, #24]	; (8001d40 <HAL_TIM_PeriodElapsedCallback+0x50>)
 8001d26:	881a      	ldrh	r2, [r3, #0]
 8001d28:	4b03      	ldr	r3, [pc, #12]	; (8001d38 <HAL_TIM_PeriodElapsedCallback+0x48>)
 8001d2a:	801a      	strh	r2, [r3, #0]
 8001d2c:	f7ff fd98 	bl	8001860 <led7_Scan>
 8001d30:	bf00      	nop
 8001d32:	3708      	adds	r7, #8
 8001d34:	46bd      	mov	sp, r7
 8001d36:	bd80      	pop	{r7, pc}
 8001d38:	200001a4 	.word	0x200001a4
 8001d3c:	200001a2 	.word	0x200001a2
 8001d40:	200001a6 	.word	0x200001a6

08001d44 <MX_SPI1_Init>:
 8001d44:	b580      	push	{r7, lr}
 8001d46:	af00      	add	r7, sp, #0
 8001d48:	4b17      	ldr	r3, [pc, #92]	; (8001da8 <MX_SPI1_Init+0x64>)
 8001d4a:	4a18      	ldr	r2, [pc, #96]	; (8001dac <MX_SPI1_Init+0x68>)
 8001d4c:	601a      	str	r2, [r3, #0]
 8001d4e:	4b16      	ldr	r3, [pc, #88]	; (8001da8 <MX_SPI1_Init+0x64>)
 8001d50:	f44f 7282 	mov.w	r2, #260	; 0x104
 8001d54:	605a      	str	r2, [r3, #4]
 8001d56:	4b14      	ldr	r3, [pc, #80]	; (8001da8 <MX_SPI1_Init+0x64>)
 8001d58:	2200      	movs	r2, #0
 8001d5a:	609a      	str	r2, [r3, #8]
 8001d5c:	4b12      	ldr	r3, [pc, #72]	; (8001da8 <MX_SPI1_Init+0x64>)
 8001d5e:	2200      	movs	r2, #0
 8001d60:	60da      	str	r2, [r3, #12]
 8001d62:	4b11      	ldr	r3, [pc, #68]	; (8001da8 <MX_SPI1_Init+0x64>)
 8001d64:	2200      	movs	r2, #0
 8001d66:	611a      	str	r2, [r3, #16]
 8001d68:	4b0f      	ldr	r3, [pc, #60]	; (8001da8 <MX_SPI1_Init+0x64>)
 8001d6a:	2200      	movs	r2, #0
 8001d6c:	615a      	str	r2, [r3, #20]
 8001d6e:	4b0e      	ldr	r3, [pc, #56]	; (8001da8 <MX_SPI1_Init+0x64>)
 8001d70:	f44f 7200 	mov.w	r2, #512	; 0x200
 8001d74:	619a      	str	r2, [r3, #24]
 8001d76:	4b0c      	ldr	r3, [pc, #48]	; (8001da8 <MX_SPI1_Init+0x64>)
 8001d78:	2200      	movs	r2, #0
 8001d7a:	61da      	str	r2, [r3, #28]
 8001d7c:	4b0a      	ldr	r3, [pc, #40]	; (8001da8 <MX_SPI1_Init+0x64>)
 8001d7e:	2200      	movs	r2, #0
 8001d80:	621a      	str	r2, [r3, #32]
 8001d82:	4b09      	ldr	r3, [pc, #36]	; (8001da8 <MX_SPI1_Init+0x64>)
 8001d84:	2200      	movs	r2, #0
 8001d86:	625a      	str	r2, [r3, #36]	; 0x24
 8001d88:	4b07      	ldr	r3, [pc, #28]	; (8001da8 <MX_SPI1_Init+0x64>)
 8001d8a:	2200      	movs	r2, #0
 8001d8c:	629a      	str	r2, [r3, #40]	; 0x28
 8001d8e:	4b06      	ldr	r3, [pc, #24]	; (8001da8 <MX_SPI1_Init+0x64>)
 8001d90:	220a      	movs	r2, #10
 8001d92:	62da      	str	r2, [r3, #44]	; 0x2c
 8001d94:	4804      	ldr	r0, [pc, #16]	; (8001da8 <MX_SPI1_Init+0x64>)
 8001d96:	f002 fd51 	bl	800483c <HAL_SPI_Init>
 8001d9a:	4603      	mov	r3, r0
 8001d9c:	2b00      	cmp	r3, #0
 8001d9e:	d001      	beq.n	8001da4 <MX_SPI1_Init+0x60>
 8001da0:	f7ff ff3c 	bl	8001c1c <Error_Handler>
 8001da4:	bf00      	nop
 8001da6:	bd80      	pop	{r7, pc}
 8001da8:	200001a8 	.word	0x200001a8
 8001dac:	40013000 	.word	0x40013000

08001db0 <HAL_SPI_MspInit>:
 8001db0:	b580      	push	{r7, lr}
 8001db2:	b08a      	sub	sp, #40	; 0x28
 8001db4:	af00      	add	r7, sp, #0
 8001db6:	6078      	str	r0, [r7, #4]
 8001db8:	f107 0314 	add.w	r3, r7, #20
 8001dbc:	2200      	movs	r2, #0
 8001dbe:	601a      	str	r2, [r3, #0]
 8001dc0:	605a      	str	r2, [r3, #4]
 8001dc2:	609a      	str	r2, [r3, #8]
 8001dc4:	60da      	str	r2, [r3, #12]
 8001dc6:	611a      	str	r2, [r3, #16]
 8001dc8:	687b      	ldr	r3, [r7, #4]
 8001dca:	681b      	ldr	r3, [r3, #0]
 8001dcc:	4a19      	ldr	r2, [pc, #100]	; (8001e34 <HAL_SPI_MspInit+0x84>)
 8001dce:	4293      	cmp	r3, r2
 8001dd0:	d12b      	bne.n	8001e2a <HAL_SPI_MspInit+0x7a>
 8001dd2:	2300      	movs	r3, #0
 8001dd4:	613b      	str	r3, [r7, #16]
 8001dd6:	4b18      	ldr	r3, [pc, #96]	; (8001e38 <HAL_SPI_MspInit+0x88>)
 8001dd8:	6c5b      	ldr	r3, [r3, #68]	; 0x44
 8001dda:	4a17      	ldr	r2, [pc, #92]	; (8001e38 <HAL_SPI_MspInit+0x88>)
 8001ddc:	f443 5380 	orr.w	r3, r3, #4096	; 0x1000
 8001de0:	6453      	str	r3, [r2, #68]	; 0x44
 8001de2:	4b15      	ldr	r3, [pc, #84]	; (8001e38 <HAL_SPI_MspInit+0x88>)
 8001de4:	6c5b      	ldr	r3, [r3, #68]	; 0x44
 8001de6:	f403 5380 	and.w	r3, r3, #4096	; 0x1000
 8001dea:	613b      	str	r3, [r7, #16]
 8001dec:	693b      	ldr	r3, [r7, #16]
 8001dee:	2300      	movs	r3, #0
 8001df0:	60fb      	str	r3, [r7, #12]
 8001df2:	4b11      	ldr	r3, [pc, #68]	; (8001e38 <HAL_SPI_MspInit+0x88>)
 8001df4:	6b1b      	ldr	r3, [r3, #48]	; 0x30
 8001df6:	4a10      	ldr	r2, [pc, #64]	; (8001e38 <HAL_SPI_MspInit+0x88>)
 8001df8:	f043 0302 	orr.w	r3, r3, #2
 8001dfc:	6313      	str	r3, [r2, #48]	; 0x30
 8001dfe:	4b0e      	ldr	r3, [pc, #56]	; (8001e38 <HAL_SPI_MspInit+0x88>)
 8001e00:	6b1b      	ldr	r3, [r3, #48]	; 0x30
 8001e02:	f003 0302 	and.w	r3, r3, #2
 8001e06:	60fb      	str	r3, [r7, #12]
 8001e08:	68fb      	ldr	r3, [r7, #12]
 8001e0a:	2338      	movs	r3, #56	; 0x38
 8001e0c:	617b      	str	r3, [r7, #20]
 8001e0e:	2302      	movs	r3, #2
 8001e10:	61bb      	str	r3, [r7, #24]
 8001e12:	2300      	movs	r3, #0
 8001e14:	61fb      	str	r3, [r7, #28]
 8001e16:	2303      	movs	r3, #3
 8001e18:	623b      	str	r3, [r7, #32]
 8001e1a:	2305      	movs	r3, #5
 8001e1c:	627b      	str	r3, [r7, #36]	; 0x24
 8001e1e:	f107 0314 	add.w	r3, r7, #20
 8001e22:	4619      	mov	r1, r3
 8001e24:	4805      	ldr	r0, [pc, #20]	; (8001e3c <HAL_SPI_MspInit+0x8c>)
 8001e26:	f001 fd45 	bl	80038b4 <HAL_GPIO_Init>
 8001e2a:	bf00      	nop
 8001e2c:	3728      	adds	r7, #40	; 0x28
 8001e2e:	46bd      	mov	sp, r7
 8001e30:	bd80      	pop	{r7, pc}
 8001e32:	bf00      	nop
 8001e34:	40013000 	.word	0x40013000
 8001e38:	40023800 	.word	0x40023800
 8001e3c:	40020400 	.word	0x40020400

08001e40 <HAL_MspInit>:
 8001e40:	b480      	push	{r7}
 8001e42:	b083      	sub	sp, #12
 8001e44:	af00      	add	r7, sp, #0
 8001e46:	2300      	movs	r3, #0
 8001e48:	607b      	str	r3, [r7, #4]
 8001e4a:	4b10      	ldr	r3, [pc, #64]	; (8001e8c <HAL_MspInit+0x4c>)
 8001e4c:	6c5b      	ldr	r3, [r3, #68]	; 0x44
 8001e4e:	4a0f      	ldr	r2, [pc, #60]	; (8001e8c <HAL_MspInit+0x4c>)
 8001e50:	f443 4380 	orr.w	r3, r3, #16384	; 0x4000
 8001e54:	6453      	str	r3, [r2, #68]	; 0x44
 8001e56:	4b0d      	ldr	r3, [pc, #52]	; (8001e8c <HAL_MspInit+0x4c>)
 8001e58:	6c5b      	ldr	r3, [r3, #68]	; 0x44
 8001e5a:	f403 4380 	and.w	r3, r3, #16384	; 0x4000
 8001e5e:	607b      	str	r3, [r7, #4]
 8001e60:	687b      	ldr	r3, [r7, #4]
 8001e62:	2300      	movs	r3, #0
 8001e64:	603b      	str	r3, [r7, #0]
 8001e66:	4b09      	ldr	r3, [pc, #36]	; (8001e8c <HAL_MspInit+0x4c>)
 8001e68:	6c1b      	ldr	r3, [r3, #64]	; 0x40
 8001e6a:	4a08      	ldr	r2, [pc, #32]	; (8001e8c <HAL_MspInit+0x4c>)
 8001e6c:	f043 5380 	orr.w	r3, r3, #268435456	; 0x10000000
 8001e70:	6413      	str	r3, [r2, #64]	; 0x40
 8001e72:	4b06      	ldr	r3, [pc, #24]	; (8001e8c <HAL_MspInit+0x4c>)
 8001e74:	6c1b      	ldr	r3, [r3, #64]	; 0x40
 8001e76:	f003 5380 	and.w	r3, r3, #268435456	; 0x10000000
 8001e7a:	603b      	str	r3, [r7, #0]
 8001e7c:	683b      	ldr	r3, [r7, #0]
 8001e7e:	bf00      	nop
 8001e80:	370c      	adds	r7, #12
 8001e82:	46bd      	mov	sp, r7
 8001e84:	f85d 7b04 	ldr.w	r7, [sp], #4
 8001e88:	4770      	bx	lr
 8001e8a:	bf00      	nop
 8001e8c:	40023800 	.word	0x40023800

08001e90 <NMI_Handler>:
 8001e90:	b480      	push	{r7}
 8001e92:	af00      	add	r7, sp, #0
 8001e94:	e7fe      	b.n	8001e94 <NMI_Handler+0x4>

08001e96 <HardFault_Handler>:
 8001e96:	b480      	push	{r7}
 8001e98:	af00      	add	r7, sp, #0
 8001e9a:	e7fe      	b.n	8001e9a <HardFault_Handler+0x4>

08001e9c <MemManage_Handler>:
 8001e9c:	b480      	push	{r7}
 8001e9e:	af00      	add	r7, sp, #0
 8001ea0:	e7fe      	b.n	8001ea0 <MemManage_Handler+0x4>

08001ea2 <BusFault_Handler>:
 8001ea2:	b480      	push	{r7}
 8001ea4:	af00      	add	r7, sp, #0
 8001ea6:	e7fe      	b.n	8001ea6 <BusFault_Handler+0x4>

08001ea8 <UsageFault_Handler>:
 8001ea8:	b480      	push	{r7}
 8001eaa:	af00      	add	r7, sp, #0
 8001eac:	e7fe      	b.n	8001eac <UsageFault_Handler+0x4>

08001eae <SVC_Handler>:
 8001eae:	b480      	push	{r7}
 8001eb0:	af00      	add	r7, sp, #0
 8001eb2:	bf00      	nop
 8001eb4:	46bd      	mov	sp, r7
 8001eb6:	f85d 7b04 	ldr.w	r7, [sp], #4
 8001eba:	4770      	bx	lr

08001ebc <DebugMon_Handler>:
 8001ebc:	b480      	push	{r7}
 8001ebe:	af00      	add	r7, sp, #0
 8001ec0:	bf00      	nop
 8001ec2:	46bd      	mov	sp, r7
 8001ec4:	f85d 7b04 	ldr.w	r7, [sp], #4
 8001ec8:	4770      	bx	lr

08001eca <PendSV_Handler>:
 8001eca:	b480      	push	{r7}
 8001ecc:	af00      	add	r7, sp, #0
 8001ece:	bf00      	nop
 8001ed0:	46bd      	mov	sp, r7
 8001ed2:	f85d 7b04 	ldr.w	r7, [sp], #4
 8001ed6:	4770      	bx	lr

08001ed8 <SysTick_Handler>:
 8001ed8:	b580      	push	{r7, lr}
 8001eda:	af00      	add	r7, sp, #0
 8001edc:	f000 fb80 	bl	80025e0 <HAL_IncTick>
 8001ee0:	bf00      	nop
 8001ee2:	bd80      	pop	{r7, pc}

08001ee4 <TIM2_IRQHandler>:
 8001ee4:	b580      	push	{r7, lr}
 8001ee6:	af00      	add	r7, sp, #0
 8001ee8:	4802      	ldr	r0, [pc, #8]	; (8001ef4 <TIM2_IRQHandler+0x10>)
 8001eea:	f003 f900 	bl	80050ee <HAL_TIM_IRQHandler>
 8001eee:	bf00      	nop
 8001ef0:	bd80      	pop	{r7, pc}
 8001ef2:	bf00      	nop
 8001ef4:	20000248 	.word	0x20000248

08001ef8 <USART1_IRQHandler>:
 8001ef8:	b580      	push	{r7, lr}
 8001efa:	af00      	add	r7, sp, #0
 8001efc:	4802      	ldr	r0, [pc, #8]	; (8001f08 <USART1_IRQHandler+0x10>)
 8001efe:	f004 f83b 	bl	8005f78 <HAL_UART_IRQHandler>
 8001f02:	bf00      	nop
 8001f04:	bd80      	pop	{r7, pc}
 8001f06:	bf00      	nop
 8001f08:	200002dc 	.word	0x200002dc

08001f0c <USART2_IRQHandler>:
 8001f0c:	b580      	push	{r7, lr}
 8001f0e:	af00      	add	r7, sp, #0
 8001f10:	4802      	ldr	r0, [pc, #8]	; (8001f1c <USART2_IRQHandler+0x10>)
 8001f12:	f004 f831 	bl	8005f78 <HAL_UART_IRQHandler>
 8001f16:	bf00      	nop
 8001f18:	bd80      	pop	{r7, pc}
 8001f1a:	bf00      	nop
 8001f1c:	20000320 	.word	0x20000320

08001f20 <DMA2_Stream0_IRQHandler>:
 8001f20:	b580      	push	{r7, lr}
 8001f22:	af00      	add	r7, sp, #0
 8001f24:	4802      	ldr	r0, [pc, #8]	; (8001f30 <DMA2_Stream0_IRQHandler+0x10>)
 8001f26:	f001 fa5b 	bl	80033e0 <HAL_DMA_IRQHandler>
 8001f2a:	bf00      	nop
 8001f2c:	bd80      	pop	{r7, pc}
 8001f2e:	bf00      	nop
 8001f30:	20000078 	.word	0x20000078

08001f34 <SystemInit>:
 8001f34:	b480      	push	{r7}
 8001f36:	af00      	add	r7, sp, #0
 8001f38:	4b06      	ldr	r3, [pc, #24]	; (8001f54 <SystemInit+0x20>)
 8001f3a:	f8d3 3088 	ldr.w	r3, [r3, #136]	; 0x88
 8001f3e:	4a05      	ldr	r2, [pc, #20]	; (8001f54 <SystemInit+0x20>)
 8001f40:	f443 0370 	orr.w	r3, r3, #15728640	; 0xf00000
 8001f44:	f8c2 3088 	str.w	r3, [r2, #136]	; 0x88
 8001f48:	bf00      	nop
 8001f4a:	46bd      	mov	sp, r7
 8001f4c:	f85d 7b04 	ldr.w	r7, [sp], #4
 8001f50:	4770      	bx	lr
 8001f52:	bf00      	nop
 8001f54:	e000ed00 	.word	0xe000ed00

08001f58 <MX_TIM1_Init>:
 8001f58:	b580      	push	{r7, lr}
 8001f5a:	b086      	sub	sp, #24
 8001f5c:	af00      	add	r7, sp, #0
 8001f5e:	f107 0308 	add.w	r3, r7, #8
 8001f62:	2200      	movs	r2, #0
 8001f64:	601a      	str	r2, [r3, #0]
 8001f66:	605a      	str	r2, [r3, #4]
 8001f68:	609a      	str	r2, [r3, #8]
 8001f6a:	60da      	str	r2, [r3, #12]
 8001f6c:	463b      	mov	r3, r7
 8001f6e:	2200      	movs	r2, #0
 8001f70:	601a      	str	r2, [r3, #0]
 8001f72:	605a      	str	r2, [r3, #4]
 8001f74:	4b1e      	ldr	r3, [pc, #120]	; (8001ff0 <MX_TIM1_Init+0x98>)
 8001f76:	4a1f      	ldr	r2, [pc, #124]	; (8001ff4 <MX_TIM1_Init+0x9c>)
 8001f78:	601a      	str	r2, [r3, #0]
 8001f7a:	4b1d      	ldr	r3, [pc, #116]	; (8001ff0 <MX_TIM1_Init+0x98>)
 8001f7c:	2253      	movs	r2, #83	; 0x53
 8001f7e:	605a      	str	r2, [r3, #4]
 8001f80:	4b1b      	ldr	r3, [pc, #108]	; (8001ff0 <MX_TIM1_Init+0x98>)
 8001f82:	2200      	movs	r2, #0
 8001f84:	609a      	str	r2, [r3, #8]
 8001f86:	4b1a      	ldr	r3, [pc, #104]	; (8001ff0 <MX_TIM1_Init+0x98>)
 8001f88:	f64f 72ff 	movw	r2, #65535	; 0xffff
 8001f8c:	60da      	str	r2, [r3, #12]
 8001f8e:	4b18      	ldr	r3, [pc, #96]	; (8001ff0 <MX_TIM1_Init+0x98>)
 8001f90:	2200      	movs	r2, #0
 8001f92:	611a      	str	r2, [r3, #16]
 8001f94:	4b16      	ldr	r3, [pc, #88]	; (8001ff0 <MX_TIM1_Init+0x98>)
 8001f96:	2200      	movs	r2, #0
 8001f98:	615a      	str	r2, [r3, #20]
 8001f9a:	4b15      	ldr	r3, [pc, #84]	; (8001ff0 <MX_TIM1_Init+0x98>)
 8001f9c:	2200      	movs	r2, #0
 8001f9e:	619a      	str	r2, [r3, #24]
 8001fa0:	4813      	ldr	r0, [pc, #76]	; (8001ff0 <MX_TIM1_Init+0x98>)
 8001fa2:	f002 ff23 	bl	8004dec <HAL_TIM_Base_Init>
 8001fa6:	4603      	mov	r3, r0
 8001fa8:	2b00      	cmp	r3, #0
 8001faa:	d001      	beq.n	8001fb0 <MX_TIM1_Init+0x58>
 8001fac:	f7ff fe36 	bl	8001c1c <Error_Handler>
 8001fb0:	f44f 5380 	mov.w	r3, #4096	; 0x1000
 8001fb4:	60bb      	str	r3, [r7, #8]
 8001fb6:	f107 0308 	add.w	r3, r7, #8
 8001fba:	4619      	mov	r1, r3
 8001fbc:	480c      	ldr	r0, [pc, #48]	; (8001ff0 <MX_TIM1_Init+0x98>)
 8001fbe:	f003 fa61 	bl	8005484 <HAL_TIM_ConfigClockSource>
 8001fc2:	4603      	mov	r3, r0
 8001fc4:	2b00      	cmp	r3, #0
 8001fc6:	d001      	beq.n	8001fcc <MX_TIM1_Init+0x74>
 8001fc8:	f7ff fe28 	bl	8001c1c <Error_Handler>
 8001fcc:	2300      	movs	r3, #0
 8001fce:	603b      	str	r3, [r7, #0]
 8001fd0:	2300      	movs	r3, #0
 8001fd2:	607b      	str	r3, [r7, #4]
 8001fd4:	463b      	mov	r3, r7
 8001fd6:	4619      	mov	r1, r3
 8001fd8:	4805      	ldr	r0, [pc, #20]	; (8001ff0 <MX_TIM1_Init+0x98>)
 8001fda:	f003 fe2d 	bl	8005c38 <HAL_TIMEx_MasterConfigSynchronization>
 8001fde:	4603      	mov	r3, r0
 8001fe0:	2b00      	cmp	r3, #0
 8001fe2:	d001      	beq.n	8001fe8 <MX_TIM1_Init+0x90>
 8001fe4:	f7ff fe1a 	bl	8001c1c <Error_Handler>
 8001fe8:	bf00      	nop
 8001fea:	3718      	adds	r7, #24
 8001fec:	46bd      	mov	sp, r7
 8001fee:	bd80      	pop	{r7, pc}
 8001ff0:	20000200 	.word	0x20000200
 8001ff4:	40010000 	.word	0x40010000

08001ff8 <MX_TIM2_Init>:
 8001ff8:	b580      	push	{r7, lr}
 8001ffa:	b086      	sub	sp, #24
 8001ffc:	af00      	add	r7, sp, #0
 8001ffe:	f107 0308 	add.w	r3, r7, #8
 8002002:	2200      	movs	r2, #0
 8002004:	601a      	str	r2, [r3, #0]
 8002006:	605a      	str	r2, [r3, #4]
 8002008:	609a      	str	r2, [r3, #8]
 800200a:	60da      	str	r2, [r3, #12]
 800200c:	463b      	mov	r3, r7
 800200e:	2200      	movs	r2, #0
 8002010:	601a      	str	r2, [r3, #0]
 8002012:	605a      	str	r2, [r3, #4]
 8002014:	4b1d      	ldr	r3, [pc, #116]	; (800208c <MX_TIM2_Init+0x94>)
 8002016:	f04f 4280 	mov.w	r2, #1073741824	; 0x40000000
 800201a:	601a      	str	r2, [r3, #0]
 800201c:	4b1b      	ldr	r3, [pc, #108]	; (800208c <MX_TIM2_Init+0x94>)
 800201e:	f240 3247 	movw	r2, #839	; 0x347
 8002022:	605a      	str	r2, [r3, #4]
 8002024:	4b19      	ldr	r3, [pc, #100]	; (800208c <MX_TIM2_Init+0x94>)
 8002026:	2200      	movs	r2, #0
 8002028:	609a      	str	r2, [r3, #8]
 800202a:	4b18      	ldr	r3, [pc, #96]	; (800208c <MX_TIM2_Init+0x94>)
 800202c:	2263      	movs	r2, #99	; 0x63
 800202e:	60da      	str	r2, [r3, #12]
 8002030:	4b16      	ldr	r3, [pc, #88]	; (800208c <MX_TIM2_Init+0x94>)
 8002032:	2200      	movs	r2, #0
 8002034:	611a      	str	r2, [r3, #16]
 8002036:	4b15      	ldr	r3, [pc, #84]	; (800208c <MX_TIM2_Init+0x94>)
 8002038:	2200      	movs	r2, #0
 800203a:	619a      	str	r2, [r3, #24]
 800203c:	4813      	ldr	r0, [pc, #76]	; (800208c <MX_TIM2_Init+0x94>)
 800203e:	f002 fed5 	bl	8004dec <HAL_TIM_Base_Init>
 8002042:	4603      	mov	r3, r0
 8002044:	2b00      	cmp	r3, #0
 8002046:	d001      	beq.n	800204c <MX_TIM2_Init+0x54>
 8002048:	f7ff fde8 	bl	8001c1c <Error_Handler>
 800204c:	f44f 5380 	mov.w	r3, #4096	; 0x1000
 8002050:	60bb      	str	r3, [r7, #8]
 8002052:	f107 0308 	add.w	r3, r7, #8
 8002056:	4619      	mov	r1, r3
 8002058:	480c      	ldr	r0, [pc, #48]	; (800208c <MX_TIM2_Init+0x94>)
 800205a:	f003 fa13 	bl	8005484 <HAL_TIM_ConfigClockSource>
 800205e:	4603      	mov	r3, r0
 8002060:	2b00      	cmp	r3, #0
 8002062:	d001      	beq.n	8002068 <MX_TIM2_Init+0x70>
 8002064:	f7ff fdda 	bl	8001c1c <Error_Handler>
 8002068:	2300      	movs	r3, #0
 800206a:	603b      	str	r3, [r7, #0]
 800206c:	2300      	movs	r3, #0
 800206e:	607b      	str	r3, [r7, #4]
 8002070:	463b      	mov	r3, r7
 8002072:	4619      	mov	r1, r3
 8002074:	4805      	ldr	r0, [pc, #20]	; (800208c <MX_TIM2_Init+0x94>)
 8002076:	f003 fddf 	bl	8005c38 <HAL_TIMEx_MasterConfigSynchronization>
 800207a:	4603      	mov	r3, r0
 800207c:	2b00      	cmp	r3, #0
 800207e:	d001      	beq.n	8002084 <MX_TIM2_Init+0x8c>
 8002080:	f7ff fdcc 	bl	8001c1c <Error_Handler>
 8002084:	bf00      	nop
 8002086:	3718      	adds	r7, #24
 8002088:	46bd      	mov	sp, r7
 800208a:	bd80      	pop	{r7, pc}
 800208c:	20000248 	.word	0x20000248

08002090 <MX_TIM13_Init>:
 8002090:	b580      	push	{r7, lr}
 8002092:	b088      	sub	sp, #32
 8002094:	af00      	add	r7, sp, #0
 8002096:	1d3b      	adds	r3, r7, #4
 8002098:	2200      	movs	r2, #0
 800209a:	601a      	str	r2, [r3, #0]
 800209c:	605a      	str	r2, [r3, #4]
 800209e:	609a      	str	r2, [r3, #8]
 80020a0:	60da      	str	r2, [r3, #12]
 80020a2:	611a      	str	r2, [r3, #16]
 80020a4:	615a      	str	r2, [r3, #20]
 80020a6:	619a      	str	r2, [r3, #24]
 80020a8:	4b1e      	ldr	r3, [pc, #120]	; (8002124 <MX_TIM13_Init+0x94>)
 80020aa:	4a1f      	ldr	r2, [pc, #124]	; (8002128 <MX_TIM13_Init+0x98>)
 80020ac:	601a      	str	r2, [r3, #0]
 80020ae:	4b1d      	ldr	r3, [pc, #116]	; (8002124 <MX_TIM13_Init+0x94>)
 80020b0:	f240 3247 	movw	r2, #839	; 0x347
 80020b4:	605a      	str	r2, [r3, #4]
 80020b6:	4b1b      	ldr	r3, [pc, #108]	; (8002124 <MX_TIM13_Init+0x94>)
 80020b8:	2200      	movs	r2, #0
 80020ba:	609a      	str	r2, [r3, #8]
 80020bc:	4b19      	ldr	r3, [pc, #100]	; (8002124 <MX_TIM13_Init+0x94>)
 80020be:	2263      	movs	r2, #99	; 0x63
 80020c0:	60da      	str	r2, [r3, #12]
 80020c2:	4b18      	ldr	r3, [pc, #96]	; (8002124 <MX_TIM13_Init+0x94>)
 80020c4:	2200      	movs	r2, #0
 80020c6:	611a      	str	r2, [r3, #16]
 80020c8:	4b16      	ldr	r3, [pc, #88]	; (8002124 <MX_TIM13_Init+0x94>)
 80020ca:	2200      	movs	r2, #0
 80020cc:	619a      	str	r2, [r3, #24]
 80020ce:	4815      	ldr	r0, [pc, #84]	; (8002124 <MX_TIM13_Init+0x94>)
 80020d0:	f002 fe8c 	bl	8004dec <HAL_TIM_Base_Init>
 80020d4:	4603      	mov	r3, r0
 80020d6:	2b00      	cmp	r3, #0
 80020d8:	d001      	beq.n	80020de <MX_TIM13_Init+0x4e>
 80020da:	f7ff fd9f 	bl	8001c1c <Error_Handler>
 80020de:	4811      	ldr	r0, [pc, #68]	; (8002124 <MX_TIM13_Init+0x94>)
 80020e0:	f002 ffac 	bl	800503c <HAL_TIM_PWM_Init>
 80020e4:	4603      	mov	r3, r0
 80020e6:	2b00      	cmp	r3, #0
 80020e8:	d001      	beq.n	80020ee <MX_TIM13_Init+0x5e>
 80020ea:	f7ff fd97 	bl	8001c1c <Error_Handler>
 80020ee:	2360      	movs	r3, #96	; 0x60
 80020f0:	607b      	str	r3, [r7, #4]
 80020f2:	2300      	movs	r3, #0
 80020f4:	60bb      	str	r3, [r7, #8]
 80020f6:	2300      	movs	r3, #0
 80020f8:	60fb      	str	r3, [r7, #12]
 80020fa:	2300      	movs	r3, #0
 80020fc:	617b      	str	r3, [r7, #20]
 80020fe:	1d3b      	adds	r3, r7, #4
 8002100:	2200      	movs	r2, #0
 8002102:	4619      	mov	r1, r3
 8002104:	4807      	ldr	r0, [pc, #28]	; (8002124 <MX_TIM13_Init+0x94>)
 8002106:	f003 f8fb 	bl	8005300 <HAL_TIM_PWM_ConfigChannel>
 800210a:	4603      	mov	r3, r0
 800210c:	2b00      	cmp	r3, #0
 800210e:	d001      	beq.n	8002114 <MX_TIM13_Init+0x84>
 8002110:	f7ff fd84 	bl	8001c1c <Error_Handler>
 8002114:	4803      	ldr	r0, [pc, #12]	; (8002124 <MX_TIM13_Init+0x94>)
 8002116:	f000 f85b 	bl	80021d0 <HAL_TIM_MspPostInit>
 800211a:	bf00      	nop
 800211c:	3720      	adds	r7, #32
 800211e:	46bd      	mov	sp, r7
 8002120:	bd80      	pop	{r7, pc}
 8002122:	bf00      	nop
 8002124:	20000290 	.word	0x20000290
 8002128:	40001c00 	.word	0x40001c00

0800212c <HAL_TIM_Base_MspInit>:
 800212c:	b580      	push	{r7, lr}
 800212e:	b086      	sub	sp, #24
 8002130:	af00      	add	r7, sp, #0
 8002132:	6078      	str	r0, [r7, #4]
 8002134:	687b      	ldr	r3, [r7, #4]
 8002136:	681b      	ldr	r3, [r3, #0]
 8002138:	4a22      	ldr	r2, [pc, #136]	; (80021c4 <HAL_TIM_Base_MspInit+0x98>)
 800213a:	4293      	cmp	r3, r2
 800213c:	d10e      	bne.n	800215c <HAL_TIM_Base_MspInit+0x30>
 800213e:	2300      	movs	r3, #0
 8002140:	617b      	str	r3, [r7, #20]
 8002142:	4b21      	ldr	r3, [pc, #132]	; (80021c8 <HAL_TIM_Base_MspInit+0x9c>)
 8002144:	6c5b      	ldr	r3, [r3, #68]	; 0x44
 8002146:	4a20      	ldr	r2, [pc, #128]	; (80021c8 <HAL_TIM_Base_MspInit+0x9c>)
 8002148:	f043 0301 	orr.w	r3, r3, #1
 800214c:	6453      	str	r3, [r2, #68]	; 0x44
 800214e:	4b1e      	ldr	r3, [pc, #120]	; (80021c8 <HAL_TIM_Base_MspInit+0x9c>)
 8002150:	6c5b      	ldr	r3, [r3, #68]	; 0x44
 8002152:	f003 0301 	and.w	r3, r3, #1
 8002156:	617b      	str	r3, [r7, #20]
 8002158:	697b      	ldr	r3, [r7, #20]
 800215a:	e02e      	b.n	80021ba <HAL_TIM_Base_MspInit+0x8e>
 800215c:	687b      	ldr	r3, [r7, #4]
 800215e:	681b      	ldr	r3, [r3, #0]
 8002160:	f1b3 4f80 	cmp.w	r3, #1073741824	; 0x40000000
 8002164:	d116      	bne.n	8002194 <HAL_TIM_Base_MspInit+0x68>
 8002166:	2300      	movs	r3, #0
 8002168:	613b      	str	r3, [r7, #16]
 800216a:	4b17      	ldr	r3, [pc, #92]	; (80021c8 <HAL_TIM_Base_MspInit+0x9c>)
 800216c:	6c1b      	ldr	r3, [r3, #64]	; 0x40
 800216e:	4a16      	ldr	r2, [pc, #88]	; (80021c8 <HAL_TIM_Base_MspInit+0x9c>)
 8002170:	f043 0301 	orr.w	r3, r3, #1
 8002174:	6413      	str	r3, [r2, #64]	; 0x40
 8002176:	4b14      	ldr	r3, [pc, #80]	; (80021c8 <HAL_TIM_Base_MspInit+0x9c>)
 8002178:	6c1b      	ldr	r3, [r3, #64]	; 0x40
 800217a:	f003 0301 	and.w	r3, r3, #1
 800217e:	613b      	str	r3, [r7, #16]
 8002180:	693b      	ldr	r3, [r7, #16]
 8002182:	2200      	movs	r2, #0
 8002184:	2100      	movs	r1, #0
 8002186:	201c      	movs	r0, #28
 8002188:	f000 ff5b 	bl	8003042 <HAL_NVIC_SetPriority>
 800218c:	201c      	movs	r0, #28
 800218e:	f000 ff74 	bl	800307a <HAL_NVIC_EnableIRQ>
 8002192:	e012      	b.n	80021ba <HAL_TIM_Base_MspInit+0x8e>
 8002194:	687b      	ldr	r3, [r7, #4]
 8002196:	681b      	ldr	r3, [r3, #0]
 8002198:	4a0c      	ldr	r2, [pc, #48]	; (80021cc <HAL_TIM_Base_MspInit+0xa0>)
 800219a:	4293      	cmp	r3, r2
 800219c:	d10d      	bne.n	80021ba <HAL_TIM_Base_MspInit+0x8e>
 800219e:	2300      	movs	r3, #0
 80021a0:	60fb      	str	r3, [r7, #12]
 80021a2:	4b09      	ldr	r3, [pc, #36]	; (80021c8 <HAL_TIM_Base_MspInit+0x9c>)
 80021a4:	6c1b      	ldr	r3, [r3, #64]	; 0x40
 80021a6:	4a08      	ldr	r2, [pc, #32]	; (80021c8 <HAL_TIM_Base_MspInit+0x9c>)
 80021a8:	f043 0380 	orr.w	r3, r3, #128	; 0x80
 80021ac:	6413      	str	r3, [r2, #64]	; 0x40
 80021ae:	4b06      	ldr	r3, [pc, #24]	; (80021c8 <HAL_TIM_Base_MspInit+0x9c>)
 80021b0:	6c1b      	ldr	r3, [r3, #64]	; 0x40
 80021b2:	f003 0380 	and.w	r3, r3, #128	; 0x80
 80021b6:	60fb      	str	r3, [r7, #12]
 80021b8:	68fb      	ldr	r3, [r7, #12]
 80021ba:	bf00      	nop
 80021bc:	3718      	adds	r7, #24
 80021be:	46bd      	mov	sp, r7
 80021c0:	bd80      	pop	{r7, pc}
 80021c2:	bf00      	nop
 80021c4:	40010000 	.word	0x40010000
 80021c8:	40023800 	.word	0x40023800
 80021cc:	40001c00 	.word	0x40001c00

080021d0 <HAL_TIM_MspPostInit>:
 80021d0:	b580      	push	{r7, lr}
 80021d2:	b088      	sub	sp, #32
 80021d4:	af00      	add	r7, sp, #0
 80021d6:	6078      	str	r0, [r7, #4]
 80021d8:	f107 030c 	add.w	r3, r7, #12
 80021dc:	2200      	movs	r2, #0
 80021de:	601a      	str	r2, [r3, #0]
 80021e0:	605a      	str	r2, [r3, #4]
 80021e2:	609a      	str	r2, [r3, #8]
 80021e4:	60da      	str	r2, [r3, #12]
 80021e6:	611a      	str	r2, [r3, #16]
 80021e8:	687b      	ldr	r3, [r7, #4]
 80021ea:	681b      	ldr	r3, [r3, #0]
 80021ec:	4a12      	ldr	r2, [pc, #72]	; (8002238 <HAL_TIM_MspPostInit+0x68>)
 80021ee:	4293      	cmp	r3, r2
 80021f0:	d11e      	bne.n	8002230 <HAL_TIM_MspPostInit+0x60>
 80021f2:	2300      	movs	r3, #0
 80021f4:	60bb      	str	r3, [r7, #8]
 80021f6:	4b11      	ldr	r3, [pc, #68]	; (800223c <HAL_TIM_MspPostInit+0x6c>)
 80021f8:	6b1b      	ldr	r3, [r3, #48]	; 0x30
 80021fa:	4a10      	ldr	r2, [pc, #64]	; (800223c <HAL_TIM_MspPostInit+0x6c>)
 80021fc:	f043 0320 	orr.w	r3, r3, #32
 8002200:	6313      	str	r3, [r2, #48]	; 0x30
 8002202:	4b0e      	ldr	r3, [pc, #56]	; (800223c <HAL_TIM_MspPostInit+0x6c>)
 8002204:	6b1b      	ldr	r3, [r3, #48]	; 0x30
 8002206:	f003 0320 	and.w	r3, r3, #32
 800220a:	60bb      	str	r3, [r7, #8]
 800220c:	68bb      	ldr	r3, [r7, #8]
 800220e:	f44f 7380 	mov.w	r3, #256	; 0x100
 8002212:	60fb      	str	r3, [r7, #12]
 8002214:	2302      	movs	r3, #2
 8002216:	613b      	str	r3, [r7, #16]
 8002218:	2300      	movs	r3, #0
 800221a:	617b      	str	r3, [r7, #20]
 800221c:	2300      	movs	r3, #0
 800221e:	61bb      	str	r3, [r7, #24]
 8002220:	2309      	movs	r3, #9
 8002222:	61fb      	str	r3, [r7, #28]
 8002224:	f107 030c 	add.w	r3, r7, #12
 8002228:	4619      	mov	r1, r3
 800222a:	4805      	ldr	r0, [pc, #20]	; (8002240 <HAL_TIM_MspPostInit+0x70>)
 800222c:	f001 fb42 	bl	80038b4 <HAL_GPIO_Init>
 8002230:	bf00      	nop
 8002232:	3720      	adds	r7, #32
 8002234:	46bd      	mov	sp, r7
 8002236:	bd80      	pop	{r7, pc}
 8002238:	40001c00 	.word	0x40001c00
 800223c:	40023800 	.word	0x40023800
 8002240:	40021400 	.word	0x40021400

08002244 <uart_init_esp>:
 8002244:	b580      	push	{r7, lr}
 8002246:	af00      	add	r7, sp, #0
 8002248:	2201      	movs	r2, #1
 800224a:	4906      	ldr	r1, [pc, #24]	; (8002264 <uart_init_esp+0x20>)
 800224c:	4806      	ldr	r0, [pc, #24]	; (8002268 <uart_init_esp+0x24>)
 800224e:	f003 fe62 	bl	8005f16 <HAL_UART_Receive_IT>
 8002252:	2201      	movs	r2, #1
 8002254:	f44f 6180 	mov.w	r1, #1024	; 0x400
 8002258:	4804      	ldr	r0, [pc, #16]	; (800226c <uart_init_esp+0x28>)
 800225a:	f001 fcdf 	bl	8003c1c <HAL_GPIO_WritePin>
 800225e:	bf00      	nop
 8002260:	bd80      	pop	{r7, pc}
 8002262:	bf00      	nop
 8002264:	200002d9 	.word	0x200002d9
 8002268:	20000320 	.word	0x20000320
 800226c:	40021400 	.word	0x40021400

08002270 <uart_EspSendBytes>:
 8002270:	b580      	push	{r7, lr}
 8002272:	b082      	sub	sp, #8
 8002274:	af00      	add	r7, sp, #0
 8002276:	6078      	str	r0, [r7, #4]
 8002278:	460b      	mov	r3, r1
 800227a:	807b      	strh	r3, [r7, #2]
 800227c:	887a      	ldrh	r2, [r7, #2]
 800227e:	230a      	movs	r3, #10
 8002280:	6879      	ldr	r1, [r7, #4]
 8002282:	4803      	ldr	r0, [pc, #12]	; (8002290 <uart_EspSendBytes+0x20>)
 8002284:	f003 fdb5 	bl	8005df2 <HAL_UART_Transmit>
 8002288:	bf00      	nop
 800228a:	3708      	adds	r7, #8
 800228c:	46bd      	mov	sp, r7
 800228e:	bd80      	pop	{r7, pc}
 8002290:	20000320 	.word	0x20000320

08002294 <HAL_UART_RxCpltCallback>:
 8002294:	b580      	push	{r7, lr}
 8002296:	b082      	sub	sp, #8
 8002298:	af00      	add	r7, sp, #0
 800229a:	6078      	str	r0, [r7, #4]
 800229c:	687b      	ldr	r3, [r7, #4]
 800229e:	681b      	ldr	r3, [r3, #0]
 80022a0:	4a19      	ldr	r2, [pc, #100]	; (8002308 <HAL_UART_RxCpltCallback+0x74>)
 80022a2:	4293      	cmp	r3, r2
 80022a4:	d10a      	bne.n	80022bc <HAL_UART_RxCpltCallback+0x28>
 80022a6:	230a      	movs	r3, #10
 80022a8:	2201      	movs	r2, #1
 80022aa:	4918      	ldr	r1, [pc, #96]	; (800230c <HAL_UART_RxCpltCallback+0x78>)
 80022ac:	4818      	ldr	r0, [pc, #96]	; (8002310 <HAL_UART_RxCpltCallback+0x7c>)
 80022ae:	f003 fda0 	bl	8005df2 <HAL_UART_Transmit>
 80022b2:	2201      	movs	r2, #1
 80022b4:	4915      	ldr	r1, [pc, #84]	; (800230c <HAL_UART_RxCpltCallback+0x78>)
 80022b6:	4816      	ldr	r0, [pc, #88]	; (8002310 <HAL_UART_RxCpltCallback+0x7c>)
 80022b8:	f003 fe2d 	bl	8005f16 <HAL_UART_Receive_IT>
 80022bc:	687b      	ldr	r3, [r7, #4]
 80022be:	681b      	ldr	r3, [r3, #0]
 80022c0:	4a14      	ldr	r2, [pc, #80]	; (8002314 <HAL_UART_RxCpltCallback+0x80>)
 80022c2:	4293      	cmp	r3, r2
 80022c4:	d11b      	bne.n	80022fe <HAL_UART_RxCpltCallback+0x6a>
 80022c6:	4b14      	ldr	r3, [pc, #80]	; (8002318 <HAL_UART_RxCpltCallback+0x84>)
 80022c8:	781b      	ldrb	r3, [r3, #0]
 80022ca:	2b4f      	cmp	r3, #79	; 0x4f
 80022cc:	d103      	bne.n	80022d6 <HAL_UART_RxCpltCallback+0x42>
 80022ce:	4b13      	ldr	r3, [pc, #76]	; (800231c <HAL_UART_RxCpltCallback+0x88>)
 80022d0:	2201      	movs	r2, #1
 80022d2:	701a      	strb	r2, [r3, #0]
 80022d4:	e00e      	b.n	80022f4 <HAL_UART_RxCpltCallback+0x60>
 80022d6:	4b10      	ldr	r3, [pc, #64]	; (8002318 <HAL_UART_RxCpltCallback+0x84>)
 80022d8:	781b      	ldrb	r3, [r3, #0]
 80022da:	2b61      	cmp	r3, #97	; 0x61
 80022dc:	d103      	bne.n	80022e6 <HAL_UART_RxCpltCallback+0x52>
 80022de:	4b10      	ldr	r3, [pc, #64]	; (8002320 <HAL_UART_RxCpltCallback+0x8c>)
 80022e0:	2200      	movs	r2, #0
 80022e2:	701a      	strb	r2, [r3, #0]
 80022e4:	e006      	b.n	80022f4 <HAL_UART_RxCpltCallback+0x60>
 80022e6:	4b0c      	ldr	r3, [pc, #48]	; (8002318 <HAL_UART_RxCpltCallback+0x84>)
 80022e8:	781b      	ldrb	r3, [r3, #0]
 80022ea:	2b41      	cmp	r3, #65	; 0x41
 80022ec:	d102      	bne.n	80022f4 <HAL_UART_RxCpltCallback+0x60>
 80022ee:	4b0c      	ldr	r3, [pc, #48]	; (8002320 <HAL_UART_RxCpltCallback+0x8c>)
 80022f0:	2201      	movs	r2, #1
 80022f2:	701a      	strb	r2, [r3, #0]
 80022f4:	2201      	movs	r2, #1
 80022f6:	4908      	ldr	r1, [pc, #32]	; (8002318 <HAL_UART_RxCpltCallback+0x84>)
 80022f8:	480a      	ldr	r0, [pc, #40]	; (8002324 <HAL_UART_RxCpltCallback+0x90>)
 80022fa:	f003 fe0c 	bl	8005f16 <HAL_UART_Receive_IT>
 80022fe:	bf00      	nop
 8002300:	3708      	adds	r7, #8
 8002302:	46bd      	mov	sp, r7
 8002304:	bd80      	pop	{r7, pc}
 8002306:	bf00      	nop
 8002308:	40011000 	.word	0x40011000
 800230c:	200002d8 	.word	0x200002d8
 8002310:	200002dc 	.word	0x200002dc
 8002314:	40004400 	.word	0x40004400
 8002318:	200002d9 	.word	0x200002d9
 800231c:	200002da 	.word	0x200002da
 8002320:	2000018c 	.word	0x2000018c
 8002324:	20000320 	.word	0x20000320

08002328 <MX_USART1_UART_Init>:
 8002328:	b580      	push	{r7, lr}
 800232a:	af00      	add	r7, sp, #0
 800232c:	4b11      	ldr	r3, [pc, #68]	; (8002374 <MX_USART1_UART_Init+0x4c>)
 800232e:	4a12      	ldr	r2, [pc, #72]	; (8002378 <MX_USART1_UART_Init+0x50>)
 8002330:	601a      	str	r2, [r3, #0]
 8002332:	4b10      	ldr	r3, [pc, #64]	; (8002374 <MX_USART1_UART_Init+0x4c>)
 8002334:	f44f 32e1 	mov.w	r2, #115200	; 0x1c200
 8002338:	605a      	str	r2, [r3, #4]
 800233a:	4b0e      	ldr	r3, [pc, #56]	; (8002374 <MX_USART1_UART_Init+0x4c>)
 800233c:	2200      	movs	r2, #0
 800233e:	609a      	str	r2, [r3, #8]
 8002340:	4b0c      	ldr	r3, [pc, #48]	; (8002374 <MX_USART1_UART_Init+0x4c>)
 8002342:	2200      	movs	r2, #0
 8002344:	60da      	str	r2, [r3, #12]
 8002346:	4b0b      	ldr	r3, [pc, #44]	; (8002374 <MX_USART1_UART_Init+0x4c>)
 8002348:	2200      	movs	r2, #0
 800234a:	611a      	str	r2, [r3, #16]
 800234c:	4b09      	ldr	r3, [pc, #36]	; (8002374 <MX_USART1_UART_Init+0x4c>)
 800234e:	220c      	movs	r2, #12
 8002350:	615a      	str	r2, [r3, #20]
 8002352:	4b08      	ldr	r3, [pc, #32]	; (8002374 <MX_USART1_UART_Init+0x4c>)
 8002354:	2200      	movs	r2, #0
 8002356:	619a      	str	r2, [r3, #24]
 8002358:	4b06      	ldr	r3, [pc, #24]	; (8002374 <MX_USART1_UART_Init+0x4c>)
 800235a:	2200      	movs	r2, #0
 800235c:	61da      	str	r2, [r3, #28]
 800235e:	4805      	ldr	r0, [pc, #20]	; (8002374 <MX_USART1_UART_Init+0x4c>)
 8002360:	f003 fcfa 	bl	8005d58 <HAL_UART_Init>
 8002364:	4603      	mov	r3, r0
 8002366:	2b00      	cmp	r3, #0
 8002368:	d001      	beq.n	800236e <MX_USART1_UART_Init+0x46>
 800236a:	f7ff fc57 	bl	8001c1c <Error_Handler>
 800236e:	bf00      	nop
 8002370:	bd80      	pop	{r7, pc}
 8002372:	bf00      	nop
 8002374:	200002dc 	.word	0x200002dc
 8002378:	40011000 	.word	0x40011000

0800237c <MX_USART2_UART_Init>:
 800237c:	b580      	push	{r7, lr}
 800237e:	af00      	add	r7, sp, #0
 8002380:	4b11      	ldr	r3, [pc, #68]	; (80023c8 <MX_USART2_UART_Init+0x4c>)
 8002382:	4a12      	ldr	r2, [pc, #72]	; (80023cc <MX_USART2_UART_Init+0x50>)
 8002384:	601a      	str	r2, [r3, #0]
 8002386:	4b10      	ldr	r3, [pc, #64]	; (80023c8 <MX_USART2_UART_Init+0x4c>)
 8002388:	f44f 32e1 	mov.w	r2, #115200	; 0x1c200
 800238c:	605a      	str	r2, [r3, #4]
 800238e:	4b0e      	ldr	r3, [pc, #56]	; (80023c8 <MX_USART2_UART_Init+0x4c>)
 8002390:	2200      	movs	r2, #0
 8002392:	609a      	str	r2, [r3, #8]
 8002394:	4b0c      	ldr	r3, [pc, #48]	; (80023c8 <MX_USART2_UART_Init+0x4c>)
 8002396:	2200      	movs	r2, #0
 8002398:	60da      	str	r2, [r3, #12]
 800239a:	4b0b      	ldr	r3, [pc, #44]	; (80023c8 <MX_USART2_UART_Init+0x4c>)
 800239c:	2200      	movs	r2, #0
 800239e:	611a      	str	r2, [r3, #16]
 80023a0:	4b09      	ldr	r3, [pc, #36]	; (80023c8 <MX_USART2_UART_Init+0x4c>)
 80023a2:	220c      	movs	r2, #12
 80023a4:	615a      	str	r2, [r3, #20]
 80023a6:	4b08      	ldr	r3, [pc, #32]	; (80023c8 <MX_USART2_UART_Init+0x4c>)
 80023a8:	2200      	movs	r2, #0
 80023aa:	619a      	str	r2, [r3, #24]
 80023ac:	4b06      	ldr	r3, [pc, #24]	; (80023c8 <MX_USART2_UART_Init+0x4c>)
 80023ae:	2200      	movs	r2, #0
 80023b0:	61da      	str	r2, [r3, #28]
 80023b2:	4805      	ldr	r0, [pc, #20]	; (80023c8 <MX_USART2_UART_Init+0x4c>)
 80023b4:	f003 fcd0 	bl	8005d58 <HAL_UART_Init>
 80023b8:	4603      	mov	r3, r0
 80023ba:	2b00      	cmp	r3, #0
 80023bc:	d001      	beq.n	80023c2 <MX_USART2_UART_Init+0x46>
 80023be:	f7ff fc2d 	bl	8001c1c <Error_Handler>
 80023c2:	bf00      	nop
 80023c4:	bd80      	pop	{r7, pc}
 80023c6:	bf00      	nop
 80023c8:	20000320 	.word	0x20000320
 80023cc:	40004400 	.word	0x40004400

080023d0 <HAL_UART_MspInit>:
 80023d0:	b580      	push	{r7, lr}
 80023d2:	b08c      	sub	sp, #48	; 0x30
 80023d4:	af00      	add	r7, sp, #0
 80023d6:	6078      	str	r0, [r7, #4]
 80023d8:	f107 031c 	add.w	r3, r7, #28
 80023dc:	2200      	movs	r2, #0
 80023de:	601a      	str	r2, [r3, #0]
 80023e0:	605a      	str	r2, [r3, #4]
 80023e2:	609a      	str	r2, [r3, #8]
 80023e4:	60da      	str	r2, [r3, #12]
 80023e6:	611a      	str	r2, [r3, #16]
 80023e8:	687b      	ldr	r3, [r7, #4]
 80023ea:	681b      	ldr	r3, [r3, #0]
 80023ec:	4a3a      	ldr	r2, [pc, #232]	; (80024d8 <HAL_UART_MspInit+0x108>)
 80023ee:	4293      	cmp	r3, r2
 80023f0:	d135      	bne.n	800245e <HAL_UART_MspInit+0x8e>
 80023f2:	2300      	movs	r3, #0
 80023f4:	61bb      	str	r3, [r7, #24]
 80023f6:	4b39      	ldr	r3, [pc, #228]	; (80024dc <HAL_UART_MspInit+0x10c>)
 80023f8:	6c5b      	ldr	r3, [r3, #68]	; 0x44
 80023fa:	4a38      	ldr	r2, [pc, #224]	; (80024dc <HAL_UART_MspInit+0x10c>)
 80023fc:	f043 0310 	orr.w	r3, r3, #16
 8002400:	6453      	str	r3, [r2, #68]	; 0x44
 8002402:	4b36      	ldr	r3, [pc, #216]	; (80024dc <HAL_UART_MspInit+0x10c>)
 8002404:	6c5b      	ldr	r3, [r3, #68]	; 0x44
 8002406:	f003 0310 	and.w	r3, r3, #16
 800240a:	61bb      	str	r3, [r7, #24]
 800240c:	69bb      	ldr	r3, [r7, #24]
 800240e:	2300      	movs	r3, #0
 8002410:	617b      	str	r3, [r7, #20]
 8002412:	4b32      	ldr	r3, [pc, #200]	; (80024dc <HAL_UART_MspInit+0x10c>)
 8002414:	6b1b      	ldr	r3, [r3, #48]	; 0x30
 8002416:	4a31      	ldr	r2, [pc, #196]	; (80024dc <HAL_UART_MspInit+0x10c>)
 8002418:	f043 0301 	orr.w	r3, r3, #1
 800241c:	6313      	str	r3, [r2, #48]	; 0x30
 800241e:	4b2f      	ldr	r3, [pc, #188]	; (80024dc <HAL_UART_MspInit+0x10c>)
 8002420:	6b1b      	ldr	r3, [r3, #48]	; 0x30
 8002422:	f003 0301 	and.w	r3, r3, #1
 8002426:	617b      	str	r3, [r7, #20]
 8002428:	697b      	ldr	r3, [r7, #20]
 800242a:	f44f 63c0 	mov.w	r3, #1536	; 0x600
 800242e:	61fb      	str	r3, [r7, #28]
 8002430:	2302      	movs	r3, #2
 8002432:	623b      	str	r3, [r7, #32]
 8002434:	2300      	movs	r3, #0
 8002436:	627b      	str	r3, [r7, #36]	; 0x24
 8002438:	2303      	movs	r3, #3
 800243a:	62bb      	str	r3, [r7, #40]	; 0x28
 800243c:	2307      	movs	r3, #7
 800243e:	62fb      	str	r3, [r7, #44]	; 0x2c
 8002440:	f107 031c 	add.w	r3, r7, #28
 8002444:	4619      	mov	r1, r3
 8002446:	4826      	ldr	r0, [pc, #152]	; (80024e0 <HAL_UART_MspInit+0x110>)
 8002448:	f001 fa34 	bl	80038b4 <HAL_GPIO_Init>
 800244c:	2200      	movs	r2, #0
 800244e:	2100      	movs	r1, #0
 8002450:	2025      	movs	r0, #37	; 0x25
 8002452:	f000 fdf6 	bl	8003042 <HAL_NVIC_SetPriority>
 8002456:	2025      	movs	r0, #37	; 0x25
 8002458:	f000 fe0f 	bl	800307a <HAL_NVIC_EnableIRQ>
 800245c:	e038      	b.n	80024d0 <HAL_UART_MspInit+0x100>
 800245e:	687b      	ldr	r3, [r7, #4]
 8002460:	681b      	ldr	r3, [r3, #0]
 8002462:	4a20      	ldr	r2, [pc, #128]	; (80024e4 <HAL_UART_MspInit+0x114>)
 8002464:	4293      	cmp	r3, r2
 8002466:	d133      	bne.n	80024d0 <HAL_UART_MspInit+0x100>
 8002468:	2300      	movs	r3, #0
 800246a:	613b      	str	r3, [r7, #16]
 800246c:	4b1b      	ldr	r3, [pc, #108]	; (80024dc <HAL_UART_MspInit+0x10c>)
 800246e:	6c1b      	ldr	r3, [r3, #64]	; 0x40
 8002470:	4a1a      	ldr	r2, [pc, #104]	; (80024dc <HAL_UART_MspInit+0x10c>)
 8002472:	f443 3300 	orr.w	r3, r3, #131072	; 0x20000
 8002476:	6413      	str	r3, [r2, #64]	; 0x40
 8002478:	4b18      	ldr	r3, [pc, #96]	; (80024dc <HAL_UART_MspInit+0x10c>)
 800247a:	6c1b      	ldr	r3, [r3, #64]	; 0x40
 800247c:	f403 3300 	and.w	r3, r3, #131072	; 0x20000
 8002480:	613b      	str	r3, [r7, #16]
 8002482:	693b      	ldr	r3, [r7, #16]
 8002484:	2300      	movs	r3, #0
 8002486:	60fb      	str	r3, [r7, #12]
 8002488:	4b14      	ldr	r3, [pc, #80]	; (80024dc <HAL_UART_MspInit+0x10c>)
 800248a:	6b1b      	ldr	r3, [r3, #48]	; 0x30
 800248c:	4a13      	ldr	r2, [pc, #76]	; (80024dc <HAL_UART_MspInit+0x10c>)
 800248e:	f043 0301 	orr.w	r3, r3, #1
 8002492:	6313      	str	r3, [r2, #48]	; 0x30
 8002494:	4b11      	ldr	r3, [pc, #68]	; (80024dc <HAL_UART_MspInit+0x10c>)
 8002496:	6b1b      	ldr	r3, [r3, #48]	; 0x30
 8002498:	f003 0301 	and.w	r3, r3, #1
 800249c:	60fb      	str	r3, [r7, #12]
 800249e:	68fb      	ldr	r3, [r7, #12]
 80024a0:	230c      	movs	r3, #12
 80024a2:	61fb      	str	r3, [r7, #28]
 80024a4:	2302      	movs	r3, #2
 80024a6:	623b      	str	r3, [r7, #32]
 80024a8:	2300      	movs	r3, #0
 80024aa:	627b      	str	r3, [r7, #36]	; 0x24
 80024ac:	2303      	movs	r3, #3
 80024ae:	62bb      	str	r3, [r7, #40]	; 0x28
 80024b0:	2307      	movs	r3, #7
 80024b2:	62fb      	str	r3, [r7, #44]	; 0x2c
 80024b4:	f107 031c 	add.w	r3, r7, #28
 80024b8:	4619      	mov	r1, r3
 80024ba:	4809      	ldr	r0, [pc, #36]	; (80024e0 <HAL_UART_MspInit+0x110>)
 80024bc:	f001 f9fa 	bl	80038b4 <HAL_GPIO_Init>
 80024c0:	2200      	movs	r2, #0
 80024c2:	2100      	movs	r1, #0
 80024c4:	2026      	movs	r0, #38	; 0x26
 80024c6:	f000 fdbc 	bl	8003042 <HAL_NVIC_SetPriority>
 80024ca:	2026      	movs	r0, #38	; 0x26
 80024cc:	f000 fdd5 	bl	800307a <HAL_NVIC_EnableIRQ>
 80024d0:	bf00      	nop
 80024d2:	3730      	adds	r7, #48	; 0x30
 80024d4:	46bd      	mov	sp, r7
 80024d6:	bd80      	pop	{r7, pc}
 80024d8:	40011000 	.word	0x40011000
 80024dc:	40023800 	.word	0x40023800
 80024e0:	40020000 	.word	0x40020000
 80024e4:	40004400 	.word	0x40004400

080024e8 <Reset_Handler>:
 80024e8:	f8df d034 	ldr.w	sp, [pc, #52]	; 8002520 <LoopFillZerobss+0x12>
 80024ec:	480d      	ldr	r0, [pc, #52]	; (8002524 <LoopFillZerobss+0x16>)
 80024ee:	490e      	ldr	r1, [pc, #56]	; (8002528 <LoopFillZerobss+0x1a>)
 80024f0:	4a0e      	ldr	r2, [pc, #56]	; (800252c <LoopFillZerobss+0x1e>)
 80024f2:	2300      	movs	r3, #0
 80024f4:	e002      	b.n	80024fc <LoopCopyDataInit>

080024f6 <CopyDataInit>:
 80024f6:	58d4      	ldr	r4, [r2, r3]
 80024f8:	50c4      	str	r4, [r0, r3]
 80024fa:	3304      	adds	r3, #4

080024fc <LoopCopyDataInit>:
 80024fc:	18c4      	adds	r4, r0, r3
 80024fe:	428c      	cmp	r4, r1
 8002500:	d3f9      	bcc.n	80024f6 <CopyDataInit>
 8002502:	4a0b      	ldr	r2, [pc, #44]	; (8002530 <LoopFillZerobss+0x22>)
 8002504:	4c0b      	ldr	r4, [pc, #44]	; (8002534 <LoopFillZerobss+0x26>)
 8002506:	2300      	movs	r3, #0
 8002508:	e001      	b.n	800250e <LoopFillZerobss>

0800250a <FillZerobss>:
 800250a:	6013      	str	r3, [r2, #0]
 800250c:	3204      	adds	r2, #4

0800250e <LoopFillZerobss>:
 800250e:	42a2      	cmp	r2, r4
 8002510:	d3fb      	bcc.n	800250a <FillZerobss>
 8002512:	f7ff fd0f 	bl	8001f34 <SystemInit>
 8002516:	f004 fd6f 	bl	8006ff8 <__libc_init_array>
 800251a:	f7ff fa2d 	bl	8001978 <main>
 800251e:	4770      	bx	lr
 8002520:	20020000 	.word	0x20020000
 8002524:	20000000 	.word	0x20000000
 8002528:	20000014 	.word	0x20000014
 800252c:	0800a0b4 	.word	0x0800a0b4
 8002530:	20000014 	.word	0x20000014
 8002534:	20000368 	.word	0x20000368

08002538 <ADC_IRQHandler>:
 8002538:	e7fe      	b.n	8002538 <ADC_IRQHandler>
	...

0800253c <HAL_Init>:
 800253c:	b580      	push	{r7, lr}
 800253e:	af00      	add	r7, sp, #0
 8002540:	4b0e      	ldr	r3, [pc, #56]	; (800257c <HAL_Init+0x40>)
 8002542:	681b      	ldr	r3, [r3, #0]
 8002544:	4a0d      	ldr	r2, [pc, #52]	; (800257c <HAL_Init+0x40>)
 8002546:	f443 7300 	orr.w	r3, r3, #512	; 0x200
 800254a:	6013      	str	r3, [r2, #0]
 800254c:	4b0b      	ldr	r3, [pc, #44]	; (800257c <HAL_Init+0x40>)
 800254e:	681b      	ldr	r3, [r3, #0]
 8002550:	4a0a      	ldr	r2, [pc, #40]	; (800257c <HAL_Init+0x40>)
 8002552:	f443 6380 	orr.w	r3, r3, #1024	; 0x400
 8002556:	6013      	str	r3, [r2, #0]
 8002558:	4b08      	ldr	r3, [pc, #32]	; (800257c <HAL_Init+0x40>)
 800255a:	681b      	ldr	r3, [r3, #0]
 800255c:	4a07      	ldr	r2, [pc, #28]	; (800257c <HAL_Init+0x40>)
 800255e:	f443 7380 	orr.w	r3, r3, #256	; 0x100
 8002562:	6013      	str	r3, [r2, #0]
 8002564:	2003      	movs	r0, #3
 8002566:	f000 fd61 	bl	800302c <HAL_NVIC_SetPriorityGrouping>
 800256a:	200f      	movs	r0, #15
 800256c:	f000 f808 	bl	8002580 <HAL_InitTick>
 8002570:	f7ff fc66 	bl	8001e40 <HAL_MspInit>
 8002574:	2300      	movs	r3, #0
 8002576:	4618      	mov	r0, r3
 8002578:	bd80      	pop	{r7, pc}
 800257a:	bf00      	nop
 800257c:	40023c00 	.word	0x40023c00

08002580 <HAL_InitTick>:
 8002580:	b580      	push	{r7, lr}
 8002582:	b082      	sub	sp, #8
 8002584:	af00      	add	r7, sp, #0
 8002586:	6078      	str	r0, [r7, #4]
 8002588:	4b12      	ldr	r3, [pc, #72]	; (80025d4 <HAL_InitTick+0x54>)
 800258a:	681a      	ldr	r2, [r3, #0]
 800258c:	4b12      	ldr	r3, [pc, #72]	; (80025d8 <HAL_InitTick+0x58>)
 800258e:	781b      	ldrb	r3, [r3, #0]
 8002590:	4619      	mov	r1, r3
 8002592:	f44f 737a 	mov.w	r3, #1000	; 0x3e8
 8002596:	fbb3 f3f1 	udiv	r3, r3, r1
 800259a:	fbb2 f3f3 	udiv	r3, r2, r3
 800259e:	4618      	mov	r0, r3
 80025a0:	f000 fd79 	bl	8003096 <HAL_SYSTICK_Config>
 80025a4:	4603      	mov	r3, r0
 80025a6:	2b00      	cmp	r3, #0
 80025a8:	d001      	beq.n	80025ae <HAL_InitTick+0x2e>
 80025aa:	2301      	movs	r3, #1
 80025ac:	e00e      	b.n	80025cc <HAL_InitTick+0x4c>
 80025ae:	687b      	ldr	r3, [r7, #4]
 80025b0:	2b0f      	cmp	r3, #15
 80025b2:	d80a      	bhi.n	80025ca <HAL_InitTick+0x4a>
 80025b4:	2200      	movs	r2, #0
 80025b6:	6879      	ldr	r1, [r7, #4]
 80025b8:	f04f 30ff 	mov.w	r0, #4294967295
 80025bc:	f000 fd41 	bl	8003042 <HAL_NVIC_SetPriority>
 80025c0:	4a06      	ldr	r2, [pc, #24]	; (80025dc <HAL_InitTick+0x5c>)
 80025c2:	687b      	ldr	r3, [r7, #4]
 80025c4:	6013      	str	r3, [r2, #0]
 80025c6:	2300      	movs	r3, #0
 80025c8:	e000      	b.n	80025cc <HAL_InitTick+0x4c>
 80025ca:	2301      	movs	r3, #1
 80025cc:	4618      	mov	r0, r3
 80025ce:	3708      	adds	r7, #8
 80025d0:	46bd      	mov	sp, r7
 80025d2:	bd80      	pop	{r7, pc}
 80025d4:	20000008 	.word	0x20000008
 80025d8:	20000010 	.word	0x20000010
 80025dc:	2000000c 	.word	0x2000000c

080025e0 <HAL_IncTick>:
 80025e0:	b480      	push	{r7}
 80025e2:	af00      	add	r7, sp, #0
 80025e4:	4b06      	ldr	r3, [pc, #24]	; (8002600 <HAL_IncTick+0x20>)
 80025e6:	781b      	ldrb	r3, [r3, #0]
 80025e8:	461a      	mov	r2, r3
 80025ea:	4b06      	ldr	r3, [pc, #24]	; (8002604 <HAL_IncTick+0x24>)
 80025ec:	681b      	ldr	r3, [r3, #0]
 80025ee:	4413      	add	r3, r2
 80025f0:	4a04      	ldr	r2, [pc, #16]	; (8002604 <HAL_IncTick+0x24>)
 80025f2:	6013      	str	r3, [r2, #0]
 80025f4:	bf00      	nop
 80025f6:	46bd      	mov	sp, r7
 80025f8:	f85d 7b04 	ldr.w	r7, [sp], #4
 80025fc:	4770      	bx	lr
 80025fe:	bf00      	nop
 8002600:	20000010 	.word	0x20000010
 8002604:	20000364 	.word	0x20000364

08002608 <HAL_GetTick>:
 8002608:	b480      	push	{r7}
 800260a:	af00      	add	r7, sp, #0
 800260c:	4b03      	ldr	r3, [pc, #12]	; (800261c <HAL_GetTick+0x14>)
 800260e:	681b      	ldr	r3, [r3, #0]
 8002610:	4618      	mov	r0, r3
 8002612:	46bd      	mov	sp, r7
 8002614:	f85d 7b04 	ldr.w	r7, [sp], #4
 8002618:	4770      	bx	lr
 800261a:	bf00      	nop
 800261c:	20000364 	.word	0x20000364

08002620 <HAL_Delay>:
 8002620:	b580      	push	{r7, lr}
 8002622:	b084      	sub	sp, #16
 8002624:	af00      	add	r7, sp, #0
 8002626:	6078      	str	r0, [r7, #4]
 8002628:	f7ff ffee 	bl	8002608 <HAL_GetTick>
 800262c:	60b8      	str	r0, [r7, #8]
 800262e:	687b      	ldr	r3, [r7, #4]
 8002630:	60fb      	str	r3, [r7, #12]
 8002632:	68fb      	ldr	r3, [r7, #12]
 8002634:	f1b3 3fff 	cmp.w	r3, #4294967295
 8002638:	d005      	beq.n	8002646 <HAL_Delay+0x26>
 800263a:	4b0a      	ldr	r3, [pc, #40]	; (8002664 <HAL_Delay+0x44>)
 800263c:	781b      	ldrb	r3, [r3, #0]
 800263e:	461a      	mov	r2, r3
 8002640:	68fb      	ldr	r3, [r7, #12]
 8002642:	4413      	add	r3, r2
 8002644:	60fb      	str	r3, [r7, #12]
 8002646:	bf00      	nop
 8002648:	f7ff ffde 	bl	8002608 <HAL_GetTick>
 800264c:	4602      	mov	r2, r0
 800264e:	68bb      	ldr	r3, [r7, #8]
 8002650:	1ad3      	subs	r3, r2, r3
 8002652:	68fa      	ldr	r2, [r7, #12]
 8002654:	429a      	cmp	r2, r3
 8002656:	d8f7      	bhi.n	8002648 <HAL_Delay+0x28>
 8002658:	bf00      	nop
 800265a:	bf00      	nop
 800265c:	3710      	adds	r7, #16
 800265e:	46bd      	mov	sp, r7
 8002660:	bd80      	pop	{r7, pc}
 8002662:	bf00      	nop
 8002664:	20000010 	.word	0x20000010

08002668 <HAL_ADC_Init>:
 8002668:	b580      	push	{r7, lr}
 800266a:	b084      	sub	sp, #16
 800266c:	af00      	add	r7, sp, #0
 800266e:	6078      	str	r0, [r7, #4]
 8002670:	2300      	movs	r3, #0
 8002672:	73fb      	strb	r3, [r7, #15]
 8002674:	687b      	ldr	r3, [r7, #4]
 8002676:	2b00      	cmp	r3, #0
 8002678:	d101      	bne.n	800267e <HAL_ADC_Init+0x16>
 800267a:	2301      	movs	r3, #1
 800267c:	e033      	b.n	80026e6 <HAL_ADC_Init+0x7e>
 800267e:	687b      	ldr	r3, [r7, #4]
 8002680:	6c1b      	ldr	r3, [r3, #64]	; 0x40
 8002682:	2b00      	cmp	r3, #0
 8002684:	d109      	bne.n	800269a <HAL_ADC_Init+0x32>
 8002686:	6878      	ldr	r0, [r7, #4]
 8002688:	f7fe f986 	bl	8000998 <HAL_ADC_MspInit>
 800268c:	687b      	ldr	r3, [r7, #4]
 800268e:	2200      	movs	r2, #0
 8002690:	645a      	str	r2, [r3, #68]	; 0x44
 8002692:	687b      	ldr	r3, [r7, #4]
 8002694:	2200      	movs	r2, #0
 8002696:	f883 203c 	strb.w	r2, [r3, #60]	; 0x3c
 800269a:	687b      	ldr	r3, [r7, #4]
 800269c:	6c1b      	ldr	r3, [r3, #64]	; 0x40
 800269e:	f003 0310 	and.w	r3, r3, #16
 80026a2:	2b00      	cmp	r3, #0
 80026a4:	d118      	bne.n	80026d8 <HAL_ADC_Init+0x70>
 80026a6:	687b      	ldr	r3, [r7, #4]
 80026a8:	6c1b      	ldr	r3, [r3, #64]	; 0x40
 80026aa:	f423 5388 	bic.w	r3, r3, #4352	; 0x1100
 80026ae:	f023 0302 	bic.w	r3, r3, #2
 80026b2:	f043 0202 	orr.w	r2, r3, #2
 80026b6:	687b      	ldr	r3, [r7, #4]
 80026b8:	641a      	str	r2, [r3, #64]	; 0x40
 80026ba:	6878      	ldr	r0, [r7, #4]
 80026bc:	f000 fa68 	bl	8002b90 <ADC_Init>
 80026c0:	687b      	ldr	r3, [r7, #4]
 80026c2:	2200      	movs	r2, #0
 80026c4:	645a      	str	r2, [r3, #68]	; 0x44
 80026c6:	687b      	ldr	r3, [r7, #4]
 80026c8:	6c1b      	ldr	r3, [r3, #64]	; 0x40
 80026ca:	f023 0303 	bic.w	r3, r3, #3
 80026ce:	f043 0201 	orr.w	r2, r3, #1
 80026d2:	687b      	ldr	r3, [r7, #4]
 80026d4:	641a      	str	r2, [r3, #64]	; 0x40
 80026d6:	e001      	b.n	80026dc <HAL_ADC_Init+0x74>
 80026d8:	2301      	movs	r3, #1
 80026da:	73fb      	strb	r3, [r7, #15]
 80026dc:	687b      	ldr	r3, [r7, #4]
 80026de:	2200      	movs	r2, #0
 80026e0:	f883 203c 	strb.w	r2, [r3, #60]	; 0x3c
 80026e4:	7bfb      	ldrb	r3, [r7, #15]
 80026e6:	4618      	mov	r0, r3
 80026e8:	3710      	adds	r7, #16
 80026ea:	46bd      	mov	sp, r7
 80026ec:	bd80      	pop	{r7, pc}
	...

080026f0 <HAL_ADC_Start_DMA>:
 80026f0:	b580      	push	{r7, lr}
 80026f2:	b086      	sub	sp, #24
 80026f4:	af00      	add	r7, sp, #0
 80026f6:	60f8      	str	r0, [r7, #12]
 80026f8:	60b9      	str	r1, [r7, #8]
 80026fa:	607a      	str	r2, [r7, #4]
 80026fc:	2300      	movs	r3, #0
 80026fe:	613b      	str	r3, [r7, #16]
 8002700:	68fb      	ldr	r3, [r7, #12]
 8002702:	f893 303c 	ldrb.w	r3, [r3, #60]	; 0x3c
 8002706:	2b01      	cmp	r3, #1
 8002708:	d101      	bne.n	800270e <HAL_ADC_Start_DMA+0x1e>
 800270a:	2302      	movs	r3, #2
 800270c:	e0e9      	b.n	80028e2 <HAL_ADC_Start_DMA+0x1f2>
 800270e:	68fb      	ldr	r3, [r7, #12]
 8002710:	2201      	movs	r2, #1
 8002712:	f883 203c 	strb.w	r2, [r3, #60]	; 0x3c
 8002716:	68fb      	ldr	r3, [r7, #12]
 8002718:	681b      	ldr	r3, [r3, #0]
 800271a:	689b      	ldr	r3, [r3, #8]
 800271c:	f003 0301 	and.w	r3, r3, #1
 8002720:	2b01      	cmp	r3, #1
 8002722:	d018      	beq.n	8002756 <HAL_ADC_Start_DMA+0x66>
 8002724:	68fb      	ldr	r3, [r7, #12]
 8002726:	681b      	ldr	r3, [r3, #0]
 8002728:	689a      	ldr	r2, [r3, #8]
 800272a:	68fb      	ldr	r3, [r7, #12]
 800272c:	681b      	ldr	r3, [r3, #0]
 800272e:	f042 0201 	orr.w	r2, r2, #1
 8002732:	609a      	str	r2, [r3, #8]
 8002734:	4b6d      	ldr	r3, [pc, #436]	; (80028ec <HAL_ADC_Start_DMA+0x1fc>)
 8002736:	681b      	ldr	r3, [r3, #0]
 8002738:	4a6d      	ldr	r2, [pc, #436]	; (80028f0 <HAL_ADC_Start_DMA+0x200>)
 800273a:	fba2 2303 	umull	r2, r3, r2, r3
 800273e:	0c9a      	lsrs	r2, r3, #18
 8002740:	4613      	mov	r3, r2
 8002742:	005b      	lsls	r3, r3, #1
 8002744:	4413      	add	r3, r2
 8002746:	613b      	str	r3, [r7, #16]
 8002748:	e002      	b.n	8002750 <HAL_ADC_Start_DMA+0x60>
 800274a:	693b      	ldr	r3, [r7, #16]
 800274c:	3b01      	subs	r3, #1
 800274e:	613b      	str	r3, [r7, #16]
 8002750:	693b      	ldr	r3, [r7, #16]
 8002752:	2b00      	cmp	r3, #0
 8002754:	d1f9      	bne.n	800274a <HAL_ADC_Start_DMA+0x5a>
 8002756:	68fb      	ldr	r3, [r7, #12]
 8002758:	681b      	ldr	r3, [r3, #0]
 800275a:	689b      	ldr	r3, [r3, #8]
 800275c:	f403 7380 	and.w	r3, r3, #256	; 0x100
 8002760:	f5b3 7f80 	cmp.w	r3, #256	; 0x100
 8002764:	d107      	bne.n	8002776 <HAL_ADC_Start_DMA+0x86>
 8002766:	68fb      	ldr	r3, [r7, #12]
 8002768:	681b      	ldr	r3, [r3, #0]
 800276a:	689a      	ldr	r2, [r3, #8]
 800276c:	68fb      	ldr	r3, [r7, #12]
 800276e:	681b      	ldr	r3, [r3, #0]
 8002770:	f422 7280 	bic.w	r2, r2, #256	; 0x100
 8002774:	609a      	str	r2, [r3, #8]
 8002776:	68fb      	ldr	r3, [r7, #12]
 8002778:	681b      	ldr	r3, [r3, #0]
 800277a:	689b      	ldr	r3, [r3, #8]
 800277c:	f003 0301 	and.w	r3, r3, #1
 8002780:	2b01      	cmp	r3, #1
 8002782:	f040 80a1 	bne.w	80028c8 <HAL_ADC_Start_DMA+0x1d8>
 8002786:	68fb      	ldr	r3, [r7, #12]
 8002788:	6c1b      	ldr	r3, [r3, #64]	; 0x40
 800278a:	f423 63e0 	bic.w	r3, r3, #1792	; 0x700
 800278e:	f023 0301 	bic.w	r3, r3, #1
 8002792:	f443 7280 	orr.w	r2, r3, #256	; 0x100
 8002796:	68fb      	ldr	r3, [r7, #12]
 8002798:	641a      	str	r2, [r3, #64]	; 0x40
 800279a:	68fb      	ldr	r3, [r7, #12]
 800279c:	681b      	ldr	r3, [r3, #0]
 800279e:	685b      	ldr	r3, [r3, #4]
 80027a0:	f403 6380 	and.w	r3, r3, #1024	; 0x400
 80027a4:	2b00      	cmp	r3, #0
 80027a6:	d007      	beq.n	80027b8 <HAL_ADC_Start_DMA+0xc8>
 80027a8:	68fb      	ldr	r3, [r7, #12]
 80027aa:	6c1b      	ldr	r3, [r3, #64]	; 0x40
 80027ac:	f423 5340 	bic.w	r3, r3, #12288	; 0x3000
 80027b0:	f443 5280 	orr.w	r2, r3, #4096	; 0x1000
 80027b4:	68fb      	ldr	r3, [r7, #12]
 80027b6:	641a      	str	r2, [r3, #64]	; 0x40
 80027b8:	68fb      	ldr	r3, [r7, #12]
 80027ba:	6c1b      	ldr	r3, [r3, #64]	; 0x40
 80027bc:	f403 5380 	and.w	r3, r3, #4096	; 0x1000
 80027c0:	f5b3 5f80 	cmp.w	r3, #4096	; 0x1000
 80027c4:	d106      	bne.n	80027d4 <HAL_ADC_Start_DMA+0xe4>
 80027c6:	68fb      	ldr	r3, [r7, #12]
 80027c8:	6c5b      	ldr	r3, [r3, #68]	; 0x44
 80027ca:	f023 0206 	bic.w	r2, r3, #6
 80027ce:	68fb      	ldr	r3, [r7, #12]
 80027d0:	645a      	str	r2, [r3, #68]	; 0x44
 80027d2:	e002      	b.n	80027da <HAL_ADC_Start_DMA+0xea>
 80027d4:	68fb      	ldr	r3, [r7, #12]
 80027d6:	2200      	movs	r2, #0
 80027d8:	645a      	str	r2, [r3, #68]	; 0x44
 80027da:	68fb      	ldr	r3, [r7, #12]
 80027dc:	2200      	movs	r2, #0
 80027de:	f883 203c 	strb.w	r2, [r3, #60]	; 0x3c
 80027e2:	4b44      	ldr	r3, [pc, #272]	; (80028f4 <HAL_ADC_Start_DMA+0x204>)
 80027e4:	617b      	str	r3, [r7, #20]
 80027e6:	68fb      	ldr	r3, [r7, #12]
 80027e8:	6b9b      	ldr	r3, [r3, #56]	; 0x38
 80027ea:	4a43      	ldr	r2, [pc, #268]	; (80028f8 <HAL_ADC_Start_DMA+0x208>)
 80027ec:	63da      	str	r2, [r3, #60]	; 0x3c
 80027ee:	68fb      	ldr	r3, [r7, #12]
 80027f0:	6b9b      	ldr	r3, [r3, #56]	; 0x38
 80027f2:	4a42      	ldr	r2, [pc, #264]	; (80028fc <HAL_ADC_Start_DMA+0x20c>)
 80027f4:	641a      	str	r2, [r3, #64]	; 0x40
 80027f6:	68fb      	ldr	r3, [r7, #12]
 80027f8:	6b9b      	ldr	r3, [r3, #56]	; 0x38
 80027fa:	4a41      	ldr	r2, [pc, #260]	; (8002900 <HAL_ADC_Start_DMA+0x210>)
 80027fc:	64da      	str	r2, [r3, #76]	; 0x4c
 80027fe:	68fb      	ldr	r3, [r7, #12]
 8002800:	681b      	ldr	r3, [r3, #0]
 8002802:	f06f 0222 	mvn.w	r2, #34	; 0x22
 8002806:	601a      	str	r2, [r3, #0]
 8002808:	68fb      	ldr	r3, [r7, #12]
 800280a:	681b      	ldr	r3, [r3, #0]
 800280c:	685a      	ldr	r2, [r3, #4]
 800280e:	68fb      	ldr	r3, [r7, #12]
 8002810:	681b      	ldr	r3, [r3, #0]
 8002812:	f042 6280 	orr.w	r2, r2, #67108864	; 0x4000000
 8002816:	605a      	str	r2, [r3, #4]
 8002818:	68fb      	ldr	r3, [r7, #12]
 800281a:	681b      	ldr	r3, [r3, #0]
 800281c:	689a      	ldr	r2, [r3, #8]
 800281e:	68fb      	ldr	r3, [r7, #12]
 8002820:	681b      	ldr	r3, [r3, #0]
 8002822:	f442 7280 	orr.w	r2, r2, #256	; 0x100
 8002826:	609a      	str	r2, [r3, #8]
 8002828:	68fb      	ldr	r3, [r7, #12]
 800282a:	6b98      	ldr	r0, [r3, #56]	; 0x38
 800282c:	68fb      	ldr	r3, [r7, #12]
 800282e:	681b      	ldr	r3, [r3, #0]
 8002830:	334c      	adds	r3, #76	; 0x4c
 8002832:	4619      	mov	r1, r3
 8002834:	68ba      	ldr	r2, [r7, #8]
 8002836:	687b      	ldr	r3, [r7, #4]
 8002838:	f000 fce8 	bl	800320c <HAL_DMA_Start_IT>
 800283c:	697b      	ldr	r3, [r7, #20]
 800283e:	685b      	ldr	r3, [r3, #4]
 8002840:	f003 031f 	and.w	r3, r3, #31
 8002844:	2b00      	cmp	r3, #0
 8002846:	d12a      	bne.n	800289e <HAL_ADC_Start_DMA+0x1ae>
 8002848:	68fb      	ldr	r3, [r7, #12]
 800284a:	681b      	ldr	r3, [r3, #0]
 800284c:	4a2d      	ldr	r2, [pc, #180]	; (8002904 <HAL_ADC_Start_DMA+0x214>)
 800284e:	4293      	cmp	r3, r2
 8002850:	d015      	beq.n	800287e <HAL_ADC_Start_DMA+0x18e>
 8002852:	68fb      	ldr	r3, [r7, #12]
 8002854:	681b      	ldr	r3, [r3, #0]
 8002856:	4a2c      	ldr	r2, [pc, #176]	; (8002908 <HAL_ADC_Start_DMA+0x218>)
 8002858:	4293      	cmp	r3, r2
 800285a:	d105      	bne.n	8002868 <HAL_ADC_Start_DMA+0x178>
 800285c:	4b25      	ldr	r3, [pc, #148]	; (80028f4 <HAL_ADC_Start_DMA+0x204>)
 800285e:	685b      	ldr	r3, [r3, #4]
 8002860:	f003 031f 	and.w	r3, r3, #31
 8002864:	2b00      	cmp	r3, #0
 8002866:	d00a      	beq.n	800287e <HAL_ADC_Start_DMA+0x18e>
 8002868:	68fb      	ldr	r3, [r7, #12]
 800286a:	681b      	ldr	r3, [r3, #0]
 800286c:	4a27      	ldr	r2, [pc, #156]	; (800290c <HAL_ADC_Start_DMA+0x21c>)
 800286e:	4293      	cmp	r3, r2
 8002870:	d136      	bne.n	80028e0 <HAL_ADC_Start_DMA+0x1f0>
 8002872:	4b20      	ldr	r3, [pc, #128]	; (80028f4 <HAL_ADC_Start_DMA+0x204>)
 8002874:	685b      	ldr	r3, [r3, #4]
 8002876:	f003 0310 	and.w	r3, r3, #16
 800287a:	2b00      	cmp	r3, #0
 800287c:	d130      	bne.n	80028e0 <HAL_ADC_Start_DMA+0x1f0>
 800287e:	68fb      	ldr	r3, [r7, #12]
 8002880:	681b      	ldr	r3, [r3, #0]
 8002882:	689b      	ldr	r3, [r3, #8]
 8002884:	f003 5340 	and.w	r3, r3, #805306368	; 0x30000000
 8002888:	2b00      	cmp	r3, #0
 800288a:	d129      	bne.n	80028e0 <HAL_ADC_Start_DMA+0x1f0>
 800288c:	68fb      	ldr	r3, [r7, #12]
 800288e:	681b      	ldr	r3, [r3, #0]
 8002890:	689a      	ldr	r2, [r3, #8]
 8002892:	68fb      	ldr	r3, [r7, #12]
 8002894:	681b      	ldr	r3, [r3, #0]
 8002896:	f042 4280 	orr.w	r2, r2, #1073741824	; 0x40000000
 800289a:	609a      	str	r2, [r3, #8]
 800289c:	e020      	b.n	80028e0 <HAL_ADC_Start_DMA+0x1f0>
 800289e:	68fb      	ldr	r3, [r7, #12]
 80028a0:	681b      	ldr	r3, [r3, #0]
 80028a2:	4a18      	ldr	r2, [pc, #96]	; (8002904 <HAL_ADC_Start_DMA+0x214>)
 80028a4:	4293      	cmp	r3, r2
 80028a6:	d11b      	bne.n	80028e0 <HAL_ADC_Start_DMA+0x1f0>
 80028a8:	68fb      	ldr	r3, [r7, #12]
 80028aa:	681b      	ldr	r3, [r3, #0]
 80028ac:	689b      	ldr	r3, [r3, #8]
 80028ae:	f003 5340 	and.w	r3, r3, #805306368	; 0x30000000
 80028b2:	2b00      	cmp	r3, #0
 80028b4:	d114      	bne.n	80028e0 <HAL_ADC_Start_DMA+0x1f0>
 80028b6:	68fb      	ldr	r3, [r7, #12]
 80028b8:	681b      	ldr	r3, [r3, #0]
 80028ba:	689a      	ldr	r2, [r3, #8]
 80028bc:	68fb      	ldr	r3, [r7, #12]
 80028be:	681b      	ldr	r3, [r3, #0]
 80028c0:	f042 4280 	orr.w	r2, r2, #1073741824	; 0x40000000
 80028c4:	609a      	str	r2, [r3, #8]
 80028c6:	e00b      	b.n	80028e0 <HAL_ADC_Start_DMA+0x1f0>
 80028c8:	68fb      	ldr	r3, [r7, #12]
 80028ca:	6c1b      	ldr	r3, [r3, #64]	; 0x40
 80028cc:	f043 0210 	orr.w	r2, r3, #16
 80028d0:	68fb      	ldr	r3, [r7, #12]
 80028d2:	641a      	str	r2, [r3, #64]	; 0x40
 80028d4:	68fb      	ldr	r3, [r7, #12]
 80028d6:	6c5b      	ldr	r3, [r3, #68]	; 0x44
 80028d8:	f043 0201 	orr.w	r2, r3, #1
 80028dc:	68fb      	ldr	r3, [r7, #12]
 80028de:	645a      	str	r2, [r3, #68]	; 0x44
 80028e0:	2300      	movs	r3, #0
 80028e2:	4618      	mov	r0, r3
 80028e4:	3718      	adds	r7, #24
 80028e6:	46bd      	mov	sp, r7
 80028e8:	bd80      	pop	{r7, pc}
 80028ea:	bf00      	nop
 80028ec:	20000008 	.word	0x20000008
 80028f0:	431bde83 	.word	0x431bde83
 80028f4:	40012300 	.word	0x40012300
 80028f8:	08002d89 	.word	0x08002d89
 80028fc:	08002e43 	.word	0x08002e43
 8002900:	08002e5f 	.word	0x08002e5f
 8002904:	40012000 	.word	0x40012000
 8002908:	40012100 	.word	0x40012100
 800290c:	40012200 	.word	0x40012200

08002910 <HAL_ADC_ConvCpltCallback>:
 8002910:	b480      	push	{r7}
 8002912:	b083      	sub	sp, #12
 8002914:	af00      	add	r7, sp, #0
 8002916:	6078      	str	r0, [r7, #4]
 8002918:	bf00      	nop
 800291a:	370c      	adds	r7, #12
 800291c:	46bd      	mov	sp, r7
 800291e:	f85d 7b04 	ldr.w	r7, [sp], #4
 8002922:	4770      	bx	lr

08002924 <HAL_ADC_ConvHalfCpltCallback>:
 8002924:	b480      	push	{r7}
 8002926:	b083      	sub	sp, #12
 8002928:	af00      	add	r7, sp, #0
 800292a:	6078      	str	r0, [r7, #4]
 800292c:	bf00      	nop
 800292e:	370c      	adds	r7, #12
 8002930:	46bd      	mov	sp, r7
 8002932:	f85d 7b04 	ldr.w	r7, [sp], #4
 8002936:	4770      	bx	lr

08002938 <HAL_ADC_ErrorCallback>:
 8002938:	b480      	push	{r7}
 800293a:	b083      	sub	sp, #12
 800293c:	af00      	add	r7, sp, #0
 800293e:	6078      	str	r0, [r7, #4]
 8002940:	bf00      	nop
 8002942:	370c      	adds	r7, #12
 8002944:	46bd      	mov	sp, r7
 8002946:	f85d 7b04 	ldr.w	r7, [sp], #4
 800294a:	4770      	bx	lr

0800294c <HAL_ADC_ConfigChannel>:
 800294c:	b480      	push	{r7}
 800294e:	b085      	sub	sp, #20
 8002950:	af00      	add	r7, sp, #0
 8002952:	6078      	str	r0, [r7, #4]
 8002954:	6039      	str	r1, [r7, #0]
 8002956:	2300      	movs	r3, #0
 8002958:	60bb      	str	r3, [r7, #8]
 800295a:	687b      	ldr	r3, [r7, #4]
 800295c:	f893 303c 	ldrb.w	r3, [r3, #60]	; 0x3c
 8002960:	2b01      	cmp	r3, #1
 8002962:	d101      	bne.n	8002968 <HAL_ADC_ConfigChannel+0x1c>
 8002964:	2302      	movs	r3, #2
 8002966:	e105      	b.n	8002b74 <HAL_ADC_ConfigChannel+0x228>
 8002968:	687b      	ldr	r3, [r7, #4]
 800296a:	2201      	movs	r2, #1
 800296c:	f883 203c 	strb.w	r2, [r3, #60]	; 0x3c
 8002970:	683b      	ldr	r3, [r7, #0]
 8002972:	681b      	ldr	r3, [r3, #0]
 8002974:	2b09      	cmp	r3, #9
 8002976:	d925      	bls.n	80029c4 <HAL_ADC_ConfigChannel+0x78>
 8002978:	687b      	ldr	r3, [r7, #4]
 800297a:	681b      	ldr	r3, [r3, #0]
 800297c:	68d9      	ldr	r1, [r3, #12]
 800297e:	683b      	ldr	r3, [r7, #0]
 8002980:	681b      	ldr	r3, [r3, #0]
 8002982:	b29b      	uxth	r3, r3
 8002984:	461a      	mov	r2, r3
 8002986:	4613      	mov	r3, r2
 8002988:	005b      	lsls	r3, r3, #1
 800298a:	4413      	add	r3, r2
 800298c:	3b1e      	subs	r3, #30
 800298e:	2207      	movs	r2, #7
 8002990:	fa02 f303 	lsl.w	r3, r2, r3
 8002994:	43da      	mvns	r2, r3
 8002996:	687b      	ldr	r3, [r7, #4]
 8002998:	681b      	ldr	r3, [r3, #0]
 800299a:	400a      	ands	r2, r1
 800299c:	60da      	str	r2, [r3, #12]
 800299e:	687b      	ldr	r3, [r7, #4]
 80029a0:	681b      	ldr	r3, [r3, #0]
 80029a2:	68d9      	ldr	r1, [r3, #12]
 80029a4:	683b      	ldr	r3, [r7, #0]
 80029a6:	689a      	ldr	r2, [r3, #8]
 80029a8:	683b      	ldr	r3, [r7, #0]
 80029aa:	681b      	ldr	r3, [r3, #0]
 80029ac:	b29b      	uxth	r3, r3
 80029ae:	4618      	mov	r0, r3
 80029b0:	4603      	mov	r3, r0
 80029b2:	005b      	lsls	r3, r3, #1
 80029b4:	4403      	add	r3, r0
 80029b6:	3b1e      	subs	r3, #30
 80029b8:	409a      	lsls	r2, r3
 80029ba:	687b      	ldr	r3, [r7, #4]
 80029bc:	681b      	ldr	r3, [r3, #0]
 80029be:	430a      	orrs	r2, r1
 80029c0:	60da      	str	r2, [r3, #12]
 80029c2:	e022      	b.n	8002a0a <HAL_ADC_ConfigChannel+0xbe>
 80029c4:	687b      	ldr	r3, [r7, #4]
 80029c6:	681b      	ldr	r3, [r3, #0]
 80029c8:	6919      	ldr	r1, [r3, #16]
 80029ca:	683b      	ldr	r3, [r7, #0]
 80029cc:	681b      	ldr	r3, [r3, #0]
 80029ce:	b29b      	uxth	r3, r3
 80029d0:	461a      	mov	r2, r3
 80029d2:	4613      	mov	r3, r2
 80029d4:	005b      	lsls	r3, r3, #1
 80029d6:	4413      	add	r3, r2
 80029d8:	2207      	movs	r2, #7
 80029da:	fa02 f303 	lsl.w	r3, r2, r3
 80029de:	43da      	mvns	r2, r3
 80029e0:	687b      	ldr	r3, [r7, #4]
 80029e2:	681b      	ldr	r3, [r3, #0]
 80029e4:	400a      	ands	r2, r1
 80029e6:	611a      	str	r2, [r3, #16]
 80029e8:	687b      	ldr	r3, [r7, #4]
 80029ea:	681b      	ldr	r3, [r3, #0]
 80029ec:	6919      	ldr	r1, [r3, #16]
 80029ee:	683b      	ldr	r3, [r7, #0]
 80029f0:	689a      	ldr	r2, [r3, #8]
 80029f2:	683b      	ldr	r3, [r7, #0]
 80029f4:	681b      	ldr	r3, [r3, #0]
 80029f6:	b29b      	uxth	r3, r3
 80029f8:	4618      	mov	r0, r3
 80029fa:	4603      	mov	r3, r0
 80029fc:	005b      	lsls	r3, r3, #1
 80029fe:	4403      	add	r3, r0
 8002a00:	409a      	lsls	r2, r3
 8002a02:	687b      	ldr	r3, [r7, #4]
 8002a04:	681b      	ldr	r3, [r3, #0]
 8002a06:	430a      	orrs	r2, r1
 8002a08:	611a      	str	r2, [r3, #16]
 8002a0a:	683b      	ldr	r3, [r7, #0]
 8002a0c:	685b      	ldr	r3, [r3, #4]
 8002a0e:	2b06      	cmp	r3, #6
 8002a10:	d824      	bhi.n	8002a5c <HAL_ADC_ConfigChannel+0x110>
 8002a12:	687b      	ldr	r3, [r7, #4]
 8002a14:	681b      	ldr	r3, [r3, #0]
 8002a16:	6b59      	ldr	r1, [r3, #52]	; 0x34
 8002a18:	683b      	ldr	r3, [r7, #0]
 8002a1a:	685a      	ldr	r2, [r3, #4]
 8002a1c:	4613      	mov	r3, r2
 8002a1e:	009b      	lsls	r3, r3, #2
 8002a20:	4413      	add	r3, r2
 8002a22:	3b05      	subs	r3, #5
 8002a24:	221f      	movs	r2, #31
 8002a26:	fa02 f303 	lsl.w	r3, r2, r3
 8002a2a:	43da      	mvns	r2, r3
 8002a2c:	687b      	ldr	r3, [r7, #4]
 8002a2e:	681b      	ldr	r3, [r3, #0]
 8002a30:	400a      	ands	r2, r1
 8002a32:	635a      	str	r2, [r3, #52]	; 0x34
 8002a34:	687b      	ldr	r3, [r7, #4]
 8002a36:	681b      	ldr	r3, [r3, #0]
 8002a38:	6b59      	ldr	r1, [r3, #52]	; 0x34
 8002a3a:	683b      	ldr	r3, [r7, #0]
 8002a3c:	681b      	ldr	r3, [r3, #0]
 8002a3e:	b29b      	uxth	r3, r3
 8002a40:	4618      	mov	r0, r3
 8002a42:	683b      	ldr	r3, [r7, #0]
 8002a44:	685a      	ldr	r2, [r3, #4]
 8002a46:	4613      	mov	r3, r2
 8002a48:	009b      	lsls	r3, r3, #2
 8002a4a:	4413      	add	r3, r2
 8002a4c:	3b05      	subs	r3, #5
 8002a4e:	fa00 f203 	lsl.w	r2, r0, r3
 8002a52:	687b      	ldr	r3, [r7, #4]
 8002a54:	681b      	ldr	r3, [r3, #0]
 8002a56:	430a      	orrs	r2, r1
 8002a58:	635a      	str	r2, [r3, #52]	; 0x34
 8002a5a:	e04c      	b.n	8002af6 <HAL_ADC_ConfigChannel+0x1aa>
 8002a5c:	683b      	ldr	r3, [r7, #0]
 8002a5e:	685b      	ldr	r3, [r3, #4]
 8002a60:	2b0c      	cmp	r3, #12
 8002a62:	d824      	bhi.n	8002aae <HAL_ADC_ConfigChannel+0x162>
 8002a64:	687b      	ldr	r3, [r7, #4]
 8002a66:	681b      	ldr	r3, [r3, #0]
 8002a68:	6b19      	ldr	r1, [r3, #48]	; 0x30
 8002a6a:	683b      	ldr	r3, [r7, #0]
 8002a6c:	685a      	ldr	r2, [r3, #4]
 8002a6e:	4613      	mov	r3, r2
 8002a70:	009b      	lsls	r3, r3, #2
 8002a72:	4413      	add	r3, r2
 8002a74:	3b23      	subs	r3, #35	; 0x23
 8002a76:	221f      	movs	r2, #31
 8002a78:	fa02 f303 	lsl.w	r3, r2, r3
 8002a7c:	43da      	mvns	r2, r3
 8002a7e:	687b      	ldr	r3, [r7, #4]
 8002a80:	681b      	ldr	r3, [r3, #0]
 8002a82:	400a      	ands	r2, r1
 8002a84:	631a      	str	r2, [r3, #48]	; 0x30
 8002a86:	687b      	ldr	r3, [r7, #4]
 8002a88:	681b      	ldr	r3, [r3, #0]
 8002a8a:	6b19      	ldr	r1, [r3, #48]	; 0x30
 8002a8c:	683b      	ldr	r3, [r7, #0]
 8002a8e:	681b      	ldr	r3, [r3, #0]
 8002a90:	b29b      	uxth	r3, r3
 8002a92:	4618      	mov	r0, r3
 8002a94:	683b      	ldr	r3, [r7, #0]
 8002a96:	685a      	ldr	r2, [r3, #4]
 8002a98:	4613      	mov	r3, r2
 8002a9a:	009b      	lsls	r3, r3, #2
 8002a9c:	4413      	add	r3, r2
 8002a9e:	3b23      	subs	r3, #35	; 0x23
 8002aa0:	fa00 f203 	lsl.w	r2, r0, r3
 8002aa4:	687b      	ldr	r3, [r7, #4]
 8002aa6:	681b      	ldr	r3, [r3, #0]
 8002aa8:	430a      	orrs	r2, r1
 8002aaa:	631a      	str	r2, [r3, #48]	; 0x30
 8002aac:	e023      	b.n	8002af6 <HAL_ADC_ConfigChannel+0x1aa>
 8002aae:	687b      	ldr	r3, [r7, #4]
 8002ab0:	681b      	ldr	r3, [r3, #0]
 8002ab2:	6ad9      	ldr	r1, [r3, #44]	; 0x2c
 8002ab4:	683b      	ldr	r3, [r7, #0]
 8002ab6:	685a      	ldr	r2, [r3, #4]
 8002ab8:	4613      	mov	r3, r2
 8002aba:	009b      	lsls	r3, r3, #2
 8002abc:	4413      	add	r3, r2
 8002abe:	3b41      	subs	r3, #65	; 0x41
 8002ac0:	221f      	movs	r2, #31
 8002ac2:	fa02 f303 	lsl.w	r3, r2, r3
 8002ac6:	43da      	mvns	r2, r3
 8002ac8:	687b      	ldr	r3, [r7, #4]
 8002aca:	681b      	ldr	r3, [r3, #0]
 8002acc:	400a      	ands	r2, r1
 8002ace:	62da      	str	r2, [r3, #44]	; 0x2c
 8002ad0:	687b      	ldr	r3, [r7, #4]
 8002ad2:	681b      	ldr	r3, [r3, #0]
 8002ad4:	6ad9      	ldr	r1, [r3, #44]	; 0x2c
 8002ad6:	683b      	ldr	r3, [r7, #0]
 8002ad8:	681b      	ldr	r3, [r3, #0]
 8002ada:	b29b      	uxth	r3, r3
 8002adc:	4618      	mov	r0, r3
 8002ade:	683b      	ldr	r3, [r7, #0]
 8002ae0:	685a      	ldr	r2, [r3, #4]
 8002ae2:	4613      	mov	r3, r2
 8002ae4:	009b      	lsls	r3, r3, #2
 8002ae6:	4413      	add	r3, r2
 8002ae8:	3b41      	subs	r3, #65	; 0x41
 8002aea:	fa00 f203 	lsl.w	r2, r0, r3
 8002aee:	687b      	ldr	r3, [r7, #4]
 8002af0:	681b      	ldr	r3, [r3, #0]
 8002af2:	430a      	orrs	r2, r1
 8002af4:	62da      	str	r2, [r3, #44]	; 0x2c
 8002af6:	4b22      	ldr	r3, [pc, #136]	; (8002b80 <HAL_ADC_ConfigChannel+0x234>)
 8002af8:	60fb      	str	r3, [r7, #12]
 8002afa:	687b      	ldr	r3, [r7, #4]
 8002afc:	681b      	ldr	r3, [r3, #0]
 8002afe:	4a21      	ldr	r2, [pc, #132]	; (8002b84 <HAL_ADC_ConfigChannel+0x238>)
 8002b00:	4293      	cmp	r3, r2
 8002b02:	d109      	bne.n	8002b18 <HAL_ADC_ConfigChannel+0x1cc>
 8002b04:	683b      	ldr	r3, [r7, #0]
 8002b06:	681b      	ldr	r3, [r3, #0]
 8002b08:	2b12      	cmp	r3, #18
 8002b0a:	d105      	bne.n	8002b18 <HAL_ADC_ConfigChannel+0x1cc>
 8002b0c:	68fb      	ldr	r3, [r7, #12]
 8002b0e:	685b      	ldr	r3, [r3, #4]
 8002b10:	f443 0280 	orr.w	r2, r3, #4194304	; 0x400000
 8002b14:	68fb      	ldr	r3, [r7, #12]
 8002b16:	605a      	str	r2, [r3, #4]
 8002b18:	687b      	ldr	r3, [r7, #4]
 8002b1a:	681b      	ldr	r3, [r3, #0]
 8002b1c:	4a19      	ldr	r2, [pc, #100]	; (8002b84 <HAL_ADC_ConfigChannel+0x238>)
 8002b1e:	4293      	cmp	r3, r2
 8002b20:	d123      	bne.n	8002b6a <HAL_ADC_ConfigChannel+0x21e>
 8002b22:	683b      	ldr	r3, [r7, #0]
 8002b24:	681b      	ldr	r3, [r3, #0]
 8002b26:	2b10      	cmp	r3, #16
 8002b28:	d003      	beq.n	8002b32 <HAL_ADC_ConfigChannel+0x1e6>
 8002b2a:	683b      	ldr	r3, [r7, #0]
 8002b2c:	681b      	ldr	r3, [r3, #0]
 8002b2e:	2b11      	cmp	r3, #17
 8002b30:	d11b      	bne.n	8002b6a <HAL_ADC_ConfigChannel+0x21e>
 8002b32:	68fb      	ldr	r3, [r7, #12]
 8002b34:	685b      	ldr	r3, [r3, #4]
 8002b36:	f443 0200 	orr.w	r2, r3, #8388608	; 0x800000
 8002b3a:	68fb      	ldr	r3, [r7, #12]
 8002b3c:	605a      	str	r2, [r3, #4]
 8002b3e:	683b      	ldr	r3, [r7, #0]
 8002b40:	681b      	ldr	r3, [r3, #0]
 8002b42:	2b10      	cmp	r3, #16
 8002b44:	d111      	bne.n	8002b6a <HAL_ADC_ConfigChannel+0x21e>
 8002b46:	4b10      	ldr	r3, [pc, #64]	; (8002b88 <HAL_ADC_ConfigChannel+0x23c>)
 8002b48:	681b      	ldr	r3, [r3, #0]
 8002b4a:	4a10      	ldr	r2, [pc, #64]	; (8002b8c <HAL_ADC_ConfigChannel+0x240>)
 8002b4c:	fba2 2303 	umull	r2, r3, r2, r3
 8002b50:	0c9a      	lsrs	r2, r3, #18
 8002b52:	4613      	mov	r3, r2
 8002b54:	009b      	lsls	r3, r3, #2
 8002b56:	4413      	add	r3, r2
 8002b58:	005b      	lsls	r3, r3, #1
 8002b5a:	60bb      	str	r3, [r7, #8]
 8002b5c:	e002      	b.n	8002b64 <HAL_ADC_ConfigChannel+0x218>
 8002b5e:	68bb      	ldr	r3, [r7, #8]
 8002b60:	3b01      	subs	r3, #1
 8002b62:	60bb      	str	r3, [r7, #8]
 8002b64:	68bb      	ldr	r3, [r7, #8]
 8002b66:	2b00      	cmp	r3, #0
 8002b68:	d1f9      	bne.n	8002b5e <HAL_ADC_ConfigChannel+0x212>
 8002b6a:	687b      	ldr	r3, [r7, #4]
 8002b6c:	2200      	movs	r2, #0
 8002b6e:	f883 203c 	strb.w	r2, [r3, #60]	; 0x3c
 8002b72:	2300      	movs	r3, #0
 8002b74:	4618      	mov	r0, r3
 8002b76:	3714      	adds	r7, #20
 8002b78:	46bd      	mov	sp, r7
 8002b7a:	f85d 7b04 	ldr.w	r7, [sp], #4
 8002b7e:	4770      	bx	lr
 8002b80:	40012300 	.word	0x40012300
 8002b84:	40012000 	.word	0x40012000
 8002b88:	20000008 	.word	0x20000008
 8002b8c:	431bde83 	.word	0x431bde83

08002b90 <ADC_Init>:
 8002b90:	b480      	push	{r7}
 8002b92:	b085      	sub	sp, #20
 8002b94:	af00      	add	r7, sp, #0
 8002b96:	6078      	str	r0, [r7, #4]
 8002b98:	4b79      	ldr	r3, [pc, #484]	; (8002d80 <ADC_Init+0x1f0>)
 8002b9a:	60fb      	str	r3, [r7, #12]
 8002b9c:	68fb      	ldr	r3, [r7, #12]
 8002b9e:	685b      	ldr	r3, [r3, #4]
 8002ba0:	f423 3240 	bic.w	r2, r3, #196608	; 0x30000
 8002ba4:	68fb      	ldr	r3, [r7, #12]
 8002ba6:	605a      	str	r2, [r3, #4]
 8002ba8:	68fb      	ldr	r3, [r7, #12]
 8002baa:	685a      	ldr	r2, [r3, #4]
 8002bac:	687b      	ldr	r3, [r7, #4]
 8002bae:	685b      	ldr	r3, [r3, #4]
 8002bb0:	431a      	orrs	r2, r3
 8002bb2:	68fb      	ldr	r3, [r7, #12]
 8002bb4:	605a      	str	r2, [r3, #4]
 8002bb6:	687b      	ldr	r3, [r7, #4]
 8002bb8:	681b      	ldr	r3, [r3, #0]
 8002bba:	685a      	ldr	r2, [r3, #4]
 8002bbc:	687b      	ldr	r3, [r7, #4]
 8002bbe:	681b      	ldr	r3, [r3, #0]
 8002bc0:	f422 7280 	bic.w	r2, r2, #256	; 0x100
 8002bc4:	605a      	str	r2, [r3, #4]
 8002bc6:	687b      	ldr	r3, [r7, #4]
 8002bc8:	681b      	ldr	r3, [r3, #0]
 8002bca:	6859      	ldr	r1, [r3, #4]
 8002bcc:	687b      	ldr	r3, [r7, #4]
 8002bce:	691b      	ldr	r3, [r3, #16]
 8002bd0:	021a      	lsls	r2, r3, #8
 8002bd2:	687b      	ldr	r3, [r7, #4]
 8002bd4:	681b      	ldr	r3, [r3, #0]
 8002bd6:	430a      	orrs	r2, r1
 8002bd8:	605a      	str	r2, [r3, #4]
 8002bda:	687b      	ldr	r3, [r7, #4]
 8002bdc:	681b      	ldr	r3, [r3, #0]
 8002bde:	685a      	ldr	r2, [r3, #4]
 8002be0:	687b      	ldr	r3, [r7, #4]
 8002be2:	681b      	ldr	r3, [r3, #0]
 8002be4:	f022 7240 	bic.w	r2, r2, #50331648	; 0x3000000
 8002be8:	605a      	str	r2, [r3, #4]
 8002bea:	687b      	ldr	r3, [r7, #4]
 8002bec:	681b      	ldr	r3, [r3, #0]
 8002bee:	6859      	ldr	r1, [r3, #4]
 8002bf0:	687b      	ldr	r3, [r7, #4]
 8002bf2:	689a      	ldr	r2, [r3, #8]
 8002bf4:	687b      	ldr	r3, [r7, #4]
 8002bf6:	681b      	ldr	r3, [r3, #0]
 8002bf8:	430a      	orrs	r2, r1
 8002bfa:	605a      	str	r2, [r3, #4]
 8002bfc:	687b      	ldr	r3, [r7, #4]
 8002bfe:	681b      	ldr	r3, [r3, #0]
 8002c00:	689a      	ldr	r2, [r3, #8]
 8002c02:	687b      	ldr	r3, [r7, #4]
 8002c04:	681b      	ldr	r3, [r3, #0]
 8002c06:	f422 6200 	bic.w	r2, r2, #2048	; 0x800
 8002c0a:	609a      	str	r2, [r3, #8]
 8002c0c:	687b      	ldr	r3, [r7, #4]
 8002c0e:	681b      	ldr	r3, [r3, #0]
 8002c10:	6899      	ldr	r1, [r3, #8]
 8002c12:	687b      	ldr	r3, [r7, #4]
 8002c14:	68da      	ldr	r2, [r3, #12]
 8002c16:	687b      	ldr	r3, [r7, #4]
 8002c18:	681b      	ldr	r3, [r3, #0]
 8002c1a:	430a      	orrs	r2, r1
 8002c1c:	609a      	str	r2, [r3, #8]
 8002c1e:	687b      	ldr	r3, [r7, #4]
 8002c20:	6a9b      	ldr	r3, [r3, #40]	; 0x28
 8002c22:	4a58      	ldr	r2, [pc, #352]	; (8002d84 <ADC_Init+0x1f4>)
 8002c24:	4293      	cmp	r3, r2
 8002c26:	d022      	beq.n	8002c6e <ADC_Init+0xde>
 8002c28:	687b      	ldr	r3, [r7, #4]
 8002c2a:	681b      	ldr	r3, [r3, #0]
 8002c2c:	689a      	ldr	r2, [r3, #8]
 8002c2e:	687b      	ldr	r3, [r7, #4]
 8002c30:	681b      	ldr	r3, [r3, #0]
 8002c32:	f022 6270 	bic.w	r2, r2, #251658240	; 0xf000000
 8002c36:	609a      	str	r2, [r3, #8]
 8002c38:	687b      	ldr	r3, [r7, #4]
 8002c3a:	681b      	ldr	r3, [r3, #0]
 8002c3c:	6899      	ldr	r1, [r3, #8]
 8002c3e:	687b      	ldr	r3, [r7, #4]
 8002c40:	6a9a      	ldr	r2, [r3, #40]	; 0x28
 8002c42:	687b      	ldr	r3, [r7, #4]
 8002c44:	681b      	ldr	r3, [r3, #0]
 8002c46:	430a      	orrs	r2, r1
 8002c48:	609a      	str	r2, [r3, #8]
 8002c4a:	687b      	ldr	r3, [r7, #4]
 8002c4c:	681b      	ldr	r3, [r3, #0]
 8002c4e:	689a      	ldr	r2, [r3, #8]
 8002c50:	687b      	ldr	r3, [r7, #4]
 8002c52:	681b      	ldr	r3, [r3, #0]
 8002c54:	f022 5240 	bic.w	r2, r2, #805306368	; 0x30000000
 8002c58:	609a      	str	r2, [r3, #8]
 8002c5a:	687b      	ldr	r3, [r7, #4]
 8002c5c:	681b      	ldr	r3, [r3, #0]
 8002c5e:	6899      	ldr	r1, [r3, #8]
 8002c60:	687b      	ldr	r3, [r7, #4]
 8002c62:	6ada      	ldr	r2, [r3, #44]	; 0x2c
 8002c64:	687b      	ldr	r3, [r7, #4]
 8002c66:	681b      	ldr	r3, [r3, #0]
 8002c68:	430a      	orrs	r2, r1
 8002c6a:	609a      	str	r2, [r3, #8]
 8002c6c:	e00f      	b.n	8002c8e <ADC_Init+0xfe>
 8002c6e:	687b      	ldr	r3, [r7, #4]
 8002c70:	681b      	ldr	r3, [r3, #0]
 8002c72:	689a      	ldr	r2, [r3, #8]
 8002c74:	687b      	ldr	r3, [r7, #4]
 8002c76:	681b      	ldr	r3, [r3, #0]
 8002c78:	f022 6270 	bic.w	r2, r2, #251658240	; 0xf000000
 8002c7c:	609a      	str	r2, [r3, #8]
 8002c7e:	687b      	ldr	r3, [r7, #4]
 8002c80:	681b      	ldr	r3, [r3, #0]
 8002c82:	689a      	ldr	r2, [r3, #8]
 8002c84:	687b      	ldr	r3, [r7, #4]
 8002c86:	681b      	ldr	r3, [r3, #0]
 8002c88:	f022 5240 	bic.w	r2, r2, #805306368	; 0x30000000
 8002c8c:	609a      	str	r2, [r3, #8]
 8002c8e:	687b      	ldr	r3, [r7, #4]
 8002c90:	681b      	ldr	r3, [r3, #0]
 8002c92:	689a      	ldr	r2, [r3, #8]
 8002c94:	687b      	ldr	r3, [r7, #4]
 8002c96:	681b      	ldr	r3, [r3, #0]
 8002c98:	f022 0202 	bic.w	r2, r2, #2
 8002c9c:	609a      	str	r2, [r3, #8]
 8002c9e:	687b      	ldr	r3, [r7, #4]
 8002ca0:	681b      	ldr	r3, [r3, #0]
 8002ca2:	6899      	ldr	r1, [r3, #8]
 8002ca4:	687b      	ldr	r3, [r7, #4]
 8002ca6:	7e1b      	ldrb	r3, [r3, #24]
 8002ca8:	005a      	lsls	r2, r3, #1
 8002caa:	687b      	ldr	r3, [r7, #4]
 8002cac:	681b      	ldr	r3, [r3, #0]
 8002cae:	430a      	orrs	r2, r1
 8002cb0:	609a      	str	r2, [r3, #8]
 8002cb2:	687b      	ldr	r3, [r7, #4]
 8002cb4:	f893 3020 	ldrb.w	r3, [r3, #32]
 8002cb8:	2b00      	cmp	r3, #0
 8002cba:	d01b      	beq.n	8002cf4 <ADC_Init+0x164>
 8002cbc:	687b      	ldr	r3, [r7, #4]
 8002cbe:	681b      	ldr	r3, [r3, #0]
 8002cc0:	685a      	ldr	r2, [r3, #4]
 8002cc2:	687b      	ldr	r3, [r7, #4]
 8002cc4:	681b      	ldr	r3, [r3, #0]
 8002cc6:	f442 6200 	orr.w	r2, r2, #2048	; 0x800
 8002cca:	605a      	str	r2, [r3, #4]
 8002ccc:	687b      	ldr	r3, [r7, #4]
 8002cce:	681b      	ldr	r3, [r3, #0]
 8002cd0:	685a      	ldr	r2, [r3, #4]
 8002cd2:	687b      	ldr	r3, [r7, #4]
 8002cd4:	681b      	ldr	r3, [r3, #0]
 8002cd6:	f422 4260 	bic.w	r2, r2, #57344	; 0xe000
 8002cda:	605a      	str	r2, [r3, #4]
 8002cdc:	687b      	ldr	r3, [r7, #4]
 8002cde:	681b      	ldr	r3, [r3, #0]
 8002ce0:	6859      	ldr	r1, [r3, #4]
 8002ce2:	687b      	ldr	r3, [r7, #4]
 8002ce4:	6a5b      	ldr	r3, [r3, #36]	; 0x24
 8002ce6:	3b01      	subs	r3, #1
 8002ce8:	035a      	lsls	r2, r3, #13
 8002cea:	687b      	ldr	r3, [r7, #4]
 8002cec:	681b      	ldr	r3, [r3, #0]
 8002cee:	430a      	orrs	r2, r1
 8002cf0:	605a      	str	r2, [r3, #4]
 8002cf2:	e007      	b.n	8002d04 <ADC_Init+0x174>
 8002cf4:	687b      	ldr	r3, [r7, #4]
 8002cf6:	681b      	ldr	r3, [r3, #0]
 8002cf8:	685a      	ldr	r2, [r3, #4]
 8002cfa:	687b      	ldr	r3, [r7, #4]
 8002cfc:	681b      	ldr	r3, [r3, #0]
 8002cfe:	f422 6200 	bic.w	r2, r2, #2048	; 0x800
 8002d02:	605a      	str	r2, [r3, #4]
 8002d04:	687b      	ldr	r3, [r7, #4]
 8002d06:	681b      	ldr	r3, [r3, #0]
 8002d08:	6ada      	ldr	r2, [r3, #44]	; 0x2c
 8002d0a:	687b      	ldr	r3, [r7, #4]
 8002d0c:	681b      	ldr	r3, [r3, #0]
 8002d0e:	f422 0270 	bic.w	r2, r2, #15728640	; 0xf00000
 8002d12:	62da      	str	r2, [r3, #44]	; 0x2c
 8002d14:	687b      	ldr	r3, [r7, #4]
 8002d16:	681b      	ldr	r3, [r3, #0]
 8002d18:	6ad9      	ldr	r1, [r3, #44]	; 0x2c
 8002d1a:	687b      	ldr	r3, [r7, #4]
 8002d1c:	69db      	ldr	r3, [r3, #28]
 8002d1e:	3b01      	subs	r3, #1
 8002d20:	051a      	lsls	r2, r3, #20
 8002d22:	687b      	ldr	r3, [r7, #4]
 8002d24:	681b      	ldr	r3, [r3, #0]
 8002d26:	430a      	orrs	r2, r1
 8002d28:	62da      	str	r2, [r3, #44]	; 0x2c
 8002d2a:	687b      	ldr	r3, [r7, #4]
 8002d2c:	681b      	ldr	r3, [r3, #0]
 8002d2e:	689a      	ldr	r2, [r3, #8]
 8002d30:	687b      	ldr	r3, [r7, #4]
 8002d32:	681b      	ldr	r3, [r3, #0]
 8002d34:	f422 7200 	bic.w	r2, r2, #512	; 0x200
 8002d38:	609a      	str	r2, [r3, #8]
 8002d3a:	687b      	ldr	r3, [r7, #4]
 8002d3c:	681b      	ldr	r3, [r3, #0]
 8002d3e:	6899      	ldr	r1, [r3, #8]
 8002d40:	687b      	ldr	r3, [r7, #4]
 8002d42:	f893 3030 	ldrb.w	r3, [r3, #48]	; 0x30
 8002d46:	025a      	lsls	r2, r3, #9
 8002d48:	687b      	ldr	r3, [r7, #4]
 8002d4a:	681b      	ldr	r3, [r3, #0]
 8002d4c:	430a      	orrs	r2, r1
 8002d4e:	609a      	str	r2, [r3, #8]
 8002d50:	687b      	ldr	r3, [r7, #4]
 8002d52:	681b      	ldr	r3, [r3, #0]
 8002d54:	689a      	ldr	r2, [r3, #8]
 8002d56:	687b      	ldr	r3, [r7, #4]
 8002d58:	681b      	ldr	r3, [r3, #0]
 8002d5a:	f422 6280 	bic.w	r2, r2, #1024	; 0x400
 8002d5e:	609a      	str	r2, [r3, #8]
 8002d60:	687b      	ldr	r3, [r7, #4]
 8002d62:	681b      	ldr	r3, [r3, #0]
 8002d64:	6899      	ldr	r1, [r3, #8]
 8002d66:	687b      	ldr	r3, [r7, #4]
 8002d68:	695b      	ldr	r3, [r3, #20]
 8002d6a:	029a      	lsls	r2, r3, #10
 8002d6c:	687b      	ldr	r3, [r7, #4]
 8002d6e:	681b      	ldr	r3, [r3, #0]
 8002d70:	430a      	orrs	r2, r1
 8002d72:	609a      	str	r2, [r3, #8]
 8002d74:	bf00      	nop
 8002d76:	3714      	adds	r7, #20
 8002d78:	46bd      	mov	sp, r7
 8002d7a:	f85d 7b04 	ldr.w	r7, [sp], #4
 8002d7e:	4770      	bx	lr
 8002d80:	40012300 	.word	0x40012300
 8002d84:	0f000001 	.word	0x0f000001

08002d88 <ADC_DMAConvCplt>:
 8002d88:	b580      	push	{r7, lr}
 8002d8a:	b084      	sub	sp, #16
 8002d8c:	af00      	add	r7, sp, #0
 8002d8e:	6078      	str	r0, [r7, #4]
 8002d90:	687b      	ldr	r3, [r7, #4]
 8002d92:	6b9b      	ldr	r3, [r3, #56]	; 0x38
 8002d94:	60fb      	str	r3, [r7, #12]
 8002d96:	68fb      	ldr	r3, [r7, #12]
 8002d98:	6c1b      	ldr	r3, [r3, #64]	; 0x40
 8002d9a:	f003 0350 	and.w	r3, r3, #80	; 0x50
 8002d9e:	2b00      	cmp	r3, #0
 8002da0:	d13c      	bne.n	8002e1c <ADC_DMAConvCplt+0x94>
 8002da2:	68fb      	ldr	r3, [r7, #12]
 8002da4:	6c1b      	ldr	r3, [r3, #64]	; 0x40
 8002da6:	f443 7200 	orr.w	r2, r3, #512	; 0x200
 8002daa:	68fb      	ldr	r3, [r7, #12]
 8002dac:	641a      	str	r2, [r3, #64]	; 0x40
 8002dae:	68fb      	ldr	r3, [r7, #12]
 8002db0:	681b      	ldr	r3, [r3, #0]
 8002db2:	689b      	ldr	r3, [r3, #8]
 8002db4:	f003 5340 	and.w	r3, r3, #805306368	; 0x30000000
 8002db8:	2b00      	cmp	r3, #0
 8002dba:	d12b      	bne.n	8002e14 <ADC_DMAConvCplt+0x8c>
 8002dbc:	68fb      	ldr	r3, [r7, #12]
 8002dbe:	7e1b      	ldrb	r3, [r3, #24]
 8002dc0:	2b00      	cmp	r3, #0
 8002dc2:	d127      	bne.n	8002e14 <ADC_DMAConvCplt+0x8c>
 8002dc4:	68fb      	ldr	r3, [r7, #12]
 8002dc6:	681b      	ldr	r3, [r3, #0]
 8002dc8:	6adb      	ldr	r3, [r3, #44]	; 0x2c
 8002dca:	f403 0370 	and.w	r3, r3, #15728640	; 0xf00000
 8002dce:	2b00      	cmp	r3, #0
 8002dd0:	d006      	beq.n	8002de0 <ADC_DMAConvCplt+0x58>
 8002dd2:	68fb      	ldr	r3, [r7, #12]
 8002dd4:	681b      	ldr	r3, [r3, #0]
 8002dd6:	689b      	ldr	r3, [r3, #8]
 8002dd8:	f403 6380 	and.w	r3, r3, #1024	; 0x400
 8002ddc:	2b00      	cmp	r3, #0
 8002dde:	d119      	bne.n	8002e14 <ADC_DMAConvCplt+0x8c>
 8002de0:	68fb      	ldr	r3, [r7, #12]
 8002de2:	681b      	ldr	r3, [r3, #0]
 8002de4:	685a      	ldr	r2, [r3, #4]
 8002de6:	68fb      	ldr	r3, [r7, #12]
 8002de8:	681b      	ldr	r3, [r3, #0]
 8002dea:	f022 0220 	bic.w	r2, r2, #32
 8002dee:	605a      	str	r2, [r3, #4]
 8002df0:	68fb      	ldr	r3, [r7, #12]
 8002df2:	6c1b      	ldr	r3, [r3, #64]	; 0x40
 8002df4:	f423 7280 	bic.w	r2, r3, #256	; 0x100
 8002df8:	68fb      	ldr	r3, [r7, #12]
 8002dfa:	641a      	str	r2, [r3, #64]	; 0x40
 8002dfc:	68fb      	ldr	r3, [r7, #12]
 8002dfe:	6c1b      	ldr	r3, [r3, #64]	; 0x40
 8002e00:	f403 5380 	and.w	r3, r3, #4096	; 0x1000
 8002e04:	2b00      	cmp	r3, #0
 8002e06:	d105      	bne.n	8002e14 <ADC_DMAConvCplt+0x8c>
 8002e08:	68fb      	ldr	r3, [r7, #12]
 8002e0a:	6c1b      	ldr	r3, [r3, #64]	; 0x40
 8002e0c:	f043 0201 	orr.w	r2, r3, #1
 8002e10:	68fb      	ldr	r3, [r7, #12]
 8002e12:	641a      	str	r2, [r3, #64]	; 0x40
 8002e14:	68f8      	ldr	r0, [r7, #12]
 8002e16:	f7ff fd7b 	bl	8002910 <HAL_ADC_ConvCpltCallback>
 8002e1a:	e00e      	b.n	8002e3a <ADC_DMAConvCplt+0xb2>
 8002e1c:	68fb      	ldr	r3, [r7, #12]
 8002e1e:	6c1b      	ldr	r3, [r3, #64]	; 0x40
 8002e20:	f003 0310 	and.w	r3, r3, #16
 8002e24:	2b00      	cmp	r3, #0
 8002e26:	d003      	beq.n	8002e30 <ADC_DMAConvCplt+0xa8>
 8002e28:	68f8      	ldr	r0, [r7, #12]
 8002e2a:	f7ff fd85 	bl	8002938 <HAL_ADC_ErrorCallback>
 8002e2e:	e004      	b.n	8002e3a <ADC_DMAConvCplt+0xb2>
 8002e30:	68fb      	ldr	r3, [r7, #12]
 8002e32:	6b9b      	ldr	r3, [r3, #56]	; 0x38
 8002e34:	6cdb      	ldr	r3, [r3, #76]	; 0x4c
 8002e36:	6878      	ldr	r0, [r7, #4]
 8002e38:	4798      	blx	r3
 8002e3a:	bf00      	nop
 8002e3c:	3710      	adds	r7, #16
 8002e3e:	46bd      	mov	sp, r7
 8002e40:	bd80      	pop	{r7, pc}

08002e42 <ADC_DMAHalfConvCplt>:
 8002e42:	b580      	push	{r7, lr}
 8002e44:	b084      	sub	sp, #16
 8002e46:	af00      	add	r7, sp, #0
 8002e48:	6078      	str	r0, [r7, #4]
 8002e4a:	687b      	ldr	r3, [r7, #4]
 8002e4c:	6b9b      	ldr	r3, [r3, #56]	; 0x38
 8002e4e:	60fb      	str	r3, [r7, #12]
 8002e50:	68f8      	ldr	r0, [r7, #12]
 8002e52:	f7ff fd67 	bl	8002924 <HAL_ADC_ConvHalfCpltCallback>
 8002e56:	bf00      	nop
 8002e58:	3710      	adds	r7, #16
 8002e5a:	46bd      	mov	sp, r7
 8002e5c:	bd80      	pop	{r7, pc}

08002e5e <ADC_DMAError>:
 8002e5e:	b580      	push	{r7, lr}
 8002e60:	b084      	sub	sp, #16
 8002e62:	af00      	add	r7, sp, #0
 8002e64:	6078      	str	r0, [r7, #4]
 8002e66:	687b      	ldr	r3, [r7, #4]
 8002e68:	6b9b      	ldr	r3, [r3, #56]	; 0x38
 8002e6a:	60fb      	str	r3, [r7, #12]
 8002e6c:	68fb      	ldr	r3, [r7, #12]
 8002e6e:	2240      	movs	r2, #64	; 0x40
 8002e70:	641a      	str	r2, [r3, #64]	; 0x40
 8002e72:	68fb      	ldr	r3, [r7, #12]
 8002e74:	6c5b      	ldr	r3, [r3, #68]	; 0x44
 8002e76:	f043 0204 	orr.w	r2, r3, #4
 8002e7a:	68fb      	ldr	r3, [r7, #12]
 8002e7c:	645a      	str	r2, [r3, #68]	; 0x44
 8002e7e:	68f8      	ldr	r0, [r7, #12]
 8002e80:	f7ff fd5a 	bl	8002938 <HAL_ADC_ErrorCallback>
 8002e84:	bf00      	nop
 8002e86:	3710      	adds	r7, #16
 8002e88:	46bd      	mov	sp, r7
 8002e8a:	bd80      	pop	{r7, pc}

08002e8c <__NVIC_SetPriorityGrouping>:
 8002e8c:	b480      	push	{r7}
 8002e8e:	b085      	sub	sp, #20
 8002e90:	af00      	add	r7, sp, #0
 8002e92:	6078      	str	r0, [r7, #4]
 8002e94:	687b      	ldr	r3, [r7, #4]
 8002e96:	f003 0307 	and.w	r3, r3, #7
 8002e9a:	60fb      	str	r3, [r7, #12]
 8002e9c:	4b0c      	ldr	r3, [pc, #48]	; (8002ed0 <__NVIC_SetPriorityGrouping+0x44>)
 8002e9e:	68db      	ldr	r3, [r3, #12]
 8002ea0:	60bb      	str	r3, [r7, #8]
 8002ea2:	68ba      	ldr	r2, [r7, #8]
 8002ea4:	f64f 03ff 	movw	r3, #63743	; 0xf8ff
 8002ea8:	4013      	ands	r3, r2
 8002eaa:	60bb      	str	r3, [r7, #8]
 8002eac:	68fb      	ldr	r3, [r7, #12]
 8002eae:	021a      	lsls	r2, r3, #8
 8002eb0:	68bb      	ldr	r3, [r7, #8]
 8002eb2:	4313      	orrs	r3, r2
 8002eb4:	f043 63bf 	orr.w	r3, r3, #100139008	; 0x5f80000
 8002eb8:	f443 3300 	orr.w	r3, r3, #131072	; 0x20000
 8002ebc:	60bb      	str	r3, [r7, #8]
 8002ebe:	4a04      	ldr	r2, [pc, #16]	; (8002ed0 <__NVIC_SetPriorityGrouping+0x44>)
 8002ec0:	68bb      	ldr	r3, [r7, #8]
 8002ec2:	60d3      	str	r3, [r2, #12]
 8002ec4:	bf00      	nop
 8002ec6:	3714      	adds	r7, #20
 8002ec8:	46bd      	mov	sp, r7
 8002eca:	f85d 7b04 	ldr.w	r7, [sp], #4
 8002ece:	4770      	bx	lr
 8002ed0:	e000ed00 	.word	0xe000ed00

08002ed4 <__NVIC_GetPriorityGrouping>:
 8002ed4:	b480      	push	{r7}
 8002ed6:	af00      	add	r7, sp, #0
 8002ed8:	4b04      	ldr	r3, [pc, #16]	; (8002eec <__NVIC_GetPriorityGrouping+0x18>)
 8002eda:	68db      	ldr	r3, [r3, #12]
 8002edc:	0a1b      	lsrs	r3, r3, #8
 8002ede:	f003 0307 	and.w	r3, r3, #7
 8002ee2:	4618      	mov	r0, r3
 8002ee4:	46bd      	mov	sp, r7
 8002ee6:	f85d 7b04 	ldr.w	r7, [sp], #4
 8002eea:	4770      	bx	lr
 8002eec:	e000ed00 	.word	0xe000ed00

08002ef0 <__NVIC_EnableIRQ>:
 8002ef0:	b480      	push	{r7}
 8002ef2:	b083      	sub	sp, #12
 8002ef4:	af00      	add	r7, sp, #0
 8002ef6:	4603      	mov	r3, r0
 8002ef8:	71fb      	strb	r3, [r7, #7]
 8002efa:	f997 3007 	ldrsb.w	r3, [r7, #7]
 8002efe:	2b00      	cmp	r3, #0
 8002f00:	db0b      	blt.n	8002f1a <__NVIC_EnableIRQ+0x2a>
 8002f02:	79fb      	ldrb	r3, [r7, #7]
 8002f04:	f003 021f 	and.w	r2, r3, #31
 8002f08:	4907      	ldr	r1, [pc, #28]	; (8002f28 <__NVIC_EnableIRQ+0x38>)
 8002f0a:	f997 3007 	ldrsb.w	r3, [r7, #7]
 8002f0e:	095b      	lsrs	r3, r3, #5
 8002f10:	2001      	movs	r0, #1
 8002f12:	fa00 f202 	lsl.w	r2, r0, r2
 8002f16:	f841 2023 	str.w	r2, [r1, r3, lsl #2]
 8002f1a:	bf00      	nop
 8002f1c:	370c      	adds	r7, #12
 8002f1e:	46bd      	mov	sp, r7
 8002f20:	f85d 7b04 	ldr.w	r7, [sp], #4
 8002f24:	4770      	bx	lr
 8002f26:	bf00      	nop
 8002f28:	e000e100 	.word	0xe000e100

08002f2c <__NVIC_SetPriority>:
 8002f2c:	b480      	push	{r7}
 8002f2e:	b083      	sub	sp, #12
 8002f30:	af00      	add	r7, sp, #0
 8002f32:	4603      	mov	r3, r0
 8002f34:	6039      	str	r1, [r7, #0]
 8002f36:	71fb      	strb	r3, [r7, #7]
 8002f38:	f997 3007 	ldrsb.w	r3, [r7, #7]
 8002f3c:	2b00      	cmp	r3, #0
 8002f3e:	db0a      	blt.n	8002f56 <__NVIC_SetPriority+0x2a>
 8002f40:	683b      	ldr	r3, [r7, #0]
 8002f42:	b2da      	uxtb	r2, r3
 8002f44:	490c      	ldr	r1, [pc, #48]	; (8002f78 <__NVIC_SetPriority+0x4c>)
 8002f46:	f997 3007 	ldrsb.w	r3, [r7, #7]
 8002f4a:	0112      	lsls	r2, r2, #4
 8002f4c:	b2d2      	uxtb	r2, r2
 8002f4e:	440b      	add	r3, r1
 8002f50:	f883 2300 	strb.w	r2, [r3, #768]	; 0x300
 8002f54:	e00a      	b.n	8002f6c <__NVIC_SetPriority+0x40>
 8002f56:	683b      	ldr	r3, [r7, #0]
 8002f58:	b2da      	uxtb	r2, r3
 8002f5a:	4908      	ldr	r1, [pc, #32]	; (8002f7c <__NVIC_SetPriority+0x50>)
 8002f5c:	79fb      	ldrb	r3, [r7, #7]
 8002f5e:	f003 030f 	and.w	r3, r3, #15
 8002f62:	3b04      	subs	r3, #4
 8002f64:	0112      	lsls	r2, r2, #4
 8002f66:	b2d2      	uxtb	r2, r2
 8002f68:	440b      	add	r3, r1
 8002f6a:	761a      	strb	r2, [r3, #24]
 8002f6c:	bf00      	nop
 8002f6e:	370c      	adds	r7, #12
 8002f70:	46bd      	mov	sp, r7
 8002f72:	f85d 7b04 	ldr.w	r7, [sp], #4
 8002f76:	4770      	bx	lr
 8002f78:	e000e100 	.word	0xe000e100
 8002f7c:	e000ed00 	.word	0xe000ed00

08002f80 <NVIC_EncodePriority>:
 8002f80:	b480      	push	{r7}
 8002f82:	b089      	sub	sp, #36	; 0x24
 8002f84:	af00      	add	r7, sp, #0
 8002f86:	60f8      	str	r0, [r7, #12]
 8002f88:	60b9      	str	r1, [r7, #8]
 8002f8a:	607a      	str	r2, [r7, #4]
 8002f8c:	68fb      	ldr	r3, [r7, #12]
 8002f8e:	f003 0307 	and.w	r3, r3, #7
 8002f92:	61fb      	str	r3, [r7, #28]
 8002f94:	69fb      	ldr	r3, [r7, #28]
 8002f96:	f1c3 0307 	rsb	r3, r3, #7
 8002f9a:	2b04      	cmp	r3, #4
 8002f9c:	bf28      	it	cs
 8002f9e:	2304      	movcs	r3, #4
 8002fa0:	61bb      	str	r3, [r7, #24]
 8002fa2:	69fb      	ldr	r3, [r7, #28]
 8002fa4:	3304      	adds	r3, #4
 8002fa6:	2b06      	cmp	r3, #6
 8002fa8:	d902      	bls.n	8002fb0 <NVIC_EncodePriority+0x30>
 8002faa:	69fb      	ldr	r3, [r7, #28]
 8002fac:	3b03      	subs	r3, #3
 8002fae:	e000      	b.n	8002fb2 <NVIC_EncodePriority+0x32>
 8002fb0:	2300      	movs	r3, #0
 8002fb2:	617b      	str	r3, [r7, #20]
 8002fb4:	f04f 32ff 	mov.w	r2, #4294967295
 8002fb8:	69bb      	ldr	r3, [r7, #24]
 8002fba:	fa02 f303 	lsl.w	r3, r2, r3
 8002fbe:	43da      	mvns	r2, r3
 8002fc0:	68bb      	ldr	r3, [r7, #8]
 8002fc2:	401a      	ands	r2, r3
 8002fc4:	697b      	ldr	r3, [r7, #20]
 8002fc6:	409a      	lsls	r2, r3
 8002fc8:	f04f 31ff 	mov.w	r1, #4294967295
 8002fcc:	697b      	ldr	r3, [r7, #20]
 8002fce:	fa01 f303 	lsl.w	r3, r1, r3
 8002fd2:	43d9      	mvns	r1, r3
 8002fd4:	687b      	ldr	r3, [r7, #4]
 8002fd6:	400b      	ands	r3, r1
 8002fd8:	4313      	orrs	r3, r2
 8002fda:	4618      	mov	r0, r3
 8002fdc:	3724      	adds	r7, #36	; 0x24
 8002fde:	46bd      	mov	sp, r7
 8002fe0:	f85d 7b04 	ldr.w	r7, [sp], #4
 8002fe4:	4770      	bx	lr
	...

08002fe8 <SysTick_Config>:
 8002fe8:	b580      	push	{r7, lr}
 8002fea:	b082      	sub	sp, #8
 8002fec:	af00      	add	r7, sp, #0
 8002fee:	6078      	str	r0, [r7, #4]
 8002ff0:	687b      	ldr	r3, [r7, #4]
 8002ff2:	3b01      	subs	r3, #1
 8002ff4:	f1b3 7f80 	cmp.w	r3, #16777216	; 0x1000000
 8002ff8:	d301      	bcc.n	8002ffe <SysTick_Config+0x16>
 8002ffa:	2301      	movs	r3, #1
 8002ffc:	e00f      	b.n	800301e <SysTick_Config+0x36>
 8002ffe:	4a0a      	ldr	r2, [pc, #40]	; (8003028 <SysTick_Config+0x40>)
 8003000:	687b      	ldr	r3, [r7, #4]
 8003002:	3b01      	subs	r3, #1
 8003004:	6053      	str	r3, [r2, #4]
 8003006:	210f      	movs	r1, #15
 8003008:	f04f 30ff 	mov.w	r0, #4294967295
 800300c:	f7ff ff8e 	bl	8002f2c <__NVIC_SetPriority>
 8003010:	4b05      	ldr	r3, [pc, #20]	; (8003028 <SysTick_Config+0x40>)
 8003012:	2200      	movs	r2, #0
 8003014:	609a      	str	r2, [r3, #8]
 8003016:	4b04      	ldr	r3, [pc, #16]	; (8003028 <SysTick_Config+0x40>)
 8003018:	2207      	movs	r2, #7
 800301a:	601a      	str	r2, [r3, #0]
 800301c:	2300      	movs	r3, #0
 800301e:	4618      	mov	r0, r3
 8003020:	3708      	adds	r7, #8
 8003022:	46bd      	mov	sp, r7
 8003024:	bd80      	pop	{r7, pc}
 8003026:	bf00      	nop
 8003028:	e000e010 	.word	0xe000e010

0800302c <HAL_NVIC_SetPriorityGrouping>:
 800302c:	b580      	push	{r7, lr}
 800302e:	b082      	sub	sp, #8
 8003030:	af00      	add	r7, sp, #0
 8003032:	6078      	str	r0, [r7, #4]
 8003034:	6878      	ldr	r0, [r7, #4]
 8003036:	f7ff ff29 	bl	8002e8c <__NVIC_SetPriorityGrouping>
 800303a:	bf00      	nop
 800303c:	3708      	adds	r7, #8
 800303e:	46bd      	mov	sp, r7
 8003040:	bd80      	pop	{r7, pc}

08003042 <HAL_NVIC_SetPriority>:
 8003042:	b580      	push	{r7, lr}
 8003044:	b086      	sub	sp, #24
 8003046:	af00      	add	r7, sp, #0
 8003048:	4603      	mov	r3, r0
 800304a:	60b9      	str	r1, [r7, #8]
 800304c:	607a      	str	r2, [r7, #4]
 800304e:	73fb      	strb	r3, [r7, #15]
 8003050:	2300      	movs	r3, #0
 8003052:	617b      	str	r3, [r7, #20]
 8003054:	f7ff ff3e 	bl	8002ed4 <__NVIC_GetPriorityGrouping>
 8003058:	6178      	str	r0, [r7, #20]
 800305a:	687a      	ldr	r2, [r7, #4]
 800305c:	68b9      	ldr	r1, [r7, #8]
 800305e:	6978      	ldr	r0, [r7, #20]
 8003060:	f7ff ff8e 	bl	8002f80 <NVIC_EncodePriority>
 8003064:	4602      	mov	r2, r0
 8003066:	f997 300f 	ldrsb.w	r3, [r7, #15]
 800306a:	4611      	mov	r1, r2
 800306c:	4618      	mov	r0, r3
 800306e:	f7ff ff5d 	bl	8002f2c <__NVIC_SetPriority>
 8003072:	bf00      	nop
 8003074:	3718      	adds	r7, #24
 8003076:	46bd      	mov	sp, r7
 8003078:	bd80      	pop	{r7, pc}

0800307a <HAL_NVIC_EnableIRQ>:
 800307a:	b580      	push	{r7, lr}
 800307c:	b082      	sub	sp, #8
 800307e:	af00      	add	r7, sp, #0
 8003080:	4603      	mov	r3, r0
 8003082:	71fb      	strb	r3, [r7, #7]
 8003084:	f997 3007 	ldrsb.w	r3, [r7, #7]
 8003088:	4618      	mov	r0, r3
 800308a:	f7ff ff31 	bl	8002ef0 <__NVIC_EnableIRQ>
 800308e:	bf00      	nop
 8003090:	3708      	adds	r7, #8
 8003092:	46bd      	mov	sp, r7
 8003094:	bd80      	pop	{r7, pc}

08003096 <HAL_SYSTICK_Config>:
 8003096:	b580      	push	{r7, lr}
 8003098:	b082      	sub	sp, #8
 800309a:	af00      	add	r7, sp, #0
 800309c:	6078      	str	r0, [r7, #4]
 800309e:	6878      	ldr	r0, [r7, #4]
 80030a0:	f7ff ffa2 	bl	8002fe8 <SysTick_Config>
 80030a4:	4603      	mov	r3, r0
 80030a6:	4618      	mov	r0, r3
 80030a8:	3708      	adds	r7, #8
 80030aa:	46bd      	mov	sp, r7
 80030ac:	bd80      	pop	{r7, pc}
	...

080030b0 <HAL_DMA_Init>:
 80030b0:	b580      	push	{r7, lr}
 80030b2:	b086      	sub	sp, #24
 80030b4:	af00      	add	r7, sp, #0
 80030b6:	6078      	str	r0, [r7, #4]
 80030b8:	2300      	movs	r3, #0
 80030ba:	617b      	str	r3, [r7, #20]
 80030bc:	f7ff faa4 	bl	8002608 <HAL_GetTick>
 80030c0:	6138      	str	r0, [r7, #16]
 80030c2:	687b      	ldr	r3, [r7, #4]
 80030c4:	2b00      	cmp	r3, #0
 80030c6:	d101      	bne.n	80030cc <HAL_DMA_Init+0x1c>
 80030c8:	2301      	movs	r3, #1
 80030ca:	e099      	b.n	8003200 <HAL_DMA_Init+0x150>
 80030cc:	687b      	ldr	r3, [r7, #4]
 80030ce:	2202      	movs	r2, #2
 80030d0:	f883 2035 	strb.w	r2, [r3, #53]	; 0x35
 80030d4:	687b      	ldr	r3, [r7, #4]
 80030d6:	2200      	movs	r2, #0
 80030d8:	f883 2034 	strb.w	r2, [r3, #52]	; 0x34
 80030dc:	687b      	ldr	r3, [r7, #4]
 80030de:	681b      	ldr	r3, [r3, #0]
 80030e0:	681a      	ldr	r2, [r3, #0]
 80030e2:	687b      	ldr	r3, [r7, #4]
 80030e4:	681b      	ldr	r3, [r3, #0]
 80030e6:	f022 0201 	bic.w	r2, r2, #1
 80030ea:	601a      	str	r2, [r3, #0]
 80030ec:	e00f      	b.n	800310e <HAL_DMA_Init+0x5e>
 80030ee:	f7ff fa8b 	bl	8002608 <HAL_GetTick>
 80030f2:	4602      	mov	r2, r0
 80030f4:	693b      	ldr	r3, [r7, #16]
 80030f6:	1ad3      	subs	r3, r2, r3
 80030f8:	2b05      	cmp	r3, #5
 80030fa:	d908      	bls.n	800310e <HAL_DMA_Init+0x5e>
 80030fc:	687b      	ldr	r3, [r7, #4]
 80030fe:	2220      	movs	r2, #32
 8003100:	655a      	str	r2, [r3, #84]	; 0x54
 8003102:	687b      	ldr	r3, [r7, #4]
 8003104:	2203      	movs	r2, #3
 8003106:	f883 2035 	strb.w	r2, [r3, #53]	; 0x35
 800310a:	2303      	movs	r3, #3
 800310c:	e078      	b.n	8003200 <HAL_DMA_Init+0x150>
 800310e:	687b      	ldr	r3, [r7, #4]
 8003110:	681b      	ldr	r3, [r3, #0]
 8003112:	681b      	ldr	r3, [r3, #0]
 8003114:	f003 0301 	and.w	r3, r3, #1
 8003118:	2b00      	cmp	r3, #0
 800311a:	d1e8      	bne.n	80030ee <HAL_DMA_Init+0x3e>
 800311c:	687b      	ldr	r3, [r7, #4]
 800311e:	681b      	ldr	r3, [r3, #0]
 8003120:	681b      	ldr	r3, [r3, #0]
 8003122:	617b      	str	r3, [r7, #20]
 8003124:	697a      	ldr	r2, [r7, #20]
 8003126:	4b38      	ldr	r3, [pc, #224]	; (8003208 <HAL_DMA_Init+0x158>)
 8003128:	4013      	ands	r3, r2
 800312a:	617b      	str	r3, [r7, #20]
 800312c:	687b      	ldr	r3, [r7, #4]
 800312e:	685a      	ldr	r2, [r3, #4]
 8003130:	687b      	ldr	r3, [r7, #4]
 8003132:	689b      	ldr	r3, [r3, #8]
 8003134:	431a      	orrs	r2, r3
 8003136:	687b      	ldr	r3, [r7, #4]
 8003138:	68db      	ldr	r3, [r3, #12]
 800313a:	431a      	orrs	r2, r3
 800313c:	687b      	ldr	r3, [r7, #4]
 800313e:	691b      	ldr	r3, [r3, #16]
 8003140:	431a      	orrs	r2, r3
 8003142:	687b      	ldr	r3, [r7, #4]
 8003144:	695b      	ldr	r3, [r3, #20]
 8003146:	431a      	orrs	r2, r3
 8003148:	687b      	ldr	r3, [r7, #4]
 800314a:	699b      	ldr	r3, [r3, #24]
 800314c:	431a      	orrs	r2, r3
 800314e:	687b      	ldr	r3, [r7, #4]
 8003150:	69db      	ldr	r3, [r3, #28]
 8003152:	431a      	orrs	r2, r3
 8003154:	687b      	ldr	r3, [r7, #4]
 8003156:	6a1b      	ldr	r3, [r3, #32]
 8003158:	4313      	orrs	r3, r2
 800315a:	697a      	ldr	r2, [r7, #20]
 800315c:	4313      	orrs	r3, r2
 800315e:	617b      	str	r3, [r7, #20]
 8003160:	687b      	ldr	r3, [r7, #4]
 8003162:	6a5b      	ldr	r3, [r3, #36]	; 0x24
 8003164:	2b04      	cmp	r3, #4
 8003166:	d107      	bne.n	8003178 <HAL_DMA_Init+0xc8>
 8003168:	687b      	ldr	r3, [r7, #4]
 800316a:	6ada      	ldr	r2, [r3, #44]	; 0x2c
 800316c:	687b      	ldr	r3, [r7, #4]
 800316e:	6b1b      	ldr	r3, [r3, #48]	; 0x30
 8003170:	4313      	orrs	r3, r2
 8003172:	697a      	ldr	r2, [r7, #20]
 8003174:	4313      	orrs	r3, r2
 8003176:	617b      	str	r3, [r7, #20]
 8003178:	687b      	ldr	r3, [r7, #4]
 800317a:	681b      	ldr	r3, [r3, #0]
 800317c:	697a      	ldr	r2, [r7, #20]
 800317e:	601a      	str	r2, [r3, #0]
 8003180:	687b      	ldr	r3, [r7, #4]
 8003182:	681b      	ldr	r3, [r3, #0]
 8003184:	695b      	ldr	r3, [r3, #20]
 8003186:	617b      	str	r3, [r7, #20]
 8003188:	697b      	ldr	r3, [r7, #20]
 800318a:	f023 0307 	bic.w	r3, r3, #7
 800318e:	617b      	str	r3, [r7, #20]
 8003190:	687b      	ldr	r3, [r7, #4]
 8003192:	6a5b      	ldr	r3, [r3, #36]	; 0x24
 8003194:	697a      	ldr	r2, [r7, #20]
 8003196:	4313      	orrs	r3, r2
 8003198:	617b      	str	r3, [r7, #20]
 800319a:	687b      	ldr	r3, [r7, #4]
 800319c:	6a5b      	ldr	r3, [r3, #36]	; 0x24
 800319e:	2b04      	cmp	r3, #4
 80031a0:	d117      	bne.n	80031d2 <HAL_DMA_Init+0x122>
 80031a2:	687b      	ldr	r3, [r7, #4]
 80031a4:	6a9b      	ldr	r3, [r3, #40]	; 0x28
 80031a6:	697a      	ldr	r2, [r7, #20]
 80031a8:	4313      	orrs	r3, r2
 80031aa:	617b      	str	r3, [r7, #20]
 80031ac:	687b      	ldr	r3, [r7, #4]
 80031ae:	6adb      	ldr	r3, [r3, #44]	; 0x2c
 80031b0:	2b00      	cmp	r3, #0
 80031b2:	d00e      	beq.n	80031d2 <HAL_DMA_Init+0x122>
 80031b4:	6878      	ldr	r0, [r7, #4]
 80031b6:	f000 fb01 	bl	80037bc <DMA_CheckFifoParam>
 80031ba:	4603      	mov	r3, r0
 80031bc:	2b00      	cmp	r3, #0
 80031be:	d008      	beq.n	80031d2 <HAL_DMA_Init+0x122>
 80031c0:	687b      	ldr	r3, [r7, #4]
 80031c2:	2240      	movs	r2, #64	; 0x40
 80031c4:	655a      	str	r2, [r3, #84]	; 0x54
 80031c6:	687b      	ldr	r3, [r7, #4]
 80031c8:	2201      	movs	r2, #1
 80031ca:	f883 2035 	strb.w	r2, [r3, #53]	; 0x35
 80031ce:	2301      	movs	r3, #1
 80031d0:	e016      	b.n	8003200 <HAL_DMA_Init+0x150>
 80031d2:	687b      	ldr	r3, [r7, #4]
 80031d4:	681b      	ldr	r3, [r3, #0]
 80031d6:	697a      	ldr	r2, [r7, #20]
 80031d8:	615a      	str	r2, [r3, #20]
 80031da:	6878      	ldr	r0, [r7, #4]
 80031dc:	f000 fab8 	bl	8003750 <DMA_CalcBaseAndBitshift>
 80031e0:	4603      	mov	r3, r0
 80031e2:	60fb      	str	r3, [r7, #12]
 80031e4:	687b      	ldr	r3, [r7, #4]
 80031e6:	6ddb      	ldr	r3, [r3, #92]	; 0x5c
 80031e8:	223f      	movs	r2, #63	; 0x3f
 80031ea:	409a      	lsls	r2, r3
 80031ec:	68fb      	ldr	r3, [r7, #12]
 80031ee:	609a      	str	r2, [r3, #8]
 80031f0:	687b      	ldr	r3, [r7, #4]
 80031f2:	2200      	movs	r2, #0
 80031f4:	655a      	str	r2, [r3, #84]	; 0x54
 80031f6:	687b      	ldr	r3, [r7, #4]
 80031f8:	2201      	movs	r2, #1
 80031fa:	f883 2035 	strb.w	r2, [r3, #53]	; 0x35
 80031fe:	2300      	movs	r3, #0
 8003200:	4618      	mov	r0, r3
 8003202:	3718      	adds	r7, #24
 8003204:	46bd      	mov	sp, r7
 8003206:	bd80      	pop	{r7, pc}
 8003208:	f010803f 	.word	0xf010803f

0800320c <HAL_DMA_Start_IT>:
 800320c:	b580      	push	{r7, lr}
 800320e:	b086      	sub	sp, #24
 8003210:	af00      	add	r7, sp, #0
 8003212:	60f8      	str	r0, [r7, #12]
 8003214:	60b9      	str	r1, [r7, #8]
 8003216:	607a      	str	r2, [r7, #4]
 8003218:	603b      	str	r3, [r7, #0]
 800321a:	2300      	movs	r3, #0
 800321c:	75fb      	strb	r3, [r7, #23]
 800321e:	68fb      	ldr	r3, [r7, #12]
 8003220:	6d9b      	ldr	r3, [r3, #88]	; 0x58
 8003222:	613b      	str	r3, [r7, #16]
 8003224:	68fb      	ldr	r3, [r7, #12]
 8003226:	f893 3034 	ldrb.w	r3, [r3, #52]	; 0x34
 800322a:	2b01      	cmp	r3, #1
 800322c:	d101      	bne.n	8003232 <HAL_DMA_Start_IT+0x26>
 800322e:	2302      	movs	r3, #2
 8003230:	e040      	b.n	80032b4 <HAL_DMA_Start_IT+0xa8>
 8003232:	68fb      	ldr	r3, [r7, #12]
 8003234:	2201      	movs	r2, #1
 8003236:	f883 2034 	strb.w	r2, [r3, #52]	; 0x34
 800323a:	68fb      	ldr	r3, [r7, #12]
 800323c:	f893 3035 	ldrb.w	r3, [r3, #53]	; 0x35
 8003240:	b2db      	uxtb	r3, r3
 8003242:	2b01      	cmp	r3, #1
 8003244:	d12f      	bne.n	80032a6 <HAL_DMA_Start_IT+0x9a>
 8003246:	68fb      	ldr	r3, [r7, #12]
 8003248:	2202      	movs	r2, #2
 800324a:	f883 2035 	strb.w	r2, [r3, #53]	; 0x35
 800324e:	68fb      	ldr	r3, [r7, #12]
 8003250:	2200      	movs	r2, #0
 8003252:	655a      	str	r2, [r3, #84]	; 0x54
 8003254:	683b      	ldr	r3, [r7, #0]
 8003256:	687a      	ldr	r2, [r7, #4]
 8003258:	68b9      	ldr	r1, [r7, #8]
 800325a:	68f8      	ldr	r0, [r7, #12]
 800325c:	f000 fa4a 	bl	80036f4 <DMA_SetConfig>
 8003260:	68fb      	ldr	r3, [r7, #12]
 8003262:	6ddb      	ldr	r3, [r3, #92]	; 0x5c
 8003264:	223f      	movs	r2, #63	; 0x3f
 8003266:	409a      	lsls	r2, r3
 8003268:	693b      	ldr	r3, [r7, #16]
 800326a:	609a      	str	r2, [r3, #8]
 800326c:	68fb      	ldr	r3, [r7, #12]
 800326e:	681b      	ldr	r3, [r3, #0]
 8003270:	681a      	ldr	r2, [r3, #0]
 8003272:	68fb      	ldr	r3, [r7, #12]
 8003274:	681b      	ldr	r3, [r3, #0]
 8003276:	f042 0216 	orr.w	r2, r2, #22
 800327a:	601a      	str	r2, [r3, #0]
 800327c:	68fb      	ldr	r3, [r7, #12]
 800327e:	6c1b      	ldr	r3, [r3, #64]	; 0x40
 8003280:	2b00      	cmp	r3, #0
 8003282:	d007      	beq.n	8003294 <HAL_DMA_Start_IT+0x88>
 8003284:	68fb      	ldr	r3, [r7, #12]
 8003286:	681b      	ldr	r3, [r3, #0]
 8003288:	681a      	ldr	r2, [r3, #0]
 800328a:	68fb      	ldr	r3, [r7, #12]
 800328c:	681b      	ldr	r3, [r3, #0]
 800328e:	f042 0208 	orr.w	r2, r2, #8
 8003292:	601a      	str	r2, [r3, #0]
 8003294:	68fb      	ldr	r3, [r7, #12]
 8003296:	681b      	ldr	r3, [r3, #0]
 8003298:	681a      	ldr	r2, [r3, #0]
 800329a:	68fb      	ldr	r3, [r7, #12]
 800329c:	681b      	ldr	r3, [r3, #0]
 800329e:	f042 0201 	orr.w	r2, r2, #1
 80032a2:	601a      	str	r2, [r3, #0]
 80032a4:	e005      	b.n	80032b2 <HAL_DMA_Start_IT+0xa6>
 80032a6:	68fb      	ldr	r3, [r7, #12]
 80032a8:	2200      	movs	r2, #0
 80032aa:	f883 2034 	strb.w	r2, [r3, #52]	; 0x34
 80032ae:	2302      	movs	r3, #2
 80032b0:	75fb      	strb	r3, [r7, #23]
 80032b2:	7dfb      	ldrb	r3, [r7, #23]
 80032b4:	4618      	mov	r0, r3
 80032b6:	3718      	adds	r7, #24
 80032b8:	46bd      	mov	sp, r7
 80032ba:	bd80      	pop	{r7, pc}

080032bc <HAL_DMA_Abort>:
 80032bc:	b580      	push	{r7, lr}
 80032be:	b084      	sub	sp, #16
 80032c0:	af00      	add	r7, sp, #0
 80032c2:	6078      	str	r0, [r7, #4]
 80032c4:	687b      	ldr	r3, [r7, #4]
 80032c6:	6d9b      	ldr	r3, [r3, #88]	; 0x58
 80032c8:	60fb      	str	r3, [r7, #12]
 80032ca:	f7ff f99d 	bl	8002608 <HAL_GetTick>
 80032ce:	60b8      	str	r0, [r7, #8]
 80032d0:	687b      	ldr	r3, [r7, #4]
 80032d2:	f893 3035 	ldrb.w	r3, [r3, #53]	; 0x35
 80032d6:	b2db      	uxtb	r3, r3
 80032d8:	2b02      	cmp	r3, #2
 80032da:	d008      	beq.n	80032ee <HAL_DMA_Abort+0x32>
 80032dc:	687b      	ldr	r3, [r7, #4]
 80032de:	2280      	movs	r2, #128	; 0x80
 80032e0:	655a      	str	r2, [r3, #84]	; 0x54
 80032e2:	687b      	ldr	r3, [r7, #4]
 80032e4:	2200      	movs	r2, #0
 80032e6:	f883 2034 	strb.w	r2, [r3, #52]	; 0x34
 80032ea:	2301      	movs	r3, #1
 80032ec:	e052      	b.n	8003394 <HAL_DMA_Abort+0xd8>
 80032ee:	687b      	ldr	r3, [r7, #4]
 80032f0:	681b      	ldr	r3, [r3, #0]
 80032f2:	681a      	ldr	r2, [r3, #0]
 80032f4:	687b      	ldr	r3, [r7, #4]
 80032f6:	681b      	ldr	r3, [r3, #0]
 80032f8:	f022 0216 	bic.w	r2, r2, #22
 80032fc:	601a      	str	r2, [r3, #0]
 80032fe:	687b      	ldr	r3, [r7, #4]
 8003300:	681b      	ldr	r3, [r3, #0]
 8003302:	695a      	ldr	r2, [r3, #20]
 8003304:	687b      	ldr	r3, [r7, #4]
 8003306:	681b      	ldr	r3, [r3, #0]
 8003308:	f022 0280 	bic.w	r2, r2, #128	; 0x80
 800330c:	615a      	str	r2, [r3, #20]
 800330e:	687b      	ldr	r3, [r7, #4]
 8003310:	6c1b      	ldr	r3, [r3, #64]	; 0x40
 8003312:	2b00      	cmp	r3, #0
 8003314:	d103      	bne.n	800331e <HAL_DMA_Abort+0x62>
 8003316:	687b      	ldr	r3, [r7, #4]
 8003318:	6c9b      	ldr	r3, [r3, #72]	; 0x48
 800331a:	2b00      	cmp	r3, #0
 800331c:	d007      	beq.n	800332e <HAL_DMA_Abort+0x72>
 800331e:	687b      	ldr	r3, [r7, #4]
 8003320:	681b      	ldr	r3, [r3, #0]
 8003322:	681a      	ldr	r2, [r3, #0]
 8003324:	687b      	ldr	r3, [r7, #4]
 8003326:	681b      	ldr	r3, [r3, #0]
 8003328:	f022 0208 	bic.w	r2, r2, #8
 800332c:	601a      	str	r2, [r3, #0]
 800332e:	687b      	ldr	r3, [r7, #4]
 8003330:	681b      	ldr	r3, [r3, #0]
 8003332:	681a      	ldr	r2, [r3, #0]
 8003334:	687b      	ldr	r3, [r7, #4]
 8003336:	681b      	ldr	r3, [r3, #0]
 8003338:	f022 0201 	bic.w	r2, r2, #1
 800333c:	601a      	str	r2, [r3, #0]
 800333e:	e013      	b.n	8003368 <HAL_DMA_Abort+0xac>
 8003340:	f7ff f962 	bl	8002608 <HAL_GetTick>
 8003344:	4602      	mov	r2, r0
 8003346:	68bb      	ldr	r3, [r7, #8]
 8003348:	1ad3      	subs	r3, r2, r3
 800334a:	2b05      	cmp	r3, #5
 800334c:	d90c      	bls.n	8003368 <HAL_DMA_Abort+0xac>
 800334e:	687b      	ldr	r3, [r7, #4]
 8003350:	2220      	movs	r2, #32
 8003352:	655a      	str	r2, [r3, #84]	; 0x54
 8003354:	687b      	ldr	r3, [r7, #4]
 8003356:	2203      	movs	r2, #3
 8003358:	f883 2035 	strb.w	r2, [r3, #53]	; 0x35
 800335c:	687b      	ldr	r3, [r7, #4]
 800335e:	2200      	movs	r2, #0
 8003360:	f883 2034 	strb.w	r2, [r3, #52]	; 0x34
 8003364:	2303      	movs	r3, #3
 8003366:	e015      	b.n	8003394 <HAL_DMA_Abort+0xd8>
 8003368:	687b      	ldr	r3, [r7, #4]
 800336a:	681b      	ldr	r3, [r3, #0]
 800336c:	681b      	ldr	r3, [r3, #0]
 800336e:	f003 0301 	and.w	r3, r3, #1
 8003372:	2b00      	cmp	r3, #0
 8003374:	d1e4      	bne.n	8003340 <HAL_DMA_Abort+0x84>
 8003376:	687b      	ldr	r3, [r7, #4]
 8003378:	6ddb      	ldr	r3, [r3, #92]	; 0x5c
 800337a:	223f      	movs	r2, #63	; 0x3f
 800337c:	409a      	lsls	r2, r3
 800337e:	68fb      	ldr	r3, [r7, #12]
 8003380:	609a      	str	r2, [r3, #8]
 8003382:	687b      	ldr	r3, [r7, #4]
 8003384:	2201      	movs	r2, #1
 8003386:	f883 2035 	strb.w	r2, [r3, #53]	; 0x35
 800338a:	687b      	ldr	r3, [r7, #4]
 800338c:	2200      	movs	r2, #0
 800338e:	f883 2034 	strb.w	r2, [r3, #52]	; 0x34
 8003392:	2300      	movs	r3, #0
 8003394:	4618      	mov	r0, r3
 8003396:	3710      	adds	r7, #16
 8003398:	46bd      	mov	sp, r7
 800339a:	bd80      	pop	{r7, pc}

0800339c <HAL_DMA_Abort_IT>:
 800339c:	b480      	push	{r7}
 800339e:	b083      	sub	sp, #12
 80033a0:	af00      	add	r7, sp, #0
 80033a2:	6078      	str	r0, [r7, #4]
 80033a4:	687b      	ldr	r3, [r7, #4]
 80033a6:	f893 3035 	ldrb.w	r3, [r3, #53]	; 0x35
 80033aa:	b2db      	uxtb	r3, r3
 80033ac:	2b02      	cmp	r3, #2
 80033ae:	d004      	beq.n	80033ba <HAL_DMA_Abort_IT+0x1e>
 80033b0:	687b      	ldr	r3, [r7, #4]
 80033b2:	2280      	movs	r2, #128	; 0x80
 80033b4:	655a      	str	r2, [r3, #84]	; 0x54
 80033b6:	2301      	movs	r3, #1
 80033b8:	e00c      	b.n	80033d4 <HAL_DMA_Abort_IT+0x38>
 80033ba:	687b      	ldr	r3, [r7, #4]
 80033bc:	2205      	movs	r2, #5
 80033be:	f883 2035 	strb.w	r2, [r3, #53]	; 0x35
 80033c2:	687b      	ldr	r3, [r7, #4]
 80033c4:	681b      	ldr	r3, [r3, #0]
 80033c6:	681a      	ldr	r2, [r3, #0]
 80033c8:	687b      	ldr	r3, [r7, #4]
 80033ca:	681b      	ldr	r3, [r3, #0]
 80033cc:	f022 0201 	bic.w	r2, r2, #1
 80033d0:	601a      	str	r2, [r3, #0]
 80033d2:	2300      	movs	r3, #0
 80033d4:	4618      	mov	r0, r3
 80033d6:	370c      	adds	r7, #12
 80033d8:	46bd      	mov	sp, r7
 80033da:	f85d 7b04 	ldr.w	r7, [sp], #4
 80033de:	4770      	bx	lr

080033e0 <HAL_DMA_IRQHandler>:
 80033e0:	b580      	push	{r7, lr}
 80033e2:	b086      	sub	sp, #24
 80033e4:	af00      	add	r7, sp, #0
 80033e6:	6078      	str	r0, [r7, #4]
 80033e8:	2300      	movs	r3, #0
 80033ea:	60bb      	str	r3, [r7, #8]
 80033ec:	4b8e      	ldr	r3, [pc, #568]	; (8003628 <HAL_DMA_IRQHandler+0x248>)
 80033ee:	681b      	ldr	r3, [r3, #0]
 80033f0:	4a8e      	ldr	r2, [pc, #568]	; (800362c <HAL_DMA_IRQHandler+0x24c>)
 80033f2:	fba2 2303 	umull	r2, r3, r2, r3
 80033f6:	0a9b      	lsrs	r3, r3, #10
 80033f8:	617b      	str	r3, [r7, #20]
 80033fa:	687b      	ldr	r3, [r7, #4]
 80033fc:	6d9b      	ldr	r3, [r3, #88]	; 0x58
 80033fe:	613b      	str	r3, [r7, #16]
 8003400:	693b      	ldr	r3, [r7, #16]
 8003402:	681b      	ldr	r3, [r3, #0]
 8003404:	60fb      	str	r3, [r7, #12]
 8003406:	687b      	ldr	r3, [r7, #4]
 8003408:	6ddb      	ldr	r3, [r3, #92]	; 0x5c
 800340a:	2208      	movs	r2, #8
 800340c:	409a      	lsls	r2, r3
 800340e:	68fb      	ldr	r3, [r7, #12]
 8003410:	4013      	ands	r3, r2
 8003412:	2b00      	cmp	r3, #0
 8003414:	d01a      	beq.n	800344c <HAL_DMA_IRQHandler+0x6c>
 8003416:	687b      	ldr	r3, [r7, #4]
 8003418:	681b      	ldr	r3, [r3, #0]
 800341a:	681b      	ldr	r3, [r3, #0]
 800341c:	f003 0304 	and.w	r3, r3, #4
 8003420:	2b00      	cmp	r3, #0
 8003422:	d013      	beq.n	800344c <HAL_DMA_IRQHandler+0x6c>
 8003424:	687b      	ldr	r3, [r7, #4]
 8003426:	681b      	ldr	r3, [r3, #0]
 8003428:	681a      	ldr	r2, [r3, #0]
 800342a:	687b      	ldr	r3, [r7, #4]
 800342c:	681b      	ldr	r3, [r3, #0]
 800342e:	f022 0204 	bic.w	r2, r2, #4
 8003432:	601a      	str	r2, [r3, #0]
 8003434:	687b      	ldr	r3, [r7, #4]
 8003436:	6ddb      	ldr	r3, [r3, #92]	; 0x5c
 8003438:	2208      	movs	r2, #8
 800343a:	409a      	lsls	r2, r3
 800343c:	693b      	ldr	r3, [r7, #16]
 800343e:	609a      	str	r2, [r3, #8]
 8003440:	687b      	ldr	r3, [r7, #4]
 8003442:	6d5b      	ldr	r3, [r3, #84]	; 0x54
 8003444:	f043 0201 	orr.w	r2, r3, #1
 8003448:	687b      	ldr	r3, [r7, #4]
 800344a:	655a      	str	r2, [r3, #84]	; 0x54
 800344c:	687b      	ldr	r3, [r7, #4]
 800344e:	6ddb      	ldr	r3, [r3, #92]	; 0x5c
 8003450:	2201      	movs	r2, #1
 8003452:	409a      	lsls	r2, r3
 8003454:	68fb      	ldr	r3, [r7, #12]
 8003456:	4013      	ands	r3, r2
 8003458:	2b00      	cmp	r3, #0
 800345a:	d012      	beq.n	8003482 <HAL_DMA_IRQHandler+0xa2>
 800345c:	687b      	ldr	r3, [r7, #4]
 800345e:	681b      	ldr	r3, [r3, #0]
 8003460:	695b      	ldr	r3, [r3, #20]
 8003462:	f003 0380 	and.w	r3, r3, #128	; 0x80
 8003466:	2b00      	cmp	r3, #0
 8003468:	d00b      	beq.n	8003482 <HAL_DMA_IRQHandler+0xa2>
 800346a:	687b      	ldr	r3, [r7, #4]
 800346c:	6ddb      	ldr	r3, [r3, #92]	; 0x5c
 800346e:	2201      	movs	r2, #1
 8003470:	409a      	lsls	r2, r3
 8003472:	693b      	ldr	r3, [r7, #16]
 8003474:	609a      	str	r2, [r3, #8]
 8003476:	687b      	ldr	r3, [r7, #4]
 8003478:	6d5b      	ldr	r3, [r3, #84]	; 0x54
 800347a:	f043 0202 	orr.w	r2, r3, #2
 800347e:	687b      	ldr	r3, [r7, #4]
 8003480:	655a      	str	r2, [r3, #84]	; 0x54
 8003482:	687b      	ldr	r3, [r7, #4]
 8003484:	6ddb      	ldr	r3, [r3, #92]	; 0x5c
 8003486:	2204      	movs	r2, #4
 8003488:	409a      	lsls	r2, r3
 800348a:	68fb      	ldr	r3, [r7, #12]
 800348c:	4013      	ands	r3, r2
 800348e:	2b00      	cmp	r3, #0
 8003490:	d012      	beq.n	80034b8 <HAL_DMA_IRQHandler+0xd8>
 8003492:	687b      	ldr	r3, [r7, #4]
 8003494:	681b      	ldr	r3, [r3, #0]
 8003496:	681b      	ldr	r3, [r3, #0]
 8003498:	f003 0302 	and.w	r3, r3, #2
 800349c:	2b00      	cmp	r3, #0
 800349e:	d00b      	beq.n	80034b8 <HAL_DMA_IRQHandler+0xd8>
 80034a0:	687b      	ldr	r3, [r7, #4]
 80034a2:	6ddb      	ldr	r3, [r3, #92]	; 0x5c
 80034a4:	2204      	movs	r2, #4
 80034a6:	409a      	lsls	r2, r3
 80034a8:	693b      	ldr	r3, [r7, #16]
 80034aa:	609a      	str	r2, [r3, #8]
 80034ac:	687b      	ldr	r3, [r7, #4]
 80034ae:	6d5b      	ldr	r3, [r3, #84]	; 0x54
 80034b0:	f043 0204 	orr.w	r2, r3, #4
 80034b4:	687b      	ldr	r3, [r7, #4]
 80034b6:	655a      	str	r2, [r3, #84]	; 0x54
 80034b8:	687b      	ldr	r3, [r7, #4]
 80034ba:	6ddb      	ldr	r3, [r3, #92]	; 0x5c
 80034bc:	2210      	movs	r2, #16
 80034be:	409a      	lsls	r2, r3
 80034c0:	68fb      	ldr	r3, [r7, #12]
 80034c2:	4013      	ands	r3, r2
 80034c4:	2b00      	cmp	r3, #0
 80034c6:	d043      	beq.n	8003550 <HAL_DMA_IRQHandler+0x170>
 80034c8:	687b      	ldr	r3, [r7, #4]
 80034ca:	681b      	ldr	r3, [r3, #0]
 80034cc:	681b      	ldr	r3, [r3, #0]
 80034ce:	f003 0308 	and.w	r3, r3, #8
 80034d2:	2b00      	cmp	r3, #0
 80034d4:	d03c      	beq.n	8003550 <HAL_DMA_IRQHandler+0x170>
 80034d6:	687b      	ldr	r3, [r7, #4]
 80034d8:	6ddb      	ldr	r3, [r3, #92]	; 0x5c
 80034da:	2210      	movs	r2, #16
 80034dc:	409a      	lsls	r2, r3
 80034de:	693b      	ldr	r3, [r7, #16]
 80034e0:	609a      	str	r2, [r3, #8]
 80034e2:	687b      	ldr	r3, [r7, #4]
 80034e4:	681b      	ldr	r3, [r3, #0]
 80034e6:	681b      	ldr	r3, [r3, #0]
 80034e8:	f403 2380 	and.w	r3, r3, #262144	; 0x40000
 80034ec:	2b00      	cmp	r3, #0
 80034ee:	d018      	beq.n	8003522 <HAL_DMA_IRQHandler+0x142>
 80034f0:	687b      	ldr	r3, [r7, #4]
 80034f2:	681b      	ldr	r3, [r3, #0]
 80034f4:	681b      	ldr	r3, [r3, #0]
 80034f6:	f403 2300 	and.w	r3, r3, #524288	; 0x80000
 80034fa:	2b00      	cmp	r3, #0
 80034fc:	d108      	bne.n	8003510 <HAL_DMA_IRQHandler+0x130>
 80034fe:	687b      	ldr	r3, [r7, #4]
 8003500:	6c1b      	ldr	r3, [r3, #64]	; 0x40
 8003502:	2b00      	cmp	r3, #0
 8003504:	d024      	beq.n	8003550 <HAL_DMA_IRQHandler+0x170>
 8003506:	687b      	ldr	r3, [r7, #4]
 8003508:	6c1b      	ldr	r3, [r3, #64]	; 0x40
 800350a:	6878      	ldr	r0, [r7, #4]
 800350c:	4798      	blx	r3
 800350e:	e01f      	b.n	8003550 <HAL_DMA_IRQHandler+0x170>
 8003510:	687b      	ldr	r3, [r7, #4]
 8003512:	6c9b      	ldr	r3, [r3, #72]	; 0x48
 8003514:	2b00      	cmp	r3, #0
 8003516:	d01b      	beq.n	8003550 <HAL_DMA_IRQHandler+0x170>
 8003518:	687b      	ldr	r3, [r7, #4]
 800351a:	6c9b      	ldr	r3, [r3, #72]	; 0x48
 800351c:	6878      	ldr	r0, [r7, #4]
 800351e:	4798      	blx	r3
 8003520:	e016      	b.n	8003550 <HAL_DMA_IRQHandler+0x170>
 8003522:	687b      	ldr	r3, [r7, #4]
 8003524:	681b      	ldr	r3, [r3, #0]
 8003526:	681b      	ldr	r3, [r3, #0]
 8003528:	f403 7380 	and.w	r3, r3, #256	; 0x100
 800352c:	2b00      	cmp	r3, #0
 800352e:	d107      	bne.n	8003540 <HAL_DMA_IRQHandler+0x160>
 8003530:	687b      	ldr	r3, [r7, #4]
 8003532:	681b      	ldr	r3, [r3, #0]
 8003534:	681a      	ldr	r2, [r3, #0]
 8003536:	687b      	ldr	r3, [r7, #4]
 8003538:	681b      	ldr	r3, [r3, #0]
 800353a:	f022 0208 	bic.w	r2, r2, #8
 800353e:	601a      	str	r2, [r3, #0]
 8003540:	687b      	ldr	r3, [r7, #4]
 8003542:	6c1b      	ldr	r3, [r3, #64]	; 0x40
 8003544:	2b00      	cmp	r3, #0
 8003546:	d003      	beq.n	8003550 <HAL_DMA_IRQHandler+0x170>
 8003548:	687b      	ldr	r3, [r7, #4]
 800354a:	6c1b      	ldr	r3, [r3, #64]	; 0x40
 800354c:	6878      	ldr	r0, [r7, #4]
 800354e:	4798      	blx	r3
 8003550:	687b      	ldr	r3, [r7, #4]
 8003552:	6ddb      	ldr	r3, [r3, #92]	; 0x5c
 8003554:	2220      	movs	r2, #32
 8003556:	409a      	lsls	r2, r3
 8003558:	68fb      	ldr	r3, [r7, #12]
 800355a:	4013      	ands	r3, r2
 800355c:	2b00      	cmp	r3, #0
 800355e:	f000 808f 	beq.w	8003680 <HAL_DMA_IRQHandler+0x2a0>
 8003562:	687b      	ldr	r3, [r7, #4]
 8003564:	681b      	ldr	r3, [r3, #0]
 8003566:	681b      	ldr	r3, [r3, #0]
 8003568:	f003 0310 	and.w	r3, r3, #16
 800356c:	2b00      	cmp	r3, #0
 800356e:	f000 8087 	beq.w	8003680 <HAL_DMA_IRQHandler+0x2a0>
 8003572:	687b      	ldr	r3, [r7, #4]
 8003574:	6ddb      	ldr	r3, [r3, #92]	; 0x5c
 8003576:	2220      	movs	r2, #32
 8003578:	409a      	lsls	r2, r3
 800357a:	693b      	ldr	r3, [r7, #16]
 800357c:	609a      	str	r2, [r3, #8]
 800357e:	687b      	ldr	r3, [r7, #4]
 8003580:	f893 3035 	ldrb.w	r3, [r3, #53]	; 0x35
 8003584:	b2db      	uxtb	r3, r3
 8003586:	2b05      	cmp	r3, #5
 8003588:	d136      	bne.n	80035f8 <HAL_DMA_IRQHandler+0x218>
 800358a:	687b      	ldr	r3, [r7, #4]
 800358c:	681b      	ldr	r3, [r3, #0]
 800358e:	681a      	ldr	r2, [r3, #0]
 8003590:	687b      	ldr	r3, [r7, #4]
 8003592:	681b      	ldr	r3, [r3, #0]
 8003594:	f022 0216 	bic.w	r2, r2, #22
 8003598:	601a      	str	r2, [r3, #0]
 800359a:	687b      	ldr	r3, [r7, #4]
 800359c:	681b      	ldr	r3, [r3, #0]
 800359e:	695a      	ldr	r2, [r3, #20]
 80035a0:	687b      	ldr	r3, [r7, #4]
 80035a2:	681b      	ldr	r3, [r3, #0]
 80035a4:	f022 0280 	bic.w	r2, r2, #128	; 0x80
 80035a8:	615a      	str	r2, [r3, #20]
 80035aa:	687b      	ldr	r3, [r7, #4]
 80035ac:	6c1b      	ldr	r3, [r3, #64]	; 0x40
 80035ae:	2b00      	cmp	r3, #0
 80035b0:	d103      	bne.n	80035ba <HAL_DMA_IRQHandler+0x1da>
 80035b2:	687b      	ldr	r3, [r7, #4]
 80035b4:	6c9b      	ldr	r3, [r3, #72]	; 0x48
 80035b6:	2b00      	cmp	r3, #0
 80035b8:	d007      	beq.n	80035ca <HAL_DMA_IRQHandler+0x1ea>
 80035ba:	687b      	ldr	r3, [r7, #4]
 80035bc:	681b      	ldr	r3, [r3, #0]
 80035be:	681a      	ldr	r2, [r3, #0]
 80035c0:	687b      	ldr	r3, [r7, #4]
 80035c2:	681b      	ldr	r3, [r3, #0]
 80035c4:	f022 0208 	bic.w	r2, r2, #8
 80035c8:	601a      	str	r2, [r3, #0]
 80035ca:	687b      	ldr	r3, [r7, #4]
 80035cc:	6ddb      	ldr	r3, [r3, #92]	; 0x5c
 80035ce:	223f      	movs	r2, #63	; 0x3f
 80035d0:	409a      	lsls	r2, r3
 80035d2:	693b      	ldr	r3, [r7, #16]
 80035d4:	609a      	str	r2, [r3, #8]
 80035d6:	687b      	ldr	r3, [r7, #4]
 80035d8:	2201      	movs	r2, #1
 80035da:	f883 2035 	strb.w	r2, [r3, #53]	; 0x35
 80035de:	687b      	ldr	r3, [r7, #4]
 80035e0:	2200      	movs	r2, #0
 80035e2:	f883 2034 	strb.w	r2, [r3, #52]	; 0x34
 80035e6:	687b      	ldr	r3, [r7, #4]
 80035e8:	6d1b      	ldr	r3, [r3, #80]	; 0x50
 80035ea:	2b00      	cmp	r3, #0
 80035ec:	d07e      	beq.n	80036ec <HAL_DMA_IRQHandler+0x30c>
 80035ee:	687b      	ldr	r3, [r7, #4]
 80035f0:	6d1b      	ldr	r3, [r3, #80]	; 0x50
 80035f2:	6878      	ldr	r0, [r7, #4]
 80035f4:	4798      	blx	r3
 80035f6:	e079      	b.n	80036ec <HAL_DMA_IRQHandler+0x30c>
 80035f8:	687b      	ldr	r3, [r7, #4]
 80035fa:	681b      	ldr	r3, [r3, #0]
 80035fc:	681b      	ldr	r3, [r3, #0]
 80035fe:	f403 2380 	and.w	r3, r3, #262144	; 0x40000
 8003602:	2b00      	cmp	r3, #0
 8003604:	d01d      	beq.n	8003642 <HAL_DMA_IRQHandler+0x262>
 8003606:	687b      	ldr	r3, [r7, #4]
 8003608:	681b      	ldr	r3, [r3, #0]
 800360a:	681b      	ldr	r3, [r3, #0]
 800360c:	f403 2300 	and.w	r3, r3, #524288	; 0x80000
 8003610:	2b00      	cmp	r3, #0
 8003612:	d10d      	bne.n	8003630 <HAL_DMA_IRQHandler+0x250>
 8003614:	687b      	ldr	r3, [r7, #4]
 8003616:	6c5b      	ldr	r3, [r3, #68]	; 0x44
 8003618:	2b00      	cmp	r3, #0
 800361a:	d031      	beq.n	8003680 <HAL_DMA_IRQHandler+0x2a0>
 800361c:	687b      	ldr	r3, [r7, #4]
 800361e:	6c5b      	ldr	r3, [r3, #68]	; 0x44
 8003620:	6878      	ldr	r0, [r7, #4]
 8003622:	4798      	blx	r3
 8003624:	e02c      	b.n	8003680 <HAL_DMA_IRQHandler+0x2a0>
 8003626:	bf00      	nop
 8003628:	20000008 	.word	0x20000008
 800362c:	1b4e81b5 	.word	0x1b4e81b5
 8003630:	687b      	ldr	r3, [r7, #4]
 8003632:	6bdb      	ldr	r3, [r3, #60]	; 0x3c
 8003634:	2b00      	cmp	r3, #0
 8003636:	d023      	beq.n	8003680 <HAL_DMA_IRQHandler+0x2a0>
 8003638:	687b      	ldr	r3, [r7, #4]
 800363a:	6bdb      	ldr	r3, [r3, #60]	; 0x3c
 800363c:	6878      	ldr	r0, [r7, #4]
 800363e:	4798      	blx	r3
 8003640:	e01e      	b.n	8003680 <HAL_DMA_IRQHandler+0x2a0>
 8003642:	687b      	ldr	r3, [r7, #4]
 8003644:	681b      	ldr	r3, [r3, #0]
 8003646:	681b      	ldr	r3, [r3, #0]
 8003648:	f403 7380 	and.w	r3, r3, #256	; 0x100
 800364c:	2b00      	cmp	r3, #0
 800364e:	d10f      	bne.n	8003670 <HAL_DMA_IRQHandler+0x290>
 8003650:	687b      	ldr	r3, [r7, #4]
 8003652:	681b      	ldr	r3, [r3, #0]
 8003654:	681a      	ldr	r2, [r3, #0]
 8003656:	687b      	ldr	r3, [r7, #4]
 8003658:	681b      	ldr	r3, [r3, #0]
 800365a:	f022 0210 	bic.w	r2, r2, #16
 800365e:	601a      	str	r2, [r3, #0]
 8003660:	687b      	ldr	r3, [r7, #4]
 8003662:	2201      	movs	r2, #1
 8003664:	f883 2035 	strb.w	r2, [r3, #53]	; 0x35
 8003668:	687b      	ldr	r3, [r7, #4]
 800366a:	2200      	movs	r2, #0
 800366c:	f883 2034 	strb.w	r2, [r3, #52]	; 0x34
 8003670:	687b      	ldr	r3, [r7, #4]
 8003672:	6bdb      	ldr	r3, [r3, #60]	; 0x3c
 8003674:	2b00      	cmp	r3, #0
 8003676:	d003      	beq.n	8003680 <HAL_DMA_IRQHandler+0x2a0>
 8003678:	687b      	ldr	r3, [r7, #4]
 800367a:	6bdb      	ldr	r3, [r3, #60]	; 0x3c
 800367c:	6878      	ldr	r0, [r7, #4]
 800367e:	4798      	blx	r3
 8003680:	687b      	ldr	r3, [r7, #4]
 8003682:	6d5b      	ldr	r3, [r3, #84]	; 0x54
 8003684:	2b00      	cmp	r3, #0
 8003686:	d032      	beq.n	80036ee <HAL_DMA_IRQHandler+0x30e>
 8003688:	687b      	ldr	r3, [r7, #4]
 800368a:	6d5b      	ldr	r3, [r3, #84]	; 0x54
 800368c:	f003 0301 	and.w	r3, r3, #1
 8003690:	2b00      	cmp	r3, #0
 8003692:	d022      	beq.n	80036da <HAL_DMA_IRQHandler+0x2fa>
 8003694:	687b      	ldr	r3, [r7, #4]
 8003696:	2205      	movs	r2, #5
 8003698:	f883 2035 	strb.w	r2, [r3, #53]	; 0x35
 800369c:	687b      	ldr	r3, [r7, #4]
 800369e:	681b      	ldr	r3, [r3, #0]
 80036a0:	681a      	ldr	r2, [r3, #0]
 80036a2:	687b      	ldr	r3, [r7, #4]
 80036a4:	681b      	ldr	r3, [r3, #0]
 80036a6:	f022 0201 	bic.w	r2, r2, #1
 80036aa:	601a      	str	r2, [r3, #0]
 80036ac:	68bb      	ldr	r3, [r7, #8]
 80036ae:	3301      	adds	r3, #1
 80036b0:	60bb      	str	r3, [r7, #8]
 80036b2:	697a      	ldr	r2, [r7, #20]
 80036b4:	429a      	cmp	r2, r3
 80036b6:	d307      	bcc.n	80036c8 <HAL_DMA_IRQHandler+0x2e8>
 80036b8:	687b      	ldr	r3, [r7, #4]
 80036ba:	681b      	ldr	r3, [r3, #0]
 80036bc:	681b      	ldr	r3, [r3, #0]
 80036be:	f003 0301 	and.w	r3, r3, #1
 80036c2:	2b00      	cmp	r3, #0
 80036c4:	d1f2      	bne.n	80036ac <HAL_DMA_IRQHandler+0x2cc>
 80036c6:	e000      	b.n	80036ca <HAL_DMA_IRQHandler+0x2ea>
 80036c8:	bf00      	nop
 80036ca:	687b      	ldr	r3, [r7, #4]
 80036cc:	2201      	movs	r2, #1
 80036ce:	f883 2035 	strb.w	r2, [r3, #53]	; 0x35
 80036d2:	687b      	ldr	r3, [r7, #4]
 80036d4:	2200      	movs	r2, #0
 80036d6:	f883 2034 	strb.w	r2, [r3, #52]	; 0x34
 80036da:	687b      	ldr	r3, [r7, #4]
 80036dc:	6cdb      	ldr	r3, [r3, #76]	; 0x4c
 80036de:	2b00      	cmp	r3, #0
 80036e0:	d005      	beq.n	80036ee <HAL_DMA_IRQHandler+0x30e>
 80036e2:	687b      	ldr	r3, [r7, #4]
 80036e4:	6cdb      	ldr	r3, [r3, #76]	; 0x4c
 80036e6:	6878      	ldr	r0, [r7, #4]
 80036e8:	4798      	blx	r3
 80036ea:	e000      	b.n	80036ee <HAL_DMA_IRQHandler+0x30e>
 80036ec:	bf00      	nop
 80036ee:	3718      	adds	r7, #24
 80036f0:	46bd      	mov	sp, r7
 80036f2:	bd80      	pop	{r7, pc}

080036f4 <DMA_SetConfig>:
 80036f4:	b480      	push	{r7}
 80036f6:	b085      	sub	sp, #20
 80036f8:	af00      	add	r7, sp, #0
 80036fa:	60f8      	str	r0, [r7, #12]
 80036fc:	60b9      	str	r1, [r7, #8]
 80036fe:	607a      	str	r2, [r7, #4]
 8003700:	603b      	str	r3, [r7, #0]
 8003702:	68fb      	ldr	r3, [r7, #12]
 8003704:	681b      	ldr	r3, [r3, #0]
 8003706:	681a      	ldr	r2, [r3, #0]
 8003708:	68fb      	ldr	r3, [r7, #12]
 800370a:	681b      	ldr	r3, [r3, #0]
 800370c:	f422 2280 	bic.w	r2, r2, #262144	; 0x40000
 8003710:	601a      	str	r2, [r3, #0]
 8003712:	68fb      	ldr	r3, [r7, #12]
 8003714:	681b      	ldr	r3, [r3, #0]
 8003716:	683a      	ldr	r2, [r7, #0]
 8003718:	605a      	str	r2, [r3, #4]
 800371a:	68fb      	ldr	r3, [r7, #12]
 800371c:	689b      	ldr	r3, [r3, #8]
 800371e:	2b40      	cmp	r3, #64	; 0x40
 8003720:	d108      	bne.n	8003734 <DMA_SetConfig+0x40>
 8003722:	68fb      	ldr	r3, [r7, #12]
 8003724:	681b      	ldr	r3, [r3, #0]
 8003726:	687a      	ldr	r2, [r7, #4]
 8003728:	609a      	str	r2, [r3, #8]
 800372a:	68fb      	ldr	r3, [r7, #12]
 800372c:	681b      	ldr	r3, [r3, #0]
 800372e:	68ba      	ldr	r2, [r7, #8]
 8003730:	60da      	str	r2, [r3, #12]
 8003732:	e007      	b.n	8003744 <DMA_SetConfig+0x50>
 8003734:	68fb      	ldr	r3, [r7, #12]
 8003736:	681b      	ldr	r3, [r3, #0]
 8003738:	68ba      	ldr	r2, [r7, #8]
 800373a:	609a      	str	r2, [r3, #8]
 800373c:	68fb      	ldr	r3, [r7, #12]
 800373e:	681b      	ldr	r3, [r3, #0]
 8003740:	687a      	ldr	r2, [r7, #4]
 8003742:	60da      	str	r2, [r3, #12]
 8003744:	bf00      	nop
 8003746:	3714      	adds	r7, #20
 8003748:	46bd      	mov	sp, r7
 800374a:	f85d 7b04 	ldr.w	r7, [sp], #4
 800374e:	4770      	bx	lr

08003750 <DMA_CalcBaseAndBitshift>:
 8003750:	b480      	push	{r7}
 8003752:	b085      	sub	sp, #20
 8003754:	af00      	add	r7, sp, #0
 8003756:	6078      	str	r0, [r7, #4]
 8003758:	687b      	ldr	r3, [r7, #4]
 800375a:	681b      	ldr	r3, [r3, #0]
 800375c:	b2db      	uxtb	r3, r3
 800375e:	3b10      	subs	r3, #16
 8003760:	4a14      	ldr	r2, [pc, #80]	; (80037b4 <DMA_CalcBaseAndBitshift+0x64>)
 8003762:	fba2 2303 	umull	r2, r3, r2, r3
 8003766:	091b      	lsrs	r3, r3, #4
 8003768:	60fb      	str	r3, [r7, #12]
 800376a:	4a13      	ldr	r2, [pc, #76]	; (80037b8 <DMA_CalcBaseAndBitshift+0x68>)
 800376c:	68fb      	ldr	r3, [r7, #12]
 800376e:	4413      	add	r3, r2
 8003770:	781b      	ldrb	r3, [r3, #0]
 8003772:	461a      	mov	r2, r3
 8003774:	687b      	ldr	r3, [r7, #4]
 8003776:	65da      	str	r2, [r3, #92]	; 0x5c
 8003778:	68fb      	ldr	r3, [r7, #12]
 800377a:	2b03      	cmp	r3, #3
 800377c:	d909      	bls.n	8003792 <DMA_CalcBaseAndBitshift+0x42>
 800377e:	687b      	ldr	r3, [r7, #4]
 8003780:	681b      	ldr	r3, [r3, #0]
 8003782:	f423 737f 	bic.w	r3, r3, #1020	; 0x3fc
 8003786:	f023 0303 	bic.w	r3, r3, #3
 800378a:	1d1a      	adds	r2, r3, #4
 800378c:	687b      	ldr	r3, [r7, #4]
 800378e:	659a      	str	r2, [r3, #88]	; 0x58
 8003790:	e007      	b.n	80037a2 <DMA_CalcBaseAndBitshift+0x52>
 8003792:	687b      	ldr	r3, [r7, #4]
 8003794:	681b      	ldr	r3, [r3, #0]
 8003796:	f423 737f 	bic.w	r3, r3, #1020	; 0x3fc
 800379a:	f023 0303 	bic.w	r3, r3, #3
 800379e:	687a      	ldr	r2, [r7, #4]
 80037a0:	6593      	str	r3, [r2, #88]	; 0x58
 80037a2:	687b      	ldr	r3, [r7, #4]
 80037a4:	6d9b      	ldr	r3, [r3, #88]	; 0x58
 80037a6:	4618      	mov	r0, r3
 80037a8:	3714      	adds	r7, #20
 80037aa:	46bd      	mov	sp, r7
 80037ac:	f85d 7b04 	ldr.w	r7, [sp], #4
 80037b0:	4770      	bx	lr
 80037b2:	bf00      	nop
 80037b4:	aaaaaaab 	.word	0xaaaaaaab
 80037b8:	0800a09c 	.word	0x0800a09c

080037bc <DMA_CheckFifoParam>:
 80037bc:	b480      	push	{r7}
 80037be:	b085      	sub	sp, #20
 80037c0:	af00      	add	r7, sp, #0
 80037c2:	6078      	str	r0, [r7, #4]
 80037c4:	2300      	movs	r3, #0
 80037c6:	73fb      	strb	r3, [r7, #15]
 80037c8:	687b      	ldr	r3, [r7, #4]
 80037ca:	6a9b      	ldr	r3, [r3, #40]	; 0x28
 80037cc:	60bb      	str	r3, [r7, #8]
 80037ce:	687b      	ldr	r3, [r7, #4]
 80037d0:	699b      	ldr	r3, [r3, #24]
 80037d2:	2b00      	cmp	r3, #0
 80037d4:	d11f      	bne.n	8003816 <DMA_CheckFifoParam+0x5a>
 80037d6:	68bb      	ldr	r3, [r7, #8]
 80037d8:	2b03      	cmp	r3, #3
 80037da:	d856      	bhi.n	800388a <DMA_CheckFifoParam+0xce>
 80037dc:	a201      	add	r2, pc, #4	; (adr r2, 80037e4 <DMA_CheckFifoParam+0x28>)
 80037de:	f852 f023 	ldr.w	pc, [r2, r3, lsl #2]
 80037e2:	bf00      	nop
 80037e4:	080037f5 	.word	0x080037f5
 80037e8:	08003807 	.word	0x08003807
 80037ec:	080037f5 	.word	0x080037f5
 80037f0:	0800388b 	.word	0x0800388b
 80037f4:	687b      	ldr	r3, [r7, #4]
 80037f6:	6adb      	ldr	r3, [r3, #44]	; 0x2c
 80037f8:	f003 7380 	and.w	r3, r3, #16777216	; 0x1000000
 80037fc:	2b00      	cmp	r3, #0
 80037fe:	d046      	beq.n	800388e <DMA_CheckFifoParam+0xd2>
 8003800:	2301      	movs	r3, #1
 8003802:	73fb      	strb	r3, [r7, #15]
 8003804:	e043      	b.n	800388e <DMA_CheckFifoParam+0xd2>
 8003806:	687b      	ldr	r3, [r7, #4]
 8003808:	6adb      	ldr	r3, [r3, #44]	; 0x2c
 800380a:	f1b3 7fc0 	cmp.w	r3, #25165824	; 0x1800000
 800380e:	d140      	bne.n	8003892 <DMA_CheckFifoParam+0xd6>
 8003810:	2301      	movs	r3, #1
 8003812:	73fb      	strb	r3, [r7, #15]
 8003814:	e03d      	b.n	8003892 <DMA_CheckFifoParam+0xd6>
 8003816:	687b      	ldr	r3, [r7, #4]
 8003818:	699b      	ldr	r3, [r3, #24]
 800381a:	f5b3 5f00 	cmp.w	r3, #8192	; 0x2000
 800381e:	d121      	bne.n	8003864 <DMA_CheckFifoParam+0xa8>
 8003820:	68bb      	ldr	r3, [r7, #8]
 8003822:	2b03      	cmp	r3, #3
 8003824:	d837      	bhi.n	8003896 <DMA_CheckFifoParam+0xda>
 8003826:	a201      	add	r2, pc, #4	; (adr r2, 800382c <DMA_CheckFifoParam+0x70>)
 8003828:	f852 f023 	ldr.w	pc, [r2, r3, lsl #2]
 800382c:	0800383d 	.word	0x0800383d
 8003830:	08003843 	.word	0x08003843
 8003834:	0800383d 	.word	0x0800383d
 8003838:	08003855 	.word	0x08003855
 800383c:	2301      	movs	r3, #1
 800383e:	73fb      	strb	r3, [r7, #15]
 8003840:	e030      	b.n	80038a4 <DMA_CheckFifoParam+0xe8>
 8003842:	687b      	ldr	r3, [r7, #4]
 8003844:	6adb      	ldr	r3, [r3, #44]	; 0x2c
 8003846:	f003 7380 	and.w	r3, r3, #16777216	; 0x1000000
 800384a:	2b00      	cmp	r3, #0
 800384c:	d025      	beq.n	800389a <DMA_CheckFifoParam+0xde>
 800384e:	2301      	movs	r3, #1
 8003850:	73fb      	strb	r3, [r7, #15]
 8003852:	e022      	b.n	800389a <DMA_CheckFifoParam+0xde>
 8003854:	687b      	ldr	r3, [r7, #4]
 8003856:	6adb      	ldr	r3, [r3, #44]	; 0x2c
 8003858:	f1b3 7fc0 	cmp.w	r3, #25165824	; 0x1800000
 800385c:	d11f      	bne.n	800389e <DMA_CheckFifoParam+0xe2>
 800385e:	2301      	movs	r3, #1
 8003860:	73fb      	strb	r3, [r7, #15]
 8003862:	e01c      	b.n	800389e <DMA_CheckFifoParam+0xe2>
 8003864:	68bb      	ldr	r3, [r7, #8]
 8003866:	2b02      	cmp	r3, #2
 8003868:	d903      	bls.n	8003872 <DMA_CheckFifoParam+0xb6>
 800386a:	68bb      	ldr	r3, [r7, #8]
 800386c:	2b03      	cmp	r3, #3
 800386e:	d003      	beq.n	8003878 <DMA_CheckFifoParam+0xbc>
 8003870:	e018      	b.n	80038a4 <DMA_CheckFifoParam+0xe8>
 8003872:	2301      	movs	r3, #1
 8003874:	73fb      	strb	r3, [r7, #15]
 8003876:	e015      	b.n	80038a4 <DMA_CheckFifoParam+0xe8>
 8003878:	687b      	ldr	r3, [r7, #4]
 800387a:	6adb      	ldr	r3, [r3, #44]	; 0x2c
 800387c:	f003 7380 	and.w	r3, r3, #16777216	; 0x1000000
 8003880:	2b00      	cmp	r3, #0
 8003882:	d00e      	beq.n	80038a2 <DMA_CheckFifoParam+0xe6>
 8003884:	2301      	movs	r3, #1
 8003886:	73fb      	strb	r3, [r7, #15]
 8003888:	e00b      	b.n	80038a2 <DMA_CheckFifoParam+0xe6>
 800388a:	bf00      	nop
 800388c:	e00a      	b.n	80038a4 <DMA_CheckFifoParam+0xe8>
 800388e:	bf00      	nop
 8003890:	e008      	b.n	80038a4 <DMA_CheckFifoParam+0xe8>
 8003892:	bf00      	nop
 8003894:	e006      	b.n	80038a4 <DMA_CheckFifoParam+0xe8>
 8003896:	bf00      	nop
 8003898:	e004      	b.n	80038a4 <DMA_CheckFifoParam+0xe8>
 800389a:	bf00      	nop
 800389c:	e002      	b.n	80038a4 <DMA_CheckFifoParam+0xe8>
 800389e:	bf00      	nop
 80038a0:	e000      	b.n	80038a4 <DMA_CheckFifoParam+0xe8>
 80038a2:	bf00      	nop
 80038a4:	7bfb      	ldrb	r3, [r7, #15]
 80038a6:	4618      	mov	r0, r3
 80038a8:	3714      	adds	r7, #20
 80038aa:	46bd      	mov	sp, r7
 80038ac:	f85d 7b04 	ldr.w	r7, [sp], #4
 80038b0:	4770      	bx	lr
 80038b2:	bf00      	nop

080038b4 <HAL_GPIO_Init>:
 80038b4:	b480      	push	{r7}
 80038b6:	b089      	sub	sp, #36	; 0x24
 80038b8:	af00      	add	r7, sp, #0
 80038ba:	6078      	str	r0, [r7, #4]
 80038bc:	6039      	str	r1, [r7, #0]
 80038be:	2300      	movs	r3, #0
 80038c0:	617b      	str	r3, [r7, #20]
 80038c2:	2300      	movs	r3, #0
 80038c4:	613b      	str	r3, [r7, #16]
 80038c6:	2300      	movs	r3, #0
 80038c8:	61bb      	str	r3, [r7, #24]
 80038ca:	2300      	movs	r3, #0
 80038cc:	61fb      	str	r3, [r7, #28]
 80038ce:	e16b      	b.n	8003ba8 <HAL_GPIO_Init+0x2f4>
 80038d0:	2201      	movs	r2, #1
 80038d2:	69fb      	ldr	r3, [r7, #28]
 80038d4:	fa02 f303 	lsl.w	r3, r2, r3
 80038d8:	617b      	str	r3, [r7, #20]
 80038da:	683b      	ldr	r3, [r7, #0]
 80038dc:	681b      	ldr	r3, [r3, #0]
 80038de:	697a      	ldr	r2, [r7, #20]
 80038e0:	4013      	ands	r3, r2
 80038e2:	613b      	str	r3, [r7, #16]
 80038e4:	693a      	ldr	r2, [r7, #16]
 80038e6:	697b      	ldr	r3, [r7, #20]
 80038e8:	429a      	cmp	r2, r3
 80038ea:	f040 815a 	bne.w	8003ba2 <HAL_GPIO_Init+0x2ee>
 80038ee:	683b      	ldr	r3, [r7, #0]
 80038f0:	685b      	ldr	r3, [r3, #4]
 80038f2:	f003 0303 	and.w	r3, r3, #3
 80038f6:	2b01      	cmp	r3, #1
 80038f8:	d005      	beq.n	8003906 <HAL_GPIO_Init+0x52>
 80038fa:	683b      	ldr	r3, [r7, #0]
 80038fc:	685b      	ldr	r3, [r3, #4]
 80038fe:	f003 0303 	and.w	r3, r3, #3
 8003902:	2b02      	cmp	r3, #2
 8003904:	d130      	bne.n	8003968 <HAL_GPIO_Init+0xb4>
 8003906:	687b      	ldr	r3, [r7, #4]
 8003908:	689b      	ldr	r3, [r3, #8]
 800390a:	61bb      	str	r3, [r7, #24]
 800390c:	69fb      	ldr	r3, [r7, #28]
 800390e:	005b      	lsls	r3, r3, #1
 8003910:	2203      	movs	r2, #3
 8003912:	fa02 f303 	lsl.w	r3, r2, r3
 8003916:	43db      	mvns	r3, r3
 8003918:	69ba      	ldr	r2, [r7, #24]
 800391a:	4013      	ands	r3, r2
 800391c:	61bb      	str	r3, [r7, #24]
 800391e:	683b      	ldr	r3, [r7, #0]
 8003920:	68da      	ldr	r2, [r3, #12]
 8003922:	69fb      	ldr	r3, [r7, #28]
 8003924:	005b      	lsls	r3, r3, #1
 8003926:	fa02 f303 	lsl.w	r3, r2, r3
 800392a:	69ba      	ldr	r2, [r7, #24]
 800392c:	4313      	orrs	r3, r2
 800392e:	61bb      	str	r3, [r7, #24]
 8003930:	687b      	ldr	r3, [r7, #4]
 8003932:	69ba      	ldr	r2, [r7, #24]
 8003934:	609a      	str	r2, [r3, #8]
 8003936:	687b      	ldr	r3, [r7, #4]
 8003938:	685b      	ldr	r3, [r3, #4]
 800393a:	61bb      	str	r3, [r7, #24]
 800393c:	2201      	movs	r2, #1
 800393e:	69fb      	ldr	r3, [r7, #28]
 8003940:	fa02 f303 	lsl.w	r3, r2, r3
 8003944:	43db      	mvns	r3, r3
 8003946:	69ba      	ldr	r2, [r7, #24]
 8003948:	4013      	ands	r3, r2
 800394a:	61bb      	str	r3, [r7, #24]
 800394c:	683b      	ldr	r3, [r7, #0]
 800394e:	685b      	ldr	r3, [r3, #4]
 8003950:	091b      	lsrs	r3, r3, #4
 8003952:	f003 0201 	and.w	r2, r3, #1
 8003956:	69fb      	ldr	r3, [r7, #28]
 8003958:	fa02 f303 	lsl.w	r3, r2, r3
 800395c:	69ba      	ldr	r2, [r7, #24]
 800395e:	4313      	orrs	r3, r2
 8003960:	61bb      	str	r3, [r7, #24]
 8003962:	687b      	ldr	r3, [r7, #4]
 8003964:	69ba      	ldr	r2, [r7, #24]
 8003966:	605a      	str	r2, [r3, #4]
 8003968:	683b      	ldr	r3, [r7, #0]
 800396a:	685b      	ldr	r3, [r3, #4]
 800396c:	f003 0303 	and.w	r3, r3, #3
 8003970:	2b03      	cmp	r3, #3
 8003972:	d017      	beq.n	80039a4 <HAL_GPIO_Init+0xf0>
 8003974:	687b      	ldr	r3, [r7, #4]
 8003976:	68db      	ldr	r3, [r3, #12]
 8003978:	61bb      	str	r3, [r7, #24]
 800397a:	69fb      	ldr	r3, [r7, #28]
 800397c:	005b      	lsls	r3, r3, #1
 800397e:	2203      	movs	r2, #3
 8003980:	fa02 f303 	lsl.w	r3, r2, r3
 8003984:	43db      	mvns	r3, r3
 8003986:	69ba      	ldr	r2, [r7, #24]
 8003988:	4013      	ands	r3, r2
 800398a:	61bb      	str	r3, [r7, #24]
 800398c:	683b      	ldr	r3, [r7, #0]
 800398e:	689a      	ldr	r2, [r3, #8]
 8003990:	69fb      	ldr	r3, [r7, #28]
 8003992:	005b      	lsls	r3, r3, #1
 8003994:	fa02 f303 	lsl.w	r3, r2, r3
 8003998:	69ba      	ldr	r2, [r7, #24]
 800399a:	4313      	orrs	r3, r2
 800399c:	61bb      	str	r3, [r7, #24]
 800399e:	687b      	ldr	r3, [r7, #4]
 80039a0:	69ba      	ldr	r2, [r7, #24]
 80039a2:	60da      	str	r2, [r3, #12]
 80039a4:	683b      	ldr	r3, [r7, #0]
 80039a6:	685b      	ldr	r3, [r3, #4]
 80039a8:	f003 0303 	and.w	r3, r3, #3
 80039ac:	2b02      	cmp	r3, #2
 80039ae:	d123      	bne.n	80039f8 <HAL_GPIO_Init+0x144>
 80039b0:	69fb      	ldr	r3, [r7, #28]
 80039b2:	08da      	lsrs	r2, r3, #3
 80039b4:	687b      	ldr	r3, [r7, #4]
 80039b6:	3208      	adds	r2, #8
 80039b8:	f853 3022 	ldr.w	r3, [r3, r2, lsl #2]
 80039bc:	61bb      	str	r3, [r7, #24]
 80039be:	69fb      	ldr	r3, [r7, #28]
 80039c0:	f003 0307 	and.w	r3, r3, #7
 80039c4:	009b      	lsls	r3, r3, #2
 80039c6:	220f      	movs	r2, #15
 80039c8:	fa02 f303 	lsl.w	r3, r2, r3
 80039cc:	43db      	mvns	r3, r3
 80039ce:	69ba      	ldr	r2, [r7, #24]
 80039d0:	4013      	ands	r3, r2
 80039d2:	61bb      	str	r3, [r7, #24]
 80039d4:	683b      	ldr	r3, [r7, #0]
 80039d6:	691a      	ldr	r2, [r3, #16]
 80039d8:	69fb      	ldr	r3, [r7, #28]
 80039da:	f003 0307 	and.w	r3, r3, #7
 80039de:	009b      	lsls	r3, r3, #2
 80039e0:	fa02 f303 	lsl.w	r3, r2, r3
 80039e4:	69ba      	ldr	r2, [r7, #24]
 80039e6:	4313      	orrs	r3, r2
 80039e8:	61bb      	str	r3, [r7, #24]
 80039ea:	69fb      	ldr	r3, [r7, #28]
 80039ec:	08da      	lsrs	r2, r3, #3
 80039ee:	687b      	ldr	r3, [r7, #4]
 80039f0:	3208      	adds	r2, #8
 80039f2:	69b9      	ldr	r1, [r7, #24]
 80039f4:	f843 1022 	str.w	r1, [r3, r2, lsl #2]
 80039f8:	687b      	ldr	r3, [r7, #4]
 80039fa:	681b      	ldr	r3, [r3, #0]
 80039fc:	61bb      	str	r3, [r7, #24]
 80039fe:	69fb      	ldr	r3, [r7, #28]
 8003a00:	005b      	lsls	r3, r3, #1
 8003a02:	2203      	movs	r2, #3
 8003a04:	fa02 f303 	lsl.w	r3, r2, r3
 8003a08:	43db      	mvns	r3, r3
 8003a0a:	69ba      	ldr	r2, [r7, #24]
 8003a0c:	4013      	ands	r3, r2
 8003a0e:	61bb      	str	r3, [r7, #24]
 8003a10:	683b      	ldr	r3, [r7, #0]
 8003a12:	685b      	ldr	r3, [r3, #4]
 8003a14:	f003 0203 	and.w	r2, r3, #3
 8003a18:	69fb      	ldr	r3, [r7, #28]
 8003a1a:	005b      	lsls	r3, r3, #1
 8003a1c:	fa02 f303 	lsl.w	r3, r2, r3
 8003a20:	69ba      	ldr	r2, [r7, #24]
 8003a22:	4313      	orrs	r3, r2
 8003a24:	61bb      	str	r3, [r7, #24]
 8003a26:	687b      	ldr	r3, [r7, #4]
 8003a28:	69ba      	ldr	r2, [r7, #24]
 8003a2a:	601a      	str	r2, [r3, #0]
 8003a2c:	683b      	ldr	r3, [r7, #0]
 8003a2e:	685b      	ldr	r3, [r3, #4]
 8003a30:	f403 3340 	and.w	r3, r3, #196608	; 0x30000
 8003a34:	2b00      	cmp	r3, #0
 8003a36:	f000 80b4 	beq.w	8003ba2 <HAL_GPIO_Init+0x2ee>
 8003a3a:	2300      	movs	r3, #0
 8003a3c:	60fb      	str	r3, [r7, #12]
 8003a3e:	4b60      	ldr	r3, [pc, #384]	; (8003bc0 <HAL_GPIO_Init+0x30c>)
 8003a40:	6c5b      	ldr	r3, [r3, #68]	; 0x44
 8003a42:	4a5f      	ldr	r2, [pc, #380]	; (8003bc0 <HAL_GPIO_Init+0x30c>)
 8003a44:	f443 4380 	orr.w	r3, r3, #16384	; 0x4000
 8003a48:	6453      	str	r3, [r2, #68]	; 0x44
 8003a4a:	4b5d      	ldr	r3, [pc, #372]	; (8003bc0 <HAL_GPIO_Init+0x30c>)
 8003a4c:	6c5b      	ldr	r3, [r3, #68]	; 0x44
 8003a4e:	f403 4380 	and.w	r3, r3, #16384	; 0x4000
 8003a52:	60fb      	str	r3, [r7, #12]
 8003a54:	68fb      	ldr	r3, [r7, #12]
 8003a56:	4a5b      	ldr	r2, [pc, #364]	; (8003bc4 <HAL_GPIO_Init+0x310>)
 8003a58:	69fb      	ldr	r3, [r7, #28]
 8003a5a:	089b      	lsrs	r3, r3, #2
 8003a5c:	3302      	adds	r3, #2
 8003a5e:	f852 3023 	ldr.w	r3, [r2, r3, lsl #2]
 8003a62:	61bb      	str	r3, [r7, #24]
 8003a64:	69fb      	ldr	r3, [r7, #28]
 8003a66:	f003 0303 	and.w	r3, r3, #3
 8003a6a:	009b      	lsls	r3, r3, #2
 8003a6c:	220f      	movs	r2, #15
 8003a6e:	fa02 f303 	lsl.w	r3, r2, r3
 8003a72:	43db      	mvns	r3, r3
 8003a74:	69ba      	ldr	r2, [r7, #24]
 8003a76:	4013      	ands	r3, r2
 8003a78:	61bb      	str	r3, [r7, #24]
 8003a7a:	687b      	ldr	r3, [r7, #4]
 8003a7c:	4a52      	ldr	r2, [pc, #328]	; (8003bc8 <HAL_GPIO_Init+0x314>)
 8003a7e:	4293      	cmp	r3, r2
 8003a80:	d02b      	beq.n	8003ada <HAL_GPIO_Init+0x226>
 8003a82:	687b      	ldr	r3, [r7, #4]
 8003a84:	4a51      	ldr	r2, [pc, #324]	; (8003bcc <HAL_GPIO_Init+0x318>)
 8003a86:	4293      	cmp	r3, r2
 8003a88:	d025      	beq.n	8003ad6 <HAL_GPIO_Init+0x222>
 8003a8a:	687b      	ldr	r3, [r7, #4]
 8003a8c:	4a50      	ldr	r2, [pc, #320]	; (8003bd0 <HAL_GPIO_Init+0x31c>)
 8003a8e:	4293      	cmp	r3, r2
 8003a90:	d01f      	beq.n	8003ad2 <HAL_GPIO_Init+0x21e>
 8003a92:	687b      	ldr	r3, [r7, #4]
 8003a94:	4a4f      	ldr	r2, [pc, #316]	; (8003bd4 <HAL_GPIO_Init+0x320>)
 8003a96:	4293      	cmp	r3, r2
 8003a98:	d019      	beq.n	8003ace <HAL_GPIO_Init+0x21a>
 8003a9a:	687b      	ldr	r3, [r7, #4]
 8003a9c:	4a4e      	ldr	r2, [pc, #312]	; (8003bd8 <HAL_GPIO_Init+0x324>)
 8003a9e:	4293      	cmp	r3, r2
 8003aa0:	d013      	beq.n	8003aca <HAL_GPIO_Init+0x216>
 8003aa2:	687b      	ldr	r3, [r7, #4]
 8003aa4:	4a4d      	ldr	r2, [pc, #308]	; (8003bdc <HAL_GPIO_Init+0x328>)
 8003aa6:	4293      	cmp	r3, r2
 8003aa8:	d00d      	beq.n	8003ac6 <HAL_GPIO_Init+0x212>
 8003aaa:	687b      	ldr	r3, [r7, #4]
 8003aac:	4a4c      	ldr	r2, [pc, #304]	; (8003be0 <HAL_GPIO_Init+0x32c>)
 8003aae:	4293      	cmp	r3, r2
 8003ab0:	d007      	beq.n	8003ac2 <HAL_GPIO_Init+0x20e>
 8003ab2:	687b      	ldr	r3, [r7, #4]
 8003ab4:	4a4b      	ldr	r2, [pc, #300]	; (8003be4 <HAL_GPIO_Init+0x330>)
 8003ab6:	4293      	cmp	r3, r2
 8003ab8:	d101      	bne.n	8003abe <HAL_GPIO_Init+0x20a>
 8003aba:	2307      	movs	r3, #7
 8003abc:	e00e      	b.n	8003adc <HAL_GPIO_Init+0x228>
 8003abe:	2308      	movs	r3, #8
 8003ac0:	e00c      	b.n	8003adc <HAL_GPIO_Init+0x228>
 8003ac2:	2306      	movs	r3, #6
 8003ac4:	e00a      	b.n	8003adc <HAL_GPIO_Init+0x228>
 8003ac6:	2305      	movs	r3, #5
 8003ac8:	e008      	b.n	8003adc <HAL_GPIO_Init+0x228>
 8003aca:	2304      	movs	r3, #4
 8003acc:	e006      	b.n	8003adc <HAL_GPIO_Init+0x228>
 8003ace:	2303      	movs	r3, #3
 8003ad0:	e004      	b.n	8003adc <HAL_GPIO_Init+0x228>
 8003ad2:	2302      	movs	r3, #2
 8003ad4:	e002      	b.n	8003adc <HAL_GPIO_Init+0x228>
 8003ad6:	2301      	movs	r3, #1
 8003ad8:	e000      	b.n	8003adc <HAL_GPIO_Init+0x228>
 8003ada:	2300      	movs	r3, #0
 8003adc:	69fa      	ldr	r2, [r7, #28]
 8003ade:	f002 0203 	and.w	r2, r2, #3
 8003ae2:	0092      	lsls	r2, r2, #2
 8003ae4:	4093      	lsls	r3, r2
 8003ae6:	69ba      	ldr	r2, [r7, #24]
 8003ae8:	4313      	orrs	r3, r2
 8003aea:	61bb      	str	r3, [r7, #24]
 8003aec:	4935      	ldr	r1, [pc, #212]	; (8003bc4 <HAL_GPIO_Init+0x310>)
 8003aee:	69fb      	ldr	r3, [r7, #28]
 8003af0:	089b      	lsrs	r3, r3, #2
 8003af2:	3302      	adds	r3, #2
 8003af4:	69ba      	ldr	r2, [r7, #24]
 8003af6:	f841 2023 	str.w	r2, [r1, r3, lsl #2]
 8003afa:	4b3b      	ldr	r3, [pc, #236]	; (8003be8 <HAL_GPIO_Init+0x334>)
 8003afc:	689b      	ldr	r3, [r3, #8]
 8003afe:	61bb      	str	r3, [r7, #24]
 8003b00:	693b      	ldr	r3, [r7, #16]
 8003b02:	43db      	mvns	r3, r3
 8003b04:	69ba      	ldr	r2, [r7, #24]
 8003b06:	4013      	ands	r3, r2
 8003b08:	61bb      	str	r3, [r7, #24]
 8003b0a:	683b      	ldr	r3, [r7, #0]
 8003b0c:	685b      	ldr	r3, [r3, #4]
 8003b0e:	f403 1380 	and.w	r3, r3, #1048576	; 0x100000
 8003b12:	2b00      	cmp	r3, #0
 8003b14:	d003      	beq.n	8003b1e <HAL_GPIO_Init+0x26a>
 8003b16:	69ba      	ldr	r2, [r7, #24]
 8003b18:	693b      	ldr	r3, [r7, #16]
 8003b1a:	4313      	orrs	r3, r2
 8003b1c:	61bb      	str	r3, [r7, #24]
 8003b1e:	4a32      	ldr	r2, [pc, #200]	; (8003be8 <HAL_GPIO_Init+0x334>)
 8003b20:	69bb      	ldr	r3, [r7, #24]
 8003b22:	6093      	str	r3, [r2, #8]
 8003b24:	4b30      	ldr	r3, [pc, #192]	; (8003be8 <HAL_GPIO_Init+0x334>)
 8003b26:	68db      	ldr	r3, [r3, #12]
 8003b28:	61bb      	str	r3, [r7, #24]
 8003b2a:	693b      	ldr	r3, [r7, #16]
 8003b2c:	43db      	mvns	r3, r3
 8003b2e:	69ba      	ldr	r2, [r7, #24]
 8003b30:	4013      	ands	r3, r2
 8003b32:	61bb      	str	r3, [r7, #24]
 8003b34:	683b      	ldr	r3, [r7, #0]
 8003b36:	685b      	ldr	r3, [r3, #4]
 8003b38:	f403 1300 	and.w	r3, r3, #2097152	; 0x200000
 8003b3c:	2b00      	cmp	r3, #0
 8003b3e:	d003      	beq.n	8003b48 <HAL_GPIO_Init+0x294>
 8003b40:	69ba      	ldr	r2, [r7, #24]
 8003b42:	693b      	ldr	r3, [r7, #16]
 8003b44:	4313      	orrs	r3, r2
 8003b46:	61bb      	str	r3, [r7, #24]
 8003b48:	4a27      	ldr	r2, [pc, #156]	; (8003be8 <HAL_GPIO_Init+0x334>)
 8003b4a:	69bb      	ldr	r3, [r7, #24]
 8003b4c:	60d3      	str	r3, [r2, #12]
 8003b4e:	4b26      	ldr	r3, [pc, #152]	; (8003be8 <HAL_GPIO_Init+0x334>)
 8003b50:	685b      	ldr	r3, [r3, #4]
 8003b52:	61bb      	str	r3, [r7, #24]
 8003b54:	693b      	ldr	r3, [r7, #16]
 8003b56:	43db      	mvns	r3, r3
 8003b58:	69ba      	ldr	r2, [r7, #24]
 8003b5a:	4013      	ands	r3, r2
 8003b5c:	61bb      	str	r3, [r7, #24]
 8003b5e:	683b      	ldr	r3, [r7, #0]
 8003b60:	685b      	ldr	r3, [r3, #4]
 8003b62:	f403 3300 	and.w	r3, r3, #131072	; 0x20000
 8003b66:	2b00      	cmp	r3, #0
 8003b68:	d003      	beq.n	8003b72 <HAL_GPIO_Init+0x2be>
 8003b6a:	69ba      	ldr	r2, [r7, #24]
 8003b6c:	693b      	ldr	r3, [r7, #16]
 8003b6e:	4313      	orrs	r3, r2
 8003b70:	61bb      	str	r3, [r7, #24]
 8003b72:	4a1d      	ldr	r2, [pc, #116]	; (8003be8 <HAL_GPIO_Init+0x334>)
 8003b74:	69bb      	ldr	r3, [r7, #24]
 8003b76:	6053      	str	r3, [r2, #4]
 8003b78:	4b1b      	ldr	r3, [pc, #108]	; (8003be8 <HAL_GPIO_Init+0x334>)
 8003b7a:	681b      	ldr	r3, [r3, #0]
 8003b7c:	61bb      	str	r3, [r7, #24]
 8003b7e:	693b      	ldr	r3, [r7, #16]
 8003b80:	43db      	mvns	r3, r3
 8003b82:	69ba      	ldr	r2, [r7, #24]
 8003b84:	4013      	ands	r3, r2
 8003b86:	61bb      	str	r3, [r7, #24]
 8003b88:	683b      	ldr	r3, [r7, #0]
 8003b8a:	685b      	ldr	r3, [r3, #4]
 8003b8c:	f403 3380 	and.w	r3, r3, #65536	; 0x10000
 8003b90:	2b00      	cmp	r3, #0
 8003b92:	d003      	beq.n	8003b9c <HAL_GPIO_Init+0x2e8>
 8003b94:	69ba      	ldr	r2, [r7, #24]
 8003b96:	693b      	ldr	r3, [r7, #16]
 8003b98:	4313      	orrs	r3, r2
 8003b9a:	61bb      	str	r3, [r7, #24]
 8003b9c:	4a12      	ldr	r2, [pc, #72]	; (8003be8 <HAL_GPIO_Init+0x334>)
 8003b9e:	69bb      	ldr	r3, [r7, #24]
 8003ba0:	6013      	str	r3, [r2, #0]
 8003ba2:	69fb      	ldr	r3, [r7, #28]
 8003ba4:	3301      	adds	r3, #1
 8003ba6:	61fb      	str	r3, [r7, #28]
 8003ba8:	69fb      	ldr	r3, [r7, #28]
 8003baa:	2b0f      	cmp	r3, #15
 8003bac:	f67f ae90 	bls.w	80038d0 <HAL_GPIO_Init+0x1c>
 8003bb0:	bf00      	nop
 8003bb2:	bf00      	nop
 8003bb4:	3724      	adds	r7, #36	; 0x24
 8003bb6:	46bd      	mov	sp, r7
 8003bb8:	f85d 7b04 	ldr.w	r7, [sp], #4
 8003bbc:	4770      	bx	lr
 8003bbe:	bf00      	nop
 8003bc0:	40023800 	.word	0x40023800
 8003bc4:	40013800 	.word	0x40013800
 8003bc8:	40020000 	.word	0x40020000
 8003bcc:	40020400 	.word	0x40020400
 8003bd0:	40020800 	.word	0x40020800
 8003bd4:	40020c00 	.word	0x40020c00
 8003bd8:	40021000 	.word	0x40021000
 8003bdc:	40021400 	.word	0x40021400
 8003be0:	40021800 	.word	0x40021800
 8003be4:	40021c00 	.word	0x40021c00
 8003be8:	40013c00 	.word	0x40013c00

08003bec <HAL_GPIO_ReadPin>:
 8003bec:	b480      	push	{r7}
 8003bee:	b085      	sub	sp, #20
 8003bf0:	af00      	add	r7, sp, #0
 8003bf2:	6078      	str	r0, [r7, #4]
 8003bf4:	460b      	mov	r3, r1
 8003bf6:	807b      	strh	r3, [r7, #2]
 8003bf8:	687b      	ldr	r3, [r7, #4]
 8003bfa:	691a      	ldr	r2, [r3, #16]
 8003bfc:	887b      	ldrh	r3, [r7, #2]
 8003bfe:	4013      	ands	r3, r2
 8003c00:	2b00      	cmp	r3, #0
 8003c02:	d002      	beq.n	8003c0a <HAL_GPIO_ReadPin+0x1e>
 8003c04:	2301      	movs	r3, #1
 8003c06:	73fb      	strb	r3, [r7, #15]
 8003c08:	e001      	b.n	8003c0e <HAL_GPIO_ReadPin+0x22>
 8003c0a:	2300      	movs	r3, #0
 8003c0c:	73fb      	strb	r3, [r7, #15]
 8003c0e:	7bfb      	ldrb	r3, [r7, #15]
 8003c10:	4618      	mov	r0, r3
 8003c12:	3714      	adds	r7, #20
 8003c14:	46bd      	mov	sp, r7
 8003c16:	f85d 7b04 	ldr.w	r7, [sp], #4
 8003c1a:	4770      	bx	lr

08003c1c <HAL_GPIO_WritePin>:
 8003c1c:	b480      	push	{r7}
 8003c1e:	b083      	sub	sp, #12
 8003c20:	af00      	add	r7, sp, #0
 8003c22:	6078      	str	r0, [r7, #4]
 8003c24:	460b      	mov	r3, r1
 8003c26:	807b      	strh	r3, [r7, #2]
 8003c28:	4613      	mov	r3, r2
 8003c2a:	707b      	strb	r3, [r7, #1]
 8003c2c:	787b      	ldrb	r3, [r7, #1]
 8003c2e:	2b00      	cmp	r3, #0
 8003c30:	d003      	beq.n	8003c3a <HAL_GPIO_WritePin+0x1e>
 8003c32:	887a      	ldrh	r2, [r7, #2]
 8003c34:	687b      	ldr	r3, [r7, #4]
 8003c36:	619a      	str	r2, [r3, #24]
 8003c38:	e003      	b.n	8003c42 <HAL_GPIO_WritePin+0x26>
 8003c3a:	887b      	ldrh	r3, [r7, #2]
 8003c3c:	041a      	lsls	r2, r3, #16
 8003c3e:	687b      	ldr	r3, [r7, #4]
 8003c40:	619a      	str	r2, [r3, #24]
 8003c42:	bf00      	nop
 8003c44:	370c      	adds	r7, #12
 8003c46:	46bd      	mov	sp, r7
 8003c48:	f85d 7b04 	ldr.w	r7, [sp], #4
 8003c4c:	4770      	bx	lr

08003c4e <HAL_GPIO_TogglePin>:
 8003c4e:	b480      	push	{r7}
 8003c50:	b085      	sub	sp, #20
 8003c52:	af00      	add	r7, sp, #0
 8003c54:	6078      	str	r0, [r7, #4]
 8003c56:	460b      	mov	r3, r1
 8003c58:	807b      	strh	r3, [r7, #2]
 8003c5a:	687b      	ldr	r3, [r7, #4]
 8003c5c:	695b      	ldr	r3, [r3, #20]
 8003c5e:	60fb      	str	r3, [r7, #12]
 8003c60:	887a      	ldrh	r2, [r7, #2]
 8003c62:	68fb      	ldr	r3, [r7, #12]
 8003c64:	4013      	ands	r3, r2
 8003c66:	041a      	lsls	r2, r3, #16
 8003c68:	68fb      	ldr	r3, [r7, #12]
 8003c6a:	43d9      	mvns	r1, r3
 8003c6c:	887b      	ldrh	r3, [r7, #2]
 8003c6e:	400b      	ands	r3, r1
 8003c70:	431a      	orrs	r2, r3
 8003c72:	687b      	ldr	r3, [r7, #4]
 8003c74:	619a      	str	r2, [r3, #24]
 8003c76:	bf00      	nop
 8003c78:	3714      	adds	r7, #20
 8003c7a:	46bd      	mov	sp, r7
 8003c7c:	f85d 7b04 	ldr.w	r7, [sp], #4
 8003c80:	4770      	bx	lr
	...

08003c84 <HAL_I2C_Init>:
 8003c84:	b580      	push	{r7, lr}
 8003c86:	b084      	sub	sp, #16
 8003c88:	af00      	add	r7, sp, #0
 8003c8a:	6078      	str	r0, [r7, #4]
 8003c8c:	687b      	ldr	r3, [r7, #4]
 8003c8e:	2b00      	cmp	r3, #0
 8003c90:	d101      	bne.n	8003c96 <HAL_I2C_Init+0x12>
 8003c92:	2301      	movs	r3, #1
 8003c94:	e12b      	b.n	8003eee <HAL_I2C_Init+0x26a>
 8003c96:	687b      	ldr	r3, [r7, #4]
 8003c98:	f893 303d 	ldrb.w	r3, [r3, #61]	; 0x3d
 8003c9c:	b2db      	uxtb	r3, r3
 8003c9e:	2b00      	cmp	r3, #0
 8003ca0:	d106      	bne.n	8003cb0 <HAL_I2C_Init+0x2c>
 8003ca2:	687b      	ldr	r3, [r7, #4]
 8003ca4:	2200      	movs	r2, #0
 8003ca6:	f883 203c 	strb.w	r2, [r3, #60]	; 0x3c
 8003caa:	6878      	ldr	r0, [r7, #4]
 8003cac:	f7fd f96c 	bl	8000f88 <HAL_I2C_MspInit>
 8003cb0:	687b      	ldr	r3, [r7, #4]
 8003cb2:	2224      	movs	r2, #36	; 0x24
 8003cb4:	f883 203d 	strb.w	r2, [r3, #61]	; 0x3d
 8003cb8:	687b      	ldr	r3, [r7, #4]
 8003cba:	681b      	ldr	r3, [r3, #0]
 8003cbc:	681a      	ldr	r2, [r3, #0]
 8003cbe:	687b      	ldr	r3, [r7, #4]
 8003cc0:	681b      	ldr	r3, [r3, #0]
 8003cc2:	f022 0201 	bic.w	r2, r2, #1
 8003cc6:	601a      	str	r2, [r3, #0]
 8003cc8:	687b      	ldr	r3, [r7, #4]
 8003cca:	681b      	ldr	r3, [r3, #0]
 8003ccc:	681a      	ldr	r2, [r3, #0]
 8003cce:	687b      	ldr	r3, [r7, #4]
 8003cd0:	681b      	ldr	r3, [r3, #0]
 8003cd2:	f442 4200 	orr.w	r2, r2, #32768	; 0x8000
 8003cd6:	601a      	str	r2, [r3, #0]
 8003cd8:	687b      	ldr	r3, [r7, #4]
 8003cda:	681b      	ldr	r3, [r3, #0]
 8003cdc:	681a      	ldr	r2, [r3, #0]
 8003cde:	687b      	ldr	r3, [r7, #4]
 8003ce0:	681b      	ldr	r3, [r3, #0]
 8003ce2:	f422 4200 	bic.w	r2, r2, #32768	; 0x8000
 8003ce6:	601a      	str	r2, [r3, #0]
 8003ce8:	f000 fd80 	bl	80047ec <HAL_RCC_GetPCLK1Freq>
 8003cec:	60f8      	str	r0, [r7, #12]
 8003cee:	687b      	ldr	r3, [r7, #4]
 8003cf0:	685b      	ldr	r3, [r3, #4]
 8003cf2:	4a81      	ldr	r2, [pc, #516]	; (8003ef8 <HAL_I2C_Init+0x274>)
 8003cf4:	4293      	cmp	r3, r2
 8003cf6:	d807      	bhi.n	8003d08 <HAL_I2C_Init+0x84>
 8003cf8:	68fb      	ldr	r3, [r7, #12]
 8003cfa:	4a80      	ldr	r2, [pc, #512]	; (8003efc <HAL_I2C_Init+0x278>)
 8003cfc:	4293      	cmp	r3, r2
 8003cfe:	bf94      	ite	ls
 8003d00:	2301      	movls	r3, #1
 8003d02:	2300      	movhi	r3, #0
 8003d04:	b2db      	uxtb	r3, r3
 8003d06:	e006      	b.n	8003d16 <HAL_I2C_Init+0x92>
 8003d08:	68fb      	ldr	r3, [r7, #12]
 8003d0a:	4a7d      	ldr	r2, [pc, #500]	; (8003f00 <HAL_I2C_Init+0x27c>)
 8003d0c:	4293      	cmp	r3, r2
 8003d0e:	bf94      	ite	ls
 8003d10:	2301      	movls	r3, #1
 8003d12:	2300      	movhi	r3, #0
 8003d14:	b2db      	uxtb	r3, r3
 8003d16:	2b00      	cmp	r3, #0
 8003d18:	d001      	beq.n	8003d1e <HAL_I2C_Init+0x9a>
 8003d1a:	2301      	movs	r3, #1
 8003d1c:	e0e7      	b.n	8003eee <HAL_I2C_Init+0x26a>
 8003d1e:	68fb      	ldr	r3, [r7, #12]
 8003d20:	4a78      	ldr	r2, [pc, #480]	; (8003f04 <HAL_I2C_Init+0x280>)
 8003d22:	fba2 2303 	umull	r2, r3, r2, r3
 8003d26:	0c9b      	lsrs	r3, r3, #18
 8003d28:	60bb      	str	r3, [r7, #8]
 8003d2a:	687b      	ldr	r3, [r7, #4]
 8003d2c:	681b      	ldr	r3, [r3, #0]
 8003d2e:	685b      	ldr	r3, [r3, #4]
 8003d30:	f023 013f 	bic.w	r1, r3, #63	; 0x3f
 8003d34:	687b      	ldr	r3, [r7, #4]
 8003d36:	681b      	ldr	r3, [r3, #0]
 8003d38:	68ba      	ldr	r2, [r7, #8]
 8003d3a:	430a      	orrs	r2, r1
 8003d3c:	605a      	str	r2, [r3, #4]
 8003d3e:	687b      	ldr	r3, [r7, #4]
 8003d40:	681b      	ldr	r3, [r3, #0]
 8003d42:	6a1b      	ldr	r3, [r3, #32]
 8003d44:	f023 013f 	bic.w	r1, r3, #63	; 0x3f
 8003d48:	687b      	ldr	r3, [r7, #4]
 8003d4a:	685b      	ldr	r3, [r3, #4]
 8003d4c:	4a6a      	ldr	r2, [pc, #424]	; (8003ef8 <HAL_I2C_Init+0x274>)
 8003d4e:	4293      	cmp	r3, r2
 8003d50:	d802      	bhi.n	8003d58 <HAL_I2C_Init+0xd4>
 8003d52:	68bb      	ldr	r3, [r7, #8]
 8003d54:	3301      	adds	r3, #1
 8003d56:	e009      	b.n	8003d6c <HAL_I2C_Init+0xe8>
 8003d58:	68bb      	ldr	r3, [r7, #8]
 8003d5a:	f44f 7296 	mov.w	r2, #300	; 0x12c
 8003d5e:	fb02 f303 	mul.w	r3, r2, r3
 8003d62:	4a69      	ldr	r2, [pc, #420]	; (8003f08 <HAL_I2C_Init+0x284>)
 8003d64:	fba2 2303 	umull	r2, r3, r2, r3
 8003d68:	099b      	lsrs	r3, r3, #6
 8003d6a:	3301      	adds	r3, #1
 8003d6c:	687a      	ldr	r2, [r7, #4]
 8003d6e:	6812      	ldr	r2, [r2, #0]
 8003d70:	430b      	orrs	r3, r1
 8003d72:	6213      	str	r3, [r2, #32]
 8003d74:	687b      	ldr	r3, [r7, #4]
 8003d76:	681b      	ldr	r3, [r3, #0]
 8003d78:	69db      	ldr	r3, [r3, #28]
 8003d7a:	f423 424f 	bic.w	r2, r3, #52992	; 0xcf00
 8003d7e:	f022 02ff 	bic.w	r2, r2, #255	; 0xff
 8003d82:	687b      	ldr	r3, [r7, #4]
 8003d84:	685b      	ldr	r3, [r3, #4]
 8003d86:	495c      	ldr	r1, [pc, #368]	; (8003ef8 <HAL_I2C_Init+0x274>)
 8003d88:	428b      	cmp	r3, r1
 8003d8a:	d819      	bhi.n	8003dc0 <HAL_I2C_Init+0x13c>
 8003d8c:	68fb      	ldr	r3, [r7, #12]
 8003d8e:	1e59      	subs	r1, r3, #1
 8003d90:	687b      	ldr	r3, [r7, #4]
 8003d92:	685b      	ldr	r3, [r3, #4]
 8003d94:	005b      	lsls	r3, r3, #1
 8003d96:	fbb1 f3f3 	udiv	r3, r1, r3
 8003d9a:	1c59      	adds	r1, r3, #1
 8003d9c:	f640 73fc 	movw	r3, #4092	; 0xffc
 8003da0:	400b      	ands	r3, r1
 8003da2:	2b00      	cmp	r3, #0
 8003da4:	d00a      	beq.n	8003dbc <HAL_I2C_Init+0x138>
 8003da6:	68fb      	ldr	r3, [r7, #12]
 8003da8:	1e59      	subs	r1, r3, #1
 8003daa:	687b      	ldr	r3, [r7, #4]
 8003dac:	685b      	ldr	r3, [r3, #4]
 8003dae:	005b      	lsls	r3, r3, #1
 8003db0:	fbb1 f3f3 	udiv	r3, r1, r3
 8003db4:	3301      	adds	r3, #1
 8003db6:	f3c3 030b 	ubfx	r3, r3, #0, #12
 8003dba:	e051      	b.n	8003e60 <HAL_I2C_Init+0x1dc>
 8003dbc:	2304      	movs	r3, #4
 8003dbe:	e04f      	b.n	8003e60 <HAL_I2C_Init+0x1dc>
 8003dc0:	687b      	ldr	r3, [r7, #4]
 8003dc2:	689b      	ldr	r3, [r3, #8]
 8003dc4:	2b00      	cmp	r3, #0
 8003dc6:	d111      	bne.n	8003dec <HAL_I2C_Init+0x168>
 8003dc8:	68fb      	ldr	r3, [r7, #12]
 8003dca:	1e58      	subs	r0, r3, #1
 8003dcc:	687b      	ldr	r3, [r7, #4]
 8003dce:	6859      	ldr	r1, [r3, #4]
 8003dd0:	460b      	mov	r3, r1
 8003dd2:	005b      	lsls	r3, r3, #1
 8003dd4:	440b      	add	r3, r1
 8003dd6:	fbb0 f3f3 	udiv	r3, r0, r3
 8003dda:	3301      	adds	r3, #1
 8003ddc:	f3c3 030b 	ubfx	r3, r3, #0, #12
 8003de0:	2b00      	cmp	r3, #0
 8003de2:	bf0c      	ite	eq
 8003de4:	2301      	moveq	r3, #1
 8003de6:	2300      	movne	r3, #0
 8003de8:	b2db      	uxtb	r3, r3
 8003dea:	e012      	b.n	8003e12 <HAL_I2C_Init+0x18e>
 8003dec:	68fb      	ldr	r3, [r7, #12]
 8003dee:	1e58      	subs	r0, r3, #1
 8003df0:	687b      	ldr	r3, [r7, #4]
 8003df2:	6859      	ldr	r1, [r3, #4]
 8003df4:	460b      	mov	r3, r1
 8003df6:	009b      	lsls	r3, r3, #2
 8003df8:	440b      	add	r3, r1
 8003dfa:	0099      	lsls	r1, r3, #2
 8003dfc:	440b      	add	r3, r1
 8003dfe:	fbb0 f3f3 	udiv	r3, r0, r3
 8003e02:	3301      	adds	r3, #1
 8003e04:	f3c3 030b 	ubfx	r3, r3, #0, #12
 8003e08:	2b00      	cmp	r3, #0
 8003e0a:	bf0c      	ite	eq
 8003e0c:	2301      	moveq	r3, #1
 8003e0e:	2300      	movne	r3, #0
 8003e10:	b2db      	uxtb	r3, r3
 8003e12:	2b00      	cmp	r3, #0
 8003e14:	d001      	beq.n	8003e1a <HAL_I2C_Init+0x196>
 8003e16:	2301      	movs	r3, #1
 8003e18:	e022      	b.n	8003e60 <HAL_I2C_Init+0x1dc>
 8003e1a:	687b      	ldr	r3, [r7, #4]
 8003e1c:	689b      	ldr	r3, [r3, #8]
 8003e1e:	2b00      	cmp	r3, #0
 8003e20:	d10e      	bne.n	8003e40 <HAL_I2C_Init+0x1bc>
 8003e22:	68fb      	ldr	r3, [r7, #12]
 8003e24:	1e58      	subs	r0, r3, #1
 8003e26:	687b      	ldr	r3, [r7, #4]
 8003e28:	6859      	ldr	r1, [r3, #4]
 8003e2a:	460b      	mov	r3, r1
 8003e2c:	005b      	lsls	r3, r3, #1
 8003e2e:	440b      	add	r3, r1
 8003e30:	fbb0 f3f3 	udiv	r3, r0, r3
 8003e34:	3301      	adds	r3, #1
 8003e36:	f3c3 030b 	ubfx	r3, r3, #0, #12
 8003e3a:	f443 4300 	orr.w	r3, r3, #32768	; 0x8000
 8003e3e:	e00f      	b.n	8003e60 <HAL_I2C_Init+0x1dc>
 8003e40:	68fb      	ldr	r3, [r7, #12]
 8003e42:	1e58      	subs	r0, r3, #1
 8003e44:	687b      	ldr	r3, [r7, #4]
 8003e46:	6859      	ldr	r1, [r3, #4]
 8003e48:	460b      	mov	r3, r1
 8003e4a:	009b      	lsls	r3, r3, #2
 8003e4c:	440b      	add	r3, r1
 8003e4e:	0099      	lsls	r1, r3, #2
 8003e50:	440b      	add	r3, r1
 8003e52:	fbb0 f3f3 	udiv	r3, r0, r3
 8003e56:	3301      	adds	r3, #1
 8003e58:	f3c3 030b 	ubfx	r3, r3, #0, #12
 8003e5c:	f443 4340 	orr.w	r3, r3, #49152	; 0xc000
 8003e60:	6879      	ldr	r1, [r7, #4]
 8003e62:	6809      	ldr	r1, [r1, #0]
 8003e64:	4313      	orrs	r3, r2
 8003e66:	61cb      	str	r3, [r1, #28]
 8003e68:	687b      	ldr	r3, [r7, #4]
 8003e6a:	681b      	ldr	r3, [r3, #0]
 8003e6c:	681b      	ldr	r3, [r3, #0]
 8003e6e:	f023 01c0 	bic.w	r1, r3, #192	; 0xc0
 8003e72:	687b      	ldr	r3, [r7, #4]
 8003e74:	69da      	ldr	r2, [r3, #28]
 8003e76:	687b      	ldr	r3, [r7, #4]
 8003e78:	6a1b      	ldr	r3, [r3, #32]
 8003e7a:	431a      	orrs	r2, r3
 8003e7c:	687b      	ldr	r3, [r7, #4]
 8003e7e:	681b      	ldr	r3, [r3, #0]
 8003e80:	430a      	orrs	r2, r1
 8003e82:	601a      	str	r2, [r3, #0]
 8003e84:	687b      	ldr	r3, [r7, #4]
 8003e86:	681b      	ldr	r3, [r3, #0]
 8003e88:	689b      	ldr	r3, [r3, #8]
 8003e8a:	f423 4303 	bic.w	r3, r3, #33536	; 0x8300
 8003e8e:	f023 03ff 	bic.w	r3, r3, #255	; 0xff
 8003e92:	687a      	ldr	r2, [r7, #4]
 8003e94:	6911      	ldr	r1, [r2, #16]
 8003e96:	687a      	ldr	r2, [r7, #4]
 8003e98:	68d2      	ldr	r2, [r2, #12]
 8003e9a:	4311      	orrs	r1, r2
 8003e9c:	687a      	ldr	r2, [r7, #4]
 8003e9e:	6812      	ldr	r2, [r2, #0]
 8003ea0:	430b      	orrs	r3, r1
 8003ea2:	6093      	str	r3, [r2, #8]
 8003ea4:	687b      	ldr	r3, [r7, #4]
 8003ea6:	681b      	ldr	r3, [r3, #0]
 8003ea8:	68db      	ldr	r3, [r3, #12]
 8003eaa:	f023 01ff 	bic.w	r1, r3, #255	; 0xff
 8003eae:	687b      	ldr	r3, [r7, #4]
 8003eb0:	695a      	ldr	r2, [r3, #20]
 8003eb2:	687b      	ldr	r3, [r7, #4]
 8003eb4:	699b      	ldr	r3, [r3, #24]
 8003eb6:	431a      	orrs	r2, r3
 8003eb8:	687b      	ldr	r3, [r7, #4]
 8003eba:	681b      	ldr	r3, [r3, #0]
 8003ebc:	430a      	orrs	r2, r1
 8003ebe:	60da      	str	r2, [r3, #12]
 8003ec0:	687b      	ldr	r3, [r7, #4]
 8003ec2:	681b      	ldr	r3, [r3, #0]
 8003ec4:	681a      	ldr	r2, [r3, #0]
 8003ec6:	687b      	ldr	r3, [r7, #4]
 8003ec8:	681b      	ldr	r3, [r3, #0]
 8003eca:	f042 0201 	orr.w	r2, r2, #1
 8003ece:	601a      	str	r2, [r3, #0]
 8003ed0:	687b      	ldr	r3, [r7, #4]
 8003ed2:	2200      	movs	r2, #0
 8003ed4:	641a      	str	r2, [r3, #64]	; 0x40
 8003ed6:	687b      	ldr	r3, [r7, #4]
 8003ed8:	2220      	movs	r2, #32
 8003eda:	f883 203d 	strb.w	r2, [r3, #61]	; 0x3d
 8003ede:	687b      	ldr	r3, [r7, #4]
 8003ee0:	2200      	movs	r2, #0
 8003ee2:	631a      	str	r2, [r3, #48]	; 0x30
 8003ee4:	687b      	ldr	r3, [r7, #4]
 8003ee6:	2200      	movs	r2, #0
 8003ee8:	f883 203e 	strb.w	r2, [r3, #62]	; 0x3e
 8003eec:	2300      	movs	r3, #0
 8003eee:	4618      	mov	r0, r3
 8003ef0:	3710      	adds	r7, #16
 8003ef2:	46bd      	mov	sp, r7
 8003ef4:	bd80      	pop	{r7, pc}
 8003ef6:	bf00      	nop
 8003ef8:	000186a0 	.word	0x000186a0
 8003efc:	001e847f 	.word	0x001e847f
 8003f00:	003d08ff 	.word	0x003d08ff
 8003f04:	431bde83 	.word	0x431bde83
 8003f08:	10624dd3 	.word	0x10624dd3

08003f0c <HAL_RCC_OscConfig>:
 8003f0c:	b580      	push	{r7, lr}
 8003f0e:	b086      	sub	sp, #24
 8003f10:	af00      	add	r7, sp, #0
 8003f12:	6078      	str	r0, [r7, #4]
 8003f14:	687b      	ldr	r3, [r7, #4]
 8003f16:	2b00      	cmp	r3, #0
 8003f18:	d101      	bne.n	8003f1e <HAL_RCC_OscConfig+0x12>
 8003f1a:	2301      	movs	r3, #1
 8003f1c:	e267      	b.n	80043ee <HAL_RCC_OscConfig+0x4e2>
 8003f1e:	687b      	ldr	r3, [r7, #4]
 8003f20:	681b      	ldr	r3, [r3, #0]
 8003f22:	f003 0301 	and.w	r3, r3, #1
 8003f26:	2b00      	cmp	r3, #0
 8003f28:	d075      	beq.n	8004016 <HAL_RCC_OscConfig+0x10a>
 8003f2a:	4b88      	ldr	r3, [pc, #544]	; (800414c <HAL_RCC_OscConfig+0x240>)
 8003f2c:	689b      	ldr	r3, [r3, #8]
 8003f2e:	f003 030c 	and.w	r3, r3, #12
 8003f32:	2b04      	cmp	r3, #4
 8003f34:	d00c      	beq.n	8003f50 <HAL_RCC_OscConfig+0x44>
 8003f36:	4b85      	ldr	r3, [pc, #532]	; (800414c <HAL_RCC_OscConfig+0x240>)
 8003f38:	689b      	ldr	r3, [r3, #8]
 8003f3a:	f003 030c 	and.w	r3, r3, #12
 8003f3e:	2b08      	cmp	r3, #8
 8003f40:	d112      	bne.n	8003f68 <HAL_RCC_OscConfig+0x5c>
 8003f42:	4b82      	ldr	r3, [pc, #520]	; (800414c <HAL_RCC_OscConfig+0x240>)
 8003f44:	685b      	ldr	r3, [r3, #4]
 8003f46:	f403 0380 	and.w	r3, r3, #4194304	; 0x400000
 8003f4a:	f5b3 0f80 	cmp.w	r3, #4194304	; 0x400000
 8003f4e:	d10b      	bne.n	8003f68 <HAL_RCC_OscConfig+0x5c>
 8003f50:	4b7e      	ldr	r3, [pc, #504]	; (800414c <HAL_RCC_OscConfig+0x240>)
 8003f52:	681b      	ldr	r3, [r3, #0]
 8003f54:	f403 3300 	and.w	r3, r3, #131072	; 0x20000
 8003f58:	2b00      	cmp	r3, #0
 8003f5a:	d05b      	beq.n	8004014 <HAL_RCC_OscConfig+0x108>
 8003f5c:	687b      	ldr	r3, [r7, #4]
 8003f5e:	685b      	ldr	r3, [r3, #4]
 8003f60:	2b00      	cmp	r3, #0
 8003f62:	d157      	bne.n	8004014 <HAL_RCC_OscConfig+0x108>
 8003f64:	2301      	movs	r3, #1
 8003f66:	e242      	b.n	80043ee <HAL_RCC_OscConfig+0x4e2>
 8003f68:	687b      	ldr	r3, [r7, #4]
 8003f6a:	685b      	ldr	r3, [r3, #4]
 8003f6c:	f5b3 3f80 	cmp.w	r3, #65536	; 0x10000
 8003f70:	d106      	bne.n	8003f80 <HAL_RCC_OscConfig+0x74>
 8003f72:	4b76      	ldr	r3, [pc, #472]	; (800414c <HAL_RCC_OscConfig+0x240>)
 8003f74:	681b      	ldr	r3, [r3, #0]
 8003f76:	4a75      	ldr	r2, [pc, #468]	; (800414c <HAL_RCC_OscConfig+0x240>)
 8003f78:	f443 3380 	orr.w	r3, r3, #65536	; 0x10000
 8003f7c:	6013      	str	r3, [r2, #0]
 8003f7e:	e01d      	b.n	8003fbc <HAL_RCC_OscConfig+0xb0>
 8003f80:	687b      	ldr	r3, [r7, #4]
 8003f82:	685b      	ldr	r3, [r3, #4]
 8003f84:	f5b3 2fa0 	cmp.w	r3, #327680	; 0x50000
 8003f88:	d10c      	bne.n	8003fa4 <HAL_RCC_OscConfig+0x98>
 8003f8a:	4b70      	ldr	r3, [pc, #448]	; (800414c <HAL_RCC_OscConfig+0x240>)
 8003f8c:	681b      	ldr	r3, [r3, #0]
 8003f8e:	4a6f      	ldr	r2, [pc, #444]	; (800414c <HAL_RCC_OscConfig+0x240>)
 8003f90:	f443 2380 	orr.w	r3, r3, #262144	; 0x40000
 8003f94:	6013      	str	r3, [r2, #0]
 8003f96:	4b6d      	ldr	r3, [pc, #436]	; (800414c <HAL_RCC_OscConfig+0x240>)
 8003f98:	681b      	ldr	r3, [r3, #0]
 8003f9a:	4a6c      	ldr	r2, [pc, #432]	; (800414c <HAL_RCC_OscConfig+0x240>)
 8003f9c:	f443 3380 	orr.w	r3, r3, #65536	; 0x10000
 8003fa0:	6013      	str	r3, [r2, #0]
 8003fa2:	e00b      	b.n	8003fbc <HAL_RCC_OscConfig+0xb0>
 8003fa4:	4b69      	ldr	r3, [pc, #420]	; (800414c <HAL_RCC_OscConfig+0x240>)
 8003fa6:	681b      	ldr	r3, [r3, #0]
 8003fa8:	4a68      	ldr	r2, [pc, #416]	; (800414c <HAL_RCC_OscConfig+0x240>)
 8003faa:	f423 3380 	bic.w	r3, r3, #65536	; 0x10000
 8003fae:	6013      	str	r3, [r2, #0]
 8003fb0:	4b66      	ldr	r3, [pc, #408]	; (800414c <HAL_RCC_OscConfig+0x240>)
 8003fb2:	681b      	ldr	r3, [r3, #0]
 8003fb4:	4a65      	ldr	r2, [pc, #404]	; (800414c <HAL_RCC_OscConfig+0x240>)
 8003fb6:	f423 2380 	bic.w	r3, r3, #262144	; 0x40000
 8003fba:	6013      	str	r3, [r2, #0]
 8003fbc:	687b      	ldr	r3, [r7, #4]
 8003fbe:	685b      	ldr	r3, [r3, #4]
 8003fc0:	2b00      	cmp	r3, #0
 8003fc2:	d013      	beq.n	8003fec <HAL_RCC_OscConfig+0xe0>
 8003fc4:	f7fe fb20 	bl	8002608 <HAL_GetTick>
 8003fc8:	6138      	str	r0, [r7, #16]
 8003fca:	e008      	b.n	8003fde <HAL_RCC_OscConfig+0xd2>
 8003fcc:	f7fe fb1c 	bl	8002608 <HAL_GetTick>
 8003fd0:	4602      	mov	r2, r0
 8003fd2:	693b      	ldr	r3, [r7, #16]
 8003fd4:	1ad3      	subs	r3, r2, r3
 8003fd6:	2b64      	cmp	r3, #100	; 0x64
 8003fd8:	d901      	bls.n	8003fde <HAL_RCC_OscConfig+0xd2>
 8003fda:	2303      	movs	r3, #3
 8003fdc:	e207      	b.n	80043ee <HAL_RCC_OscConfig+0x4e2>
 8003fde:	4b5b      	ldr	r3, [pc, #364]	; (800414c <HAL_RCC_OscConfig+0x240>)
 8003fe0:	681b      	ldr	r3, [r3, #0]
 8003fe2:	f403 3300 	and.w	r3, r3, #131072	; 0x20000
 8003fe6:	2b00      	cmp	r3, #0
 8003fe8:	d0f0      	beq.n	8003fcc <HAL_RCC_OscConfig+0xc0>
 8003fea:	e014      	b.n	8004016 <HAL_RCC_OscConfig+0x10a>
 8003fec:	f7fe fb0c 	bl	8002608 <HAL_GetTick>
 8003ff0:	6138      	str	r0, [r7, #16]
 8003ff2:	e008      	b.n	8004006 <HAL_RCC_OscConfig+0xfa>
 8003ff4:	f7fe fb08 	bl	8002608 <HAL_GetTick>
 8003ff8:	4602      	mov	r2, r0
 8003ffa:	693b      	ldr	r3, [r7, #16]
 8003ffc:	1ad3      	subs	r3, r2, r3
 8003ffe:	2b64      	cmp	r3, #100	; 0x64
 8004000:	d901      	bls.n	8004006 <HAL_RCC_OscConfig+0xfa>
 8004002:	2303      	movs	r3, #3
 8004004:	e1f3      	b.n	80043ee <HAL_RCC_OscConfig+0x4e2>
 8004006:	4b51      	ldr	r3, [pc, #324]	; (800414c <HAL_RCC_OscConfig+0x240>)
 8004008:	681b      	ldr	r3, [r3, #0]
 800400a:	f403 3300 	and.w	r3, r3, #131072	; 0x20000
 800400e:	2b00      	cmp	r3, #0
 8004010:	d1f0      	bne.n	8003ff4 <HAL_RCC_OscConfig+0xe8>
 8004012:	e000      	b.n	8004016 <HAL_RCC_OscConfig+0x10a>
 8004014:	bf00      	nop
 8004016:	687b      	ldr	r3, [r7, #4]
 8004018:	681b      	ldr	r3, [r3, #0]
 800401a:	f003 0302 	and.w	r3, r3, #2
 800401e:	2b00      	cmp	r3, #0
 8004020:	d063      	beq.n	80040ea <HAL_RCC_OscConfig+0x1de>
 8004022:	4b4a      	ldr	r3, [pc, #296]	; (800414c <HAL_RCC_OscConfig+0x240>)
 8004024:	689b      	ldr	r3, [r3, #8]
 8004026:	f003 030c 	and.w	r3, r3, #12
 800402a:	2b00      	cmp	r3, #0
 800402c:	d00b      	beq.n	8004046 <HAL_RCC_OscConfig+0x13a>
 800402e:	4b47      	ldr	r3, [pc, #284]	; (800414c <HAL_RCC_OscConfig+0x240>)
 8004030:	689b      	ldr	r3, [r3, #8]
 8004032:	f003 030c 	and.w	r3, r3, #12
 8004036:	2b08      	cmp	r3, #8
 8004038:	d11c      	bne.n	8004074 <HAL_RCC_OscConfig+0x168>
 800403a:	4b44      	ldr	r3, [pc, #272]	; (800414c <HAL_RCC_OscConfig+0x240>)
 800403c:	685b      	ldr	r3, [r3, #4]
 800403e:	f403 0380 	and.w	r3, r3, #4194304	; 0x400000
 8004042:	2b00      	cmp	r3, #0
 8004044:	d116      	bne.n	8004074 <HAL_RCC_OscConfig+0x168>
 8004046:	4b41      	ldr	r3, [pc, #260]	; (800414c <HAL_RCC_OscConfig+0x240>)
 8004048:	681b      	ldr	r3, [r3, #0]
 800404a:	f003 0302 	and.w	r3, r3, #2
 800404e:	2b00      	cmp	r3, #0
 8004050:	d005      	beq.n	800405e <HAL_RCC_OscConfig+0x152>
 8004052:	687b      	ldr	r3, [r7, #4]
 8004054:	68db      	ldr	r3, [r3, #12]
 8004056:	2b01      	cmp	r3, #1
 8004058:	d001      	beq.n	800405e <HAL_RCC_OscConfig+0x152>
 800405a:	2301      	movs	r3, #1
 800405c:	e1c7      	b.n	80043ee <HAL_RCC_OscConfig+0x4e2>
 800405e:	4b3b      	ldr	r3, [pc, #236]	; (800414c <HAL_RCC_OscConfig+0x240>)
 8004060:	681b      	ldr	r3, [r3, #0]
 8004062:	f023 02f8 	bic.w	r2, r3, #248	; 0xf8
 8004066:	687b      	ldr	r3, [r7, #4]
 8004068:	691b      	ldr	r3, [r3, #16]
 800406a:	00db      	lsls	r3, r3, #3
 800406c:	4937      	ldr	r1, [pc, #220]	; (800414c <HAL_RCC_OscConfig+0x240>)
 800406e:	4313      	orrs	r3, r2
 8004070:	600b      	str	r3, [r1, #0]
 8004072:	e03a      	b.n	80040ea <HAL_RCC_OscConfig+0x1de>
 8004074:	687b      	ldr	r3, [r7, #4]
 8004076:	68db      	ldr	r3, [r3, #12]
 8004078:	2b00      	cmp	r3, #0
 800407a:	d020      	beq.n	80040be <HAL_RCC_OscConfig+0x1b2>
 800407c:	4b34      	ldr	r3, [pc, #208]	; (8004150 <HAL_RCC_OscConfig+0x244>)
 800407e:	2201      	movs	r2, #1
 8004080:	601a      	str	r2, [r3, #0]
 8004082:	f7fe fac1 	bl	8002608 <HAL_GetTick>
 8004086:	6138      	str	r0, [r7, #16]
 8004088:	e008      	b.n	800409c <HAL_RCC_OscConfig+0x190>
 800408a:	f7fe fabd 	bl	8002608 <HAL_GetTick>
 800408e:	4602      	mov	r2, r0
 8004090:	693b      	ldr	r3, [r7, #16]
 8004092:	1ad3      	subs	r3, r2, r3
 8004094:	2b02      	cmp	r3, #2
 8004096:	d901      	bls.n	800409c <HAL_RCC_OscConfig+0x190>
 8004098:	2303      	movs	r3, #3
 800409a:	e1a8      	b.n	80043ee <HAL_RCC_OscConfig+0x4e2>
 800409c:	4b2b      	ldr	r3, [pc, #172]	; (800414c <HAL_RCC_OscConfig+0x240>)
 800409e:	681b      	ldr	r3, [r3, #0]
 80040a0:	f003 0302 	and.w	r3, r3, #2
 80040a4:	2b00      	cmp	r3, #0
 80040a6:	d0f0      	beq.n	800408a <HAL_RCC_OscConfig+0x17e>
 80040a8:	4b28      	ldr	r3, [pc, #160]	; (800414c <HAL_RCC_OscConfig+0x240>)
 80040aa:	681b      	ldr	r3, [r3, #0]
 80040ac:	f023 02f8 	bic.w	r2, r3, #248	; 0xf8
 80040b0:	687b      	ldr	r3, [r7, #4]
 80040b2:	691b      	ldr	r3, [r3, #16]
 80040b4:	00db      	lsls	r3, r3, #3
 80040b6:	4925      	ldr	r1, [pc, #148]	; (800414c <HAL_RCC_OscConfig+0x240>)
 80040b8:	4313      	orrs	r3, r2
 80040ba:	600b      	str	r3, [r1, #0]
 80040bc:	e015      	b.n	80040ea <HAL_RCC_OscConfig+0x1de>
 80040be:	4b24      	ldr	r3, [pc, #144]	; (8004150 <HAL_RCC_OscConfig+0x244>)
 80040c0:	2200      	movs	r2, #0
 80040c2:	601a      	str	r2, [r3, #0]
 80040c4:	f7fe faa0 	bl	8002608 <HAL_GetTick>
 80040c8:	6138      	str	r0, [r7, #16]
 80040ca:	e008      	b.n	80040de <HAL_RCC_OscConfig+0x1d2>
 80040cc:	f7fe fa9c 	bl	8002608 <HAL_GetTick>
 80040d0:	4602      	mov	r2, r0
 80040d2:	693b      	ldr	r3, [r7, #16]
 80040d4:	1ad3      	subs	r3, r2, r3
 80040d6:	2b02      	cmp	r3, #2
 80040d8:	d901      	bls.n	80040de <HAL_RCC_OscConfig+0x1d2>
 80040da:	2303      	movs	r3, #3
 80040dc:	e187      	b.n	80043ee <HAL_RCC_OscConfig+0x4e2>
 80040de:	4b1b      	ldr	r3, [pc, #108]	; (800414c <HAL_RCC_OscConfig+0x240>)
 80040e0:	681b      	ldr	r3, [r3, #0]
 80040e2:	f003 0302 	and.w	r3, r3, #2
 80040e6:	2b00      	cmp	r3, #0
 80040e8:	d1f0      	bne.n	80040cc <HAL_RCC_OscConfig+0x1c0>
 80040ea:	687b      	ldr	r3, [r7, #4]
 80040ec:	681b      	ldr	r3, [r3, #0]
 80040ee:	f003 0308 	and.w	r3, r3, #8
 80040f2:	2b00      	cmp	r3, #0
 80040f4:	d036      	beq.n	8004164 <HAL_RCC_OscConfig+0x258>
 80040f6:	687b      	ldr	r3, [r7, #4]
 80040f8:	695b      	ldr	r3, [r3, #20]
 80040fa:	2b00      	cmp	r3, #0
 80040fc:	d016      	beq.n	800412c <HAL_RCC_OscConfig+0x220>
 80040fe:	4b15      	ldr	r3, [pc, #84]	; (8004154 <HAL_RCC_OscConfig+0x248>)
 8004100:	2201      	movs	r2, #1
 8004102:	601a      	str	r2, [r3, #0]
 8004104:	f7fe fa80 	bl	8002608 <HAL_GetTick>
 8004108:	6138      	str	r0, [r7, #16]
 800410a:	e008      	b.n	800411e <HAL_RCC_OscConfig+0x212>
 800410c:	f7fe fa7c 	bl	8002608 <HAL_GetTick>
 8004110:	4602      	mov	r2, r0
 8004112:	693b      	ldr	r3, [r7, #16]
 8004114:	1ad3      	subs	r3, r2, r3
 8004116:	2b02      	cmp	r3, #2
 8004118:	d901      	bls.n	800411e <HAL_RCC_OscConfig+0x212>
 800411a:	2303      	movs	r3, #3
 800411c:	e167      	b.n	80043ee <HAL_RCC_OscConfig+0x4e2>
 800411e:	4b0b      	ldr	r3, [pc, #44]	; (800414c <HAL_RCC_OscConfig+0x240>)
 8004120:	6f5b      	ldr	r3, [r3, #116]	; 0x74
 8004122:	f003 0302 	and.w	r3, r3, #2
 8004126:	2b00      	cmp	r3, #0
 8004128:	d0f0      	beq.n	800410c <HAL_RCC_OscConfig+0x200>
 800412a:	e01b      	b.n	8004164 <HAL_RCC_OscConfig+0x258>
 800412c:	4b09      	ldr	r3, [pc, #36]	; (8004154 <HAL_RCC_OscConfig+0x248>)
 800412e:	2200      	movs	r2, #0
 8004130:	601a      	str	r2, [r3, #0]
 8004132:	f7fe fa69 	bl	8002608 <HAL_GetTick>
 8004136:	6138      	str	r0, [r7, #16]
 8004138:	e00e      	b.n	8004158 <HAL_RCC_OscConfig+0x24c>
 800413a:	f7fe fa65 	bl	8002608 <HAL_GetTick>
 800413e:	4602      	mov	r2, r0
 8004140:	693b      	ldr	r3, [r7, #16]
 8004142:	1ad3      	subs	r3, r2, r3
 8004144:	2b02      	cmp	r3, #2
 8004146:	d907      	bls.n	8004158 <HAL_RCC_OscConfig+0x24c>
 8004148:	2303      	movs	r3, #3
 800414a:	e150      	b.n	80043ee <HAL_RCC_OscConfig+0x4e2>
 800414c:	40023800 	.word	0x40023800
 8004150:	42470000 	.word	0x42470000
 8004154:	42470e80 	.word	0x42470e80
 8004158:	4b88      	ldr	r3, [pc, #544]	; (800437c <HAL_RCC_OscConfig+0x470>)
 800415a:	6f5b      	ldr	r3, [r3, #116]	; 0x74
 800415c:	f003 0302 	and.w	r3, r3, #2
 8004160:	2b00      	cmp	r3, #0
 8004162:	d1ea      	bne.n	800413a <HAL_RCC_OscConfig+0x22e>
 8004164:	687b      	ldr	r3, [r7, #4]
 8004166:	681b      	ldr	r3, [r3, #0]
 8004168:	f003 0304 	and.w	r3, r3, #4
 800416c:	2b00      	cmp	r3, #0
 800416e:	f000 8097 	beq.w	80042a0 <HAL_RCC_OscConfig+0x394>
 8004172:	2300      	movs	r3, #0
 8004174:	75fb      	strb	r3, [r7, #23]
 8004176:	4b81      	ldr	r3, [pc, #516]	; (800437c <HAL_RCC_OscConfig+0x470>)
 8004178:	6c1b      	ldr	r3, [r3, #64]	; 0x40
 800417a:	f003 5380 	and.w	r3, r3, #268435456	; 0x10000000
 800417e:	2b00      	cmp	r3, #0
 8004180:	d10f      	bne.n	80041a2 <HAL_RCC_OscConfig+0x296>
 8004182:	2300      	movs	r3, #0
 8004184:	60bb      	str	r3, [r7, #8]
 8004186:	4b7d      	ldr	r3, [pc, #500]	; (800437c <HAL_RCC_OscConfig+0x470>)
 8004188:	6c1b      	ldr	r3, [r3, #64]	; 0x40
 800418a:	4a7c      	ldr	r2, [pc, #496]	; (800437c <HAL_RCC_OscConfig+0x470>)
 800418c:	f043 5380 	orr.w	r3, r3, #268435456	; 0x10000000
 8004190:	6413      	str	r3, [r2, #64]	; 0x40
 8004192:	4b7a      	ldr	r3, [pc, #488]	; (800437c <HAL_RCC_OscConfig+0x470>)
 8004194:	6c1b      	ldr	r3, [r3, #64]	; 0x40
 8004196:	f003 5380 	and.w	r3, r3, #268435456	; 0x10000000
 800419a:	60bb      	str	r3, [r7, #8]
 800419c:	68bb      	ldr	r3, [r7, #8]
 800419e:	2301      	movs	r3, #1
 80041a0:	75fb      	strb	r3, [r7, #23]
 80041a2:	4b77      	ldr	r3, [pc, #476]	; (8004380 <HAL_RCC_OscConfig+0x474>)
 80041a4:	681b      	ldr	r3, [r3, #0]
 80041a6:	f403 7380 	and.w	r3, r3, #256	; 0x100
 80041aa:	2b00      	cmp	r3, #0
 80041ac:	d118      	bne.n	80041e0 <HAL_RCC_OscConfig+0x2d4>
 80041ae:	4b74      	ldr	r3, [pc, #464]	; (8004380 <HAL_RCC_OscConfig+0x474>)
 80041b0:	681b      	ldr	r3, [r3, #0]
 80041b2:	4a73      	ldr	r2, [pc, #460]	; (8004380 <HAL_RCC_OscConfig+0x474>)
 80041b4:	f443 7380 	orr.w	r3, r3, #256	; 0x100
 80041b8:	6013      	str	r3, [r2, #0]
 80041ba:	f7fe fa25 	bl	8002608 <HAL_GetTick>
 80041be:	6138      	str	r0, [r7, #16]
 80041c0:	e008      	b.n	80041d4 <HAL_RCC_OscConfig+0x2c8>
 80041c2:	f7fe fa21 	bl	8002608 <HAL_GetTick>
 80041c6:	4602      	mov	r2, r0
 80041c8:	693b      	ldr	r3, [r7, #16]
 80041ca:	1ad3      	subs	r3, r2, r3
 80041cc:	2b02      	cmp	r3, #2
 80041ce:	d901      	bls.n	80041d4 <HAL_RCC_OscConfig+0x2c8>
 80041d0:	2303      	movs	r3, #3
 80041d2:	e10c      	b.n	80043ee <HAL_RCC_OscConfig+0x4e2>
 80041d4:	4b6a      	ldr	r3, [pc, #424]	; (8004380 <HAL_RCC_OscConfig+0x474>)
 80041d6:	681b      	ldr	r3, [r3, #0]
 80041d8:	f403 7380 	and.w	r3, r3, #256	; 0x100
 80041dc:	2b00      	cmp	r3, #0
 80041de:	d0f0      	beq.n	80041c2 <HAL_RCC_OscConfig+0x2b6>
 80041e0:	687b      	ldr	r3, [r7, #4]
 80041e2:	689b      	ldr	r3, [r3, #8]
 80041e4:	2b01      	cmp	r3, #1
 80041e6:	d106      	bne.n	80041f6 <HAL_RCC_OscConfig+0x2ea>
 80041e8:	4b64      	ldr	r3, [pc, #400]	; (800437c <HAL_RCC_OscConfig+0x470>)
 80041ea:	6f1b      	ldr	r3, [r3, #112]	; 0x70
 80041ec:	4a63      	ldr	r2, [pc, #396]	; (800437c <HAL_RCC_OscConfig+0x470>)
 80041ee:	f043 0301 	orr.w	r3, r3, #1
 80041f2:	6713      	str	r3, [r2, #112]	; 0x70
 80041f4:	e01c      	b.n	8004230 <HAL_RCC_OscConfig+0x324>
 80041f6:	687b      	ldr	r3, [r7, #4]
 80041f8:	689b      	ldr	r3, [r3, #8]
 80041fa:	2b05      	cmp	r3, #5
 80041fc:	d10c      	bne.n	8004218 <HAL_RCC_OscConfig+0x30c>
 80041fe:	4b5f      	ldr	r3, [pc, #380]	; (800437c <HAL_RCC_OscConfig+0x470>)
 8004200:	6f1b      	ldr	r3, [r3, #112]	; 0x70
 8004202:	4a5e      	ldr	r2, [pc, #376]	; (800437c <HAL_RCC_OscConfig+0x470>)
 8004204:	f043 0304 	orr.w	r3, r3, #4
 8004208:	6713      	str	r3, [r2, #112]	; 0x70
 800420a:	4b5c      	ldr	r3, [pc, #368]	; (800437c <HAL_RCC_OscConfig+0x470>)
 800420c:	6f1b      	ldr	r3, [r3, #112]	; 0x70
 800420e:	4a5b      	ldr	r2, [pc, #364]	; (800437c <HAL_RCC_OscConfig+0x470>)
 8004210:	f043 0301 	orr.w	r3, r3, #1
 8004214:	6713      	str	r3, [r2, #112]	; 0x70
 8004216:	e00b      	b.n	8004230 <HAL_RCC_OscConfig+0x324>
 8004218:	4b58      	ldr	r3, [pc, #352]	; (800437c <HAL_RCC_OscConfig+0x470>)
 800421a:	6f1b      	ldr	r3, [r3, #112]	; 0x70
 800421c:	4a57      	ldr	r2, [pc, #348]	; (800437c <HAL_RCC_OscConfig+0x470>)
 800421e:	f023 0301 	bic.w	r3, r3, #1
 8004222:	6713      	str	r3, [r2, #112]	; 0x70
 8004224:	4b55      	ldr	r3, [pc, #340]	; (800437c <HAL_RCC_OscConfig+0x470>)
 8004226:	6f1b      	ldr	r3, [r3, #112]	; 0x70
 8004228:	4a54      	ldr	r2, [pc, #336]	; (800437c <HAL_RCC_OscConfig+0x470>)
 800422a:	f023 0304 	bic.w	r3, r3, #4
 800422e:	6713      	str	r3, [r2, #112]	; 0x70
 8004230:	687b      	ldr	r3, [r7, #4]
 8004232:	689b      	ldr	r3, [r3, #8]
 8004234:	2b00      	cmp	r3, #0
 8004236:	d015      	beq.n	8004264 <HAL_RCC_OscConfig+0x358>
 8004238:	f7fe f9e6 	bl	8002608 <HAL_GetTick>
 800423c:	6138      	str	r0, [r7, #16]
 800423e:	e00a      	b.n	8004256 <HAL_RCC_OscConfig+0x34a>
 8004240:	f7fe f9e2 	bl	8002608 <HAL_GetTick>
 8004244:	4602      	mov	r2, r0
 8004246:	693b      	ldr	r3, [r7, #16]
 8004248:	1ad3      	subs	r3, r2, r3
 800424a:	f241 3288 	movw	r2, #5000	; 0x1388
 800424e:	4293      	cmp	r3, r2
 8004250:	d901      	bls.n	8004256 <HAL_RCC_OscConfig+0x34a>
 8004252:	2303      	movs	r3, #3
 8004254:	e0cb      	b.n	80043ee <HAL_RCC_OscConfig+0x4e2>
 8004256:	4b49      	ldr	r3, [pc, #292]	; (800437c <HAL_RCC_OscConfig+0x470>)
 8004258:	6f1b      	ldr	r3, [r3, #112]	; 0x70
 800425a:	f003 0302 	and.w	r3, r3, #2
 800425e:	2b00      	cmp	r3, #0
 8004260:	d0ee      	beq.n	8004240 <HAL_RCC_OscConfig+0x334>
 8004262:	e014      	b.n	800428e <HAL_RCC_OscConfig+0x382>
 8004264:	f7fe f9d0 	bl	8002608 <HAL_GetTick>
 8004268:	6138      	str	r0, [r7, #16]
 800426a:	e00a      	b.n	8004282 <HAL_RCC_OscConfig+0x376>
 800426c:	f7fe f9cc 	bl	8002608 <HAL_GetTick>
 8004270:	4602      	mov	r2, r0
 8004272:	693b      	ldr	r3, [r7, #16]
 8004274:	1ad3      	subs	r3, r2, r3
 8004276:	f241 3288 	movw	r2, #5000	; 0x1388
 800427a:	4293      	cmp	r3, r2
 800427c:	d901      	bls.n	8004282 <HAL_RCC_OscConfig+0x376>
 800427e:	2303      	movs	r3, #3
 8004280:	e0b5      	b.n	80043ee <HAL_RCC_OscConfig+0x4e2>
 8004282:	4b3e      	ldr	r3, [pc, #248]	; (800437c <HAL_RCC_OscConfig+0x470>)
 8004284:	6f1b      	ldr	r3, [r3, #112]	; 0x70
 8004286:	f003 0302 	and.w	r3, r3, #2
 800428a:	2b00      	cmp	r3, #0
 800428c:	d1ee      	bne.n	800426c <HAL_RCC_OscConfig+0x360>
 800428e:	7dfb      	ldrb	r3, [r7, #23]
 8004290:	2b01      	cmp	r3, #1
 8004292:	d105      	bne.n	80042a0 <HAL_RCC_OscConfig+0x394>
 8004294:	4b39      	ldr	r3, [pc, #228]	; (800437c <HAL_RCC_OscConfig+0x470>)
 8004296:	6c1b      	ldr	r3, [r3, #64]	; 0x40
 8004298:	4a38      	ldr	r2, [pc, #224]	; (800437c <HAL_RCC_OscConfig+0x470>)
 800429a:	f023 5380 	bic.w	r3, r3, #268435456	; 0x10000000
 800429e:	6413      	str	r3, [r2, #64]	; 0x40
 80042a0:	687b      	ldr	r3, [r7, #4]
 80042a2:	699b      	ldr	r3, [r3, #24]
 80042a4:	2b00      	cmp	r3, #0
 80042a6:	f000 80a1 	beq.w	80043ec <HAL_RCC_OscConfig+0x4e0>
 80042aa:	4b34      	ldr	r3, [pc, #208]	; (800437c <HAL_RCC_OscConfig+0x470>)
 80042ac:	689b      	ldr	r3, [r3, #8]
 80042ae:	f003 030c 	and.w	r3, r3, #12
 80042b2:	2b08      	cmp	r3, #8
 80042b4:	d05c      	beq.n	8004370 <HAL_RCC_OscConfig+0x464>
 80042b6:	687b      	ldr	r3, [r7, #4]
 80042b8:	699b      	ldr	r3, [r3, #24]
 80042ba:	2b02      	cmp	r3, #2
 80042bc:	d141      	bne.n	8004342 <HAL_RCC_OscConfig+0x436>
 80042be:	4b31      	ldr	r3, [pc, #196]	; (8004384 <HAL_RCC_OscConfig+0x478>)
 80042c0:	2200      	movs	r2, #0
 80042c2:	601a      	str	r2, [r3, #0]
 80042c4:	f7fe f9a0 	bl	8002608 <HAL_GetTick>
 80042c8:	6138      	str	r0, [r7, #16]
 80042ca:	e008      	b.n	80042de <HAL_RCC_OscConfig+0x3d2>
 80042cc:	f7fe f99c 	bl	8002608 <HAL_GetTick>
 80042d0:	4602      	mov	r2, r0
 80042d2:	693b      	ldr	r3, [r7, #16]
 80042d4:	1ad3      	subs	r3, r2, r3
 80042d6:	2b02      	cmp	r3, #2
 80042d8:	d901      	bls.n	80042de <HAL_RCC_OscConfig+0x3d2>
 80042da:	2303      	movs	r3, #3
 80042dc:	e087      	b.n	80043ee <HAL_RCC_OscConfig+0x4e2>
 80042de:	4b27      	ldr	r3, [pc, #156]	; (800437c <HAL_RCC_OscConfig+0x470>)
 80042e0:	681b      	ldr	r3, [r3, #0]
 80042e2:	f003 7300 	and.w	r3, r3, #33554432	; 0x2000000
 80042e6:	2b00      	cmp	r3, #0
 80042e8:	d1f0      	bne.n	80042cc <HAL_RCC_OscConfig+0x3c0>
 80042ea:	687b      	ldr	r3, [r7, #4]
 80042ec:	69da      	ldr	r2, [r3, #28]
 80042ee:	687b      	ldr	r3, [r7, #4]
 80042f0:	6a1b      	ldr	r3, [r3, #32]
 80042f2:	431a      	orrs	r2, r3
 80042f4:	687b      	ldr	r3, [r7, #4]
 80042f6:	6a5b      	ldr	r3, [r3, #36]	; 0x24
 80042f8:	019b      	lsls	r3, r3, #6
 80042fa:	431a      	orrs	r2, r3
 80042fc:	687b      	ldr	r3, [r7, #4]
 80042fe:	6a9b      	ldr	r3, [r3, #40]	; 0x28
 8004300:	085b      	lsrs	r3, r3, #1
 8004302:	3b01      	subs	r3, #1
 8004304:	041b      	lsls	r3, r3, #16
 8004306:	431a      	orrs	r2, r3
 8004308:	687b      	ldr	r3, [r7, #4]
 800430a:	6adb      	ldr	r3, [r3, #44]	; 0x2c
 800430c:	061b      	lsls	r3, r3, #24
 800430e:	491b      	ldr	r1, [pc, #108]	; (800437c <HAL_RCC_OscConfig+0x470>)
 8004310:	4313      	orrs	r3, r2
 8004312:	604b      	str	r3, [r1, #4]
 8004314:	4b1b      	ldr	r3, [pc, #108]	; (8004384 <HAL_RCC_OscConfig+0x478>)
 8004316:	2201      	movs	r2, #1
 8004318:	601a      	str	r2, [r3, #0]
 800431a:	f7fe f975 	bl	8002608 <HAL_GetTick>
 800431e:	6138      	str	r0, [r7, #16]
 8004320:	e008      	b.n	8004334 <HAL_RCC_OscConfig+0x428>
 8004322:	f7fe f971 	bl	8002608 <HAL_GetTick>
 8004326:	4602      	mov	r2, r0
 8004328:	693b      	ldr	r3, [r7, #16]
 800432a:	1ad3      	subs	r3, r2, r3
 800432c:	2b02      	cmp	r3, #2
 800432e:	d901      	bls.n	8004334 <HAL_RCC_OscConfig+0x428>
 8004330:	2303      	movs	r3, #3
 8004332:	e05c      	b.n	80043ee <HAL_RCC_OscConfig+0x4e2>
 8004334:	4b11      	ldr	r3, [pc, #68]	; (800437c <HAL_RCC_OscConfig+0x470>)
 8004336:	681b      	ldr	r3, [r3, #0]
 8004338:	f003 7300 	and.w	r3, r3, #33554432	; 0x2000000
 800433c:	2b00      	cmp	r3, #0
 800433e:	d0f0      	beq.n	8004322 <HAL_RCC_OscConfig+0x416>
 8004340:	e054      	b.n	80043ec <HAL_RCC_OscConfig+0x4e0>
 8004342:	4b10      	ldr	r3, [pc, #64]	; (8004384 <HAL_RCC_OscConfig+0x478>)
 8004344:	2200      	movs	r2, #0
 8004346:	601a      	str	r2, [r3, #0]
 8004348:	f7fe f95e 	bl	8002608 <HAL_GetTick>
 800434c:	6138      	str	r0, [r7, #16]
 800434e:	e008      	b.n	8004362 <HAL_RCC_OscConfig+0x456>
 8004350:	f7fe f95a 	bl	8002608 <HAL_GetTick>
 8004354:	4602      	mov	r2, r0
 8004356:	693b      	ldr	r3, [r7, #16]
 8004358:	1ad3      	subs	r3, r2, r3
 800435a:	2b02      	cmp	r3, #2
 800435c:	d901      	bls.n	8004362 <HAL_RCC_OscConfig+0x456>
 800435e:	2303      	movs	r3, #3
 8004360:	e045      	b.n	80043ee <HAL_RCC_OscConfig+0x4e2>
 8004362:	4b06      	ldr	r3, [pc, #24]	; (800437c <HAL_RCC_OscConfig+0x470>)
 8004364:	681b      	ldr	r3, [r3, #0]
 8004366:	f003 7300 	and.w	r3, r3, #33554432	; 0x2000000
 800436a:	2b00      	cmp	r3, #0
 800436c:	d1f0      	bne.n	8004350 <HAL_RCC_OscConfig+0x444>
 800436e:	e03d      	b.n	80043ec <HAL_RCC_OscConfig+0x4e0>
 8004370:	687b      	ldr	r3, [r7, #4]
 8004372:	699b      	ldr	r3, [r3, #24]
 8004374:	2b01      	cmp	r3, #1
 8004376:	d107      	bne.n	8004388 <HAL_RCC_OscConfig+0x47c>
 8004378:	2301      	movs	r3, #1
 800437a:	e038      	b.n	80043ee <HAL_RCC_OscConfig+0x4e2>
 800437c:	40023800 	.word	0x40023800
 8004380:	40007000 	.word	0x40007000
 8004384:	42470060 	.word	0x42470060
 8004388:	4b1b      	ldr	r3, [pc, #108]	; (80043f8 <HAL_RCC_OscConfig+0x4ec>)
 800438a:	685b      	ldr	r3, [r3, #4]
 800438c:	60fb      	str	r3, [r7, #12]
 800438e:	687b      	ldr	r3, [r7, #4]
 8004390:	699b      	ldr	r3, [r3, #24]
 8004392:	2b01      	cmp	r3, #1
 8004394:	d028      	beq.n	80043e8 <HAL_RCC_OscConfig+0x4dc>
 8004396:	68fb      	ldr	r3, [r7, #12]
 8004398:	f403 0280 	and.w	r2, r3, #4194304	; 0x400000
 800439c:	687b      	ldr	r3, [r7, #4]
 800439e:	69db      	ldr	r3, [r3, #28]
 80043a0:	429a      	cmp	r2, r3
 80043a2:	d121      	bne.n	80043e8 <HAL_RCC_OscConfig+0x4dc>
 80043a4:	68fb      	ldr	r3, [r7, #12]
 80043a6:	f003 023f 	and.w	r2, r3, #63	; 0x3f
 80043aa:	687b      	ldr	r3, [r7, #4]
 80043ac:	6a1b      	ldr	r3, [r3, #32]
 80043ae:	429a      	cmp	r2, r3
 80043b0:	d11a      	bne.n	80043e8 <HAL_RCC_OscConfig+0x4dc>
 80043b2:	68fa      	ldr	r2, [r7, #12]
 80043b4:	f647 73c0 	movw	r3, #32704	; 0x7fc0
 80043b8:	4013      	ands	r3, r2
 80043ba:	687a      	ldr	r2, [r7, #4]
 80043bc:	6a52      	ldr	r2, [r2, #36]	; 0x24
 80043be:	0192      	lsls	r2, r2, #6
 80043c0:	4293      	cmp	r3, r2
 80043c2:	d111      	bne.n	80043e8 <HAL_RCC_OscConfig+0x4dc>
 80043c4:	68fb      	ldr	r3, [r7, #12]
 80043c6:	f403 3240 	and.w	r2, r3, #196608	; 0x30000
 80043ca:	687b      	ldr	r3, [r7, #4]
 80043cc:	6a9b      	ldr	r3, [r3, #40]	; 0x28
 80043ce:	085b      	lsrs	r3, r3, #1
 80043d0:	3b01      	subs	r3, #1
 80043d2:	041b      	lsls	r3, r3, #16
 80043d4:	429a      	cmp	r2, r3
 80043d6:	d107      	bne.n	80043e8 <HAL_RCC_OscConfig+0x4dc>
 80043d8:	68fb      	ldr	r3, [r7, #12]
 80043da:	f003 6270 	and.w	r2, r3, #251658240	; 0xf000000
 80043de:	687b      	ldr	r3, [r7, #4]
 80043e0:	6adb      	ldr	r3, [r3, #44]	; 0x2c
 80043e2:	061b      	lsls	r3, r3, #24
 80043e4:	429a      	cmp	r2, r3
 80043e6:	d001      	beq.n	80043ec <HAL_RCC_OscConfig+0x4e0>
 80043e8:	2301      	movs	r3, #1
 80043ea:	e000      	b.n	80043ee <HAL_RCC_OscConfig+0x4e2>
 80043ec:	2300      	movs	r3, #0
 80043ee:	4618      	mov	r0, r3
 80043f0:	3718      	adds	r7, #24
 80043f2:	46bd      	mov	sp, r7
 80043f4:	bd80      	pop	{r7, pc}
 80043f6:	bf00      	nop
 80043f8:	40023800 	.word	0x40023800

080043fc <HAL_RCC_ClockConfig>:
 80043fc:	b580      	push	{r7, lr}
 80043fe:	b084      	sub	sp, #16
 8004400:	af00      	add	r7, sp, #0
 8004402:	6078      	str	r0, [r7, #4]
 8004404:	6039      	str	r1, [r7, #0]
 8004406:	687b      	ldr	r3, [r7, #4]
 8004408:	2b00      	cmp	r3, #0
 800440a:	d101      	bne.n	8004410 <HAL_RCC_ClockConfig+0x14>
 800440c:	2301      	movs	r3, #1
 800440e:	e0cc      	b.n	80045aa <HAL_RCC_ClockConfig+0x1ae>
 8004410:	4b68      	ldr	r3, [pc, #416]	; (80045b4 <HAL_RCC_ClockConfig+0x1b8>)
 8004412:	681b      	ldr	r3, [r3, #0]
 8004414:	f003 0307 	and.w	r3, r3, #7
 8004418:	683a      	ldr	r2, [r7, #0]
 800441a:	429a      	cmp	r2, r3
 800441c:	d90c      	bls.n	8004438 <HAL_RCC_ClockConfig+0x3c>
 800441e:	4b65      	ldr	r3, [pc, #404]	; (80045b4 <HAL_RCC_ClockConfig+0x1b8>)
 8004420:	683a      	ldr	r2, [r7, #0]
 8004422:	b2d2      	uxtb	r2, r2
 8004424:	701a      	strb	r2, [r3, #0]
 8004426:	4b63      	ldr	r3, [pc, #396]	; (80045b4 <HAL_RCC_ClockConfig+0x1b8>)
 8004428:	681b      	ldr	r3, [r3, #0]
 800442a:	f003 0307 	and.w	r3, r3, #7
 800442e:	683a      	ldr	r2, [r7, #0]
 8004430:	429a      	cmp	r2, r3
 8004432:	d001      	beq.n	8004438 <HAL_RCC_ClockConfig+0x3c>
 8004434:	2301      	movs	r3, #1
 8004436:	e0b8      	b.n	80045aa <HAL_RCC_ClockConfig+0x1ae>
 8004438:	687b      	ldr	r3, [r7, #4]
 800443a:	681b      	ldr	r3, [r3, #0]
 800443c:	f003 0302 	and.w	r3, r3, #2
 8004440:	2b00      	cmp	r3, #0
 8004442:	d020      	beq.n	8004486 <HAL_RCC_ClockConfig+0x8a>
 8004444:	687b      	ldr	r3, [r7, #4]
 8004446:	681b      	ldr	r3, [r3, #0]
 8004448:	f003 0304 	and.w	r3, r3, #4
 800444c:	2b00      	cmp	r3, #0
 800444e:	d005      	beq.n	800445c <HAL_RCC_ClockConfig+0x60>
 8004450:	4b59      	ldr	r3, [pc, #356]	; (80045b8 <HAL_RCC_ClockConfig+0x1bc>)
 8004452:	689b      	ldr	r3, [r3, #8]
 8004454:	4a58      	ldr	r2, [pc, #352]	; (80045b8 <HAL_RCC_ClockConfig+0x1bc>)
 8004456:	f443 53e0 	orr.w	r3, r3, #7168	; 0x1c00
 800445a:	6093      	str	r3, [r2, #8]
 800445c:	687b      	ldr	r3, [r7, #4]
 800445e:	681b      	ldr	r3, [r3, #0]
 8004460:	f003 0308 	and.w	r3, r3, #8
 8004464:	2b00      	cmp	r3, #0
 8004466:	d005      	beq.n	8004474 <HAL_RCC_ClockConfig+0x78>
 8004468:	4b53      	ldr	r3, [pc, #332]	; (80045b8 <HAL_RCC_ClockConfig+0x1bc>)
 800446a:	689b      	ldr	r3, [r3, #8]
 800446c:	4a52      	ldr	r2, [pc, #328]	; (80045b8 <HAL_RCC_ClockConfig+0x1bc>)
 800446e:	f443 4360 	orr.w	r3, r3, #57344	; 0xe000
 8004472:	6093      	str	r3, [r2, #8]
 8004474:	4b50      	ldr	r3, [pc, #320]	; (80045b8 <HAL_RCC_ClockConfig+0x1bc>)
 8004476:	689b      	ldr	r3, [r3, #8]
 8004478:	f023 02f0 	bic.w	r2, r3, #240	; 0xf0
 800447c:	687b      	ldr	r3, [r7, #4]
 800447e:	689b      	ldr	r3, [r3, #8]
 8004480:	494d      	ldr	r1, [pc, #308]	; (80045b8 <HAL_RCC_ClockConfig+0x1bc>)
 8004482:	4313      	orrs	r3, r2
 8004484:	608b      	str	r3, [r1, #8]
 8004486:	687b      	ldr	r3, [r7, #4]
 8004488:	681b      	ldr	r3, [r3, #0]
 800448a:	f003 0301 	and.w	r3, r3, #1
 800448e:	2b00      	cmp	r3, #0
 8004490:	d044      	beq.n	800451c <HAL_RCC_ClockConfig+0x120>
 8004492:	687b      	ldr	r3, [r7, #4]
 8004494:	685b      	ldr	r3, [r3, #4]
 8004496:	2b01      	cmp	r3, #1
 8004498:	d107      	bne.n	80044aa <HAL_RCC_ClockConfig+0xae>
 800449a:	4b47      	ldr	r3, [pc, #284]	; (80045b8 <HAL_RCC_ClockConfig+0x1bc>)
 800449c:	681b      	ldr	r3, [r3, #0]
 800449e:	f403 3300 	and.w	r3, r3, #131072	; 0x20000
 80044a2:	2b00      	cmp	r3, #0
 80044a4:	d119      	bne.n	80044da <HAL_RCC_ClockConfig+0xde>
 80044a6:	2301      	movs	r3, #1
 80044a8:	e07f      	b.n	80045aa <HAL_RCC_ClockConfig+0x1ae>
 80044aa:	687b      	ldr	r3, [r7, #4]
 80044ac:	685b      	ldr	r3, [r3, #4]
 80044ae:	2b02      	cmp	r3, #2
 80044b0:	d003      	beq.n	80044ba <HAL_RCC_ClockConfig+0xbe>
 80044b2:	687b      	ldr	r3, [r7, #4]
 80044b4:	685b      	ldr	r3, [r3, #4]
 80044b6:	2b03      	cmp	r3, #3
 80044b8:	d107      	bne.n	80044ca <HAL_RCC_ClockConfig+0xce>
 80044ba:	4b3f      	ldr	r3, [pc, #252]	; (80045b8 <HAL_RCC_ClockConfig+0x1bc>)
 80044bc:	681b      	ldr	r3, [r3, #0]
 80044be:	f003 7300 	and.w	r3, r3, #33554432	; 0x2000000
 80044c2:	2b00      	cmp	r3, #0
 80044c4:	d109      	bne.n	80044da <HAL_RCC_ClockConfig+0xde>
 80044c6:	2301      	movs	r3, #1
 80044c8:	e06f      	b.n	80045aa <HAL_RCC_ClockConfig+0x1ae>
 80044ca:	4b3b      	ldr	r3, [pc, #236]	; (80045b8 <HAL_RCC_ClockConfig+0x1bc>)
 80044cc:	681b      	ldr	r3, [r3, #0]
 80044ce:	f003 0302 	and.w	r3, r3, #2
 80044d2:	2b00      	cmp	r3, #0
 80044d4:	d101      	bne.n	80044da <HAL_RCC_ClockConfig+0xde>
 80044d6:	2301      	movs	r3, #1
 80044d8:	e067      	b.n	80045aa <HAL_RCC_ClockConfig+0x1ae>
 80044da:	4b37      	ldr	r3, [pc, #220]	; (80045b8 <HAL_RCC_ClockConfig+0x1bc>)
 80044dc:	689b      	ldr	r3, [r3, #8]
 80044de:	f023 0203 	bic.w	r2, r3, #3
 80044e2:	687b      	ldr	r3, [r7, #4]
 80044e4:	685b      	ldr	r3, [r3, #4]
 80044e6:	4934      	ldr	r1, [pc, #208]	; (80045b8 <HAL_RCC_ClockConfig+0x1bc>)
 80044e8:	4313      	orrs	r3, r2
 80044ea:	608b      	str	r3, [r1, #8]
 80044ec:	f7fe f88c 	bl	8002608 <HAL_GetTick>
 80044f0:	60f8      	str	r0, [r7, #12]
 80044f2:	e00a      	b.n	800450a <HAL_RCC_ClockConfig+0x10e>
 80044f4:	f7fe f888 	bl	8002608 <HAL_GetTick>
 80044f8:	4602      	mov	r2, r0
 80044fa:	68fb      	ldr	r3, [r7, #12]
 80044fc:	1ad3      	subs	r3, r2, r3
 80044fe:	f241 3288 	movw	r2, #5000	; 0x1388
 8004502:	4293      	cmp	r3, r2
 8004504:	d901      	bls.n	800450a <HAL_RCC_ClockConfig+0x10e>
 8004506:	2303      	movs	r3, #3
 8004508:	e04f      	b.n	80045aa <HAL_RCC_ClockConfig+0x1ae>
 800450a:	4b2b      	ldr	r3, [pc, #172]	; (80045b8 <HAL_RCC_ClockConfig+0x1bc>)
 800450c:	689b      	ldr	r3, [r3, #8]
 800450e:	f003 020c 	and.w	r2, r3, #12
 8004512:	687b      	ldr	r3, [r7, #4]
 8004514:	685b      	ldr	r3, [r3, #4]
 8004516:	009b      	lsls	r3, r3, #2
 8004518:	429a      	cmp	r2, r3
 800451a:	d1eb      	bne.n	80044f4 <HAL_RCC_ClockConfig+0xf8>
 800451c:	4b25      	ldr	r3, [pc, #148]	; (80045b4 <HAL_RCC_ClockConfig+0x1b8>)
 800451e:	681b      	ldr	r3, [r3, #0]
 8004520:	f003 0307 	and.w	r3, r3, #7
 8004524:	683a      	ldr	r2, [r7, #0]
 8004526:	429a      	cmp	r2, r3
 8004528:	d20c      	bcs.n	8004544 <HAL_RCC_ClockConfig+0x148>
 800452a:	4b22      	ldr	r3, [pc, #136]	; (80045b4 <HAL_RCC_ClockConfig+0x1b8>)
 800452c:	683a      	ldr	r2, [r7, #0]
 800452e:	b2d2      	uxtb	r2, r2
 8004530:	701a      	strb	r2, [r3, #0]
 8004532:	4b20      	ldr	r3, [pc, #128]	; (80045b4 <HAL_RCC_ClockConfig+0x1b8>)
 8004534:	681b      	ldr	r3, [r3, #0]
 8004536:	f003 0307 	and.w	r3, r3, #7
 800453a:	683a      	ldr	r2, [r7, #0]
 800453c:	429a      	cmp	r2, r3
 800453e:	d001      	beq.n	8004544 <HAL_RCC_ClockConfig+0x148>
 8004540:	2301      	movs	r3, #1
 8004542:	e032      	b.n	80045aa <HAL_RCC_ClockConfig+0x1ae>
 8004544:	687b      	ldr	r3, [r7, #4]
 8004546:	681b      	ldr	r3, [r3, #0]
 8004548:	f003 0304 	and.w	r3, r3, #4
 800454c:	2b00      	cmp	r3, #0
 800454e:	d008      	beq.n	8004562 <HAL_RCC_ClockConfig+0x166>
 8004550:	4b19      	ldr	r3, [pc, #100]	; (80045b8 <HAL_RCC_ClockConfig+0x1bc>)
 8004552:	689b      	ldr	r3, [r3, #8]
 8004554:	f423 52e0 	bic.w	r2, r3, #7168	; 0x1c00
 8004558:	687b      	ldr	r3, [r7, #4]
 800455a:	68db      	ldr	r3, [r3, #12]
 800455c:	4916      	ldr	r1, [pc, #88]	; (80045b8 <HAL_RCC_ClockConfig+0x1bc>)
 800455e:	4313      	orrs	r3, r2
 8004560:	608b      	str	r3, [r1, #8]
 8004562:	687b      	ldr	r3, [r7, #4]
 8004564:	681b      	ldr	r3, [r3, #0]
 8004566:	f003 0308 	and.w	r3, r3, #8
 800456a:	2b00      	cmp	r3, #0
 800456c:	d009      	beq.n	8004582 <HAL_RCC_ClockConfig+0x186>
 800456e:	4b12      	ldr	r3, [pc, #72]	; (80045b8 <HAL_RCC_ClockConfig+0x1bc>)
 8004570:	689b      	ldr	r3, [r3, #8]
 8004572:	f423 4260 	bic.w	r2, r3, #57344	; 0xe000
 8004576:	687b      	ldr	r3, [r7, #4]
 8004578:	691b      	ldr	r3, [r3, #16]
 800457a:	00db      	lsls	r3, r3, #3
 800457c:	490e      	ldr	r1, [pc, #56]	; (80045b8 <HAL_RCC_ClockConfig+0x1bc>)
 800457e:	4313      	orrs	r3, r2
 8004580:	608b      	str	r3, [r1, #8]
 8004582:	f000 f821 	bl	80045c8 <HAL_RCC_GetSysClockFreq>
 8004586:	4602      	mov	r2, r0
 8004588:	4b0b      	ldr	r3, [pc, #44]	; (80045b8 <HAL_RCC_ClockConfig+0x1bc>)
 800458a:	689b      	ldr	r3, [r3, #8]
 800458c:	091b      	lsrs	r3, r3, #4
 800458e:	f003 030f 	and.w	r3, r3, #15
 8004592:	490a      	ldr	r1, [pc, #40]	; (80045bc <HAL_RCC_ClockConfig+0x1c0>)
 8004594:	5ccb      	ldrb	r3, [r1, r3]
 8004596:	fa22 f303 	lsr.w	r3, r2, r3
 800459a:	4a09      	ldr	r2, [pc, #36]	; (80045c0 <HAL_RCC_ClockConfig+0x1c4>)
 800459c:	6013      	str	r3, [r2, #0]
 800459e:	4b09      	ldr	r3, [pc, #36]	; (80045c4 <HAL_RCC_ClockConfig+0x1c8>)
 80045a0:	681b      	ldr	r3, [r3, #0]
 80045a2:	4618      	mov	r0, r3
 80045a4:	f7fd ffec 	bl	8002580 <HAL_InitTick>
 80045a8:	2300      	movs	r3, #0
 80045aa:	4618      	mov	r0, r3
 80045ac:	3710      	adds	r7, #16
 80045ae:	46bd      	mov	sp, r7
 80045b0:	bd80      	pop	{r7, pc}
 80045b2:	bf00      	nop
 80045b4:	40023c00 	.word	0x40023c00
 80045b8:	40023800 	.word	0x40023800
 80045bc:	0800a084 	.word	0x0800a084
 80045c0:	20000008 	.word	0x20000008
 80045c4:	2000000c 	.word	0x2000000c

080045c8 <HAL_RCC_GetSysClockFreq>:
 80045c8:	e92d 4fb0 	stmdb	sp!, {r4, r5, r7, r8, r9, sl, fp, lr}
 80045cc:	b094      	sub	sp, #80	; 0x50
 80045ce:	af00      	add	r7, sp, #0
 80045d0:	2300      	movs	r3, #0
 80045d2:	647b      	str	r3, [r7, #68]	; 0x44
 80045d4:	2300      	movs	r3, #0
 80045d6:	64fb      	str	r3, [r7, #76]	; 0x4c
 80045d8:	2300      	movs	r3, #0
 80045da:	643b      	str	r3, [r7, #64]	; 0x40
 80045dc:	2300      	movs	r3, #0
 80045de:	64bb      	str	r3, [r7, #72]	; 0x48
 80045e0:	4b79      	ldr	r3, [pc, #484]	; (80047c8 <HAL_RCC_GetSysClockFreq+0x200>)
 80045e2:	689b      	ldr	r3, [r3, #8]
 80045e4:	f003 030c 	and.w	r3, r3, #12
 80045e8:	2b08      	cmp	r3, #8
 80045ea:	d00d      	beq.n	8004608 <HAL_RCC_GetSysClockFreq+0x40>
 80045ec:	2b08      	cmp	r3, #8
 80045ee:	f200 80e1 	bhi.w	80047b4 <HAL_RCC_GetSysClockFreq+0x1ec>
 80045f2:	2b00      	cmp	r3, #0
 80045f4:	d002      	beq.n	80045fc <HAL_RCC_GetSysClockFreq+0x34>
 80045f6:	2b04      	cmp	r3, #4
 80045f8:	d003      	beq.n	8004602 <HAL_RCC_GetSysClockFreq+0x3a>
 80045fa:	e0db      	b.n	80047b4 <HAL_RCC_GetSysClockFreq+0x1ec>
 80045fc:	4b73      	ldr	r3, [pc, #460]	; (80047cc <HAL_RCC_GetSysClockFreq+0x204>)
 80045fe:	64bb      	str	r3, [r7, #72]	; 0x48
 8004600:	e0db      	b.n	80047ba <HAL_RCC_GetSysClockFreq+0x1f2>
 8004602:	4b73      	ldr	r3, [pc, #460]	; (80047d0 <HAL_RCC_GetSysClockFreq+0x208>)
 8004604:	64bb      	str	r3, [r7, #72]	; 0x48
 8004606:	e0d8      	b.n	80047ba <HAL_RCC_GetSysClockFreq+0x1f2>
 8004608:	4b6f      	ldr	r3, [pc, #444]	; (80047c8 <HAL_RCC_GetSysClockFreq+0x200>)
 800460a:	685b      	ldr	r3, [r3, #4]
 800460c:	f003 033f 	and.w	r3, r3, #63	; 0x3f
 8004610:	647b      	str	r3, [r7, #68]	; 0x44
 8004612:	4b6d      	ldr	r3, [pc, #436]	; (80047c8 <HAL_RCC_GetSysClockFreq+0x200>)
 8004614:	685b      	ldr	r3, [r3, #4]
 8004616:	f403 0380 	and.w	r3, r3, #4194304	; 0x400000
 800461a:	2b00      	cmp	r3, #0
 800461c:	d063      	beq.n	80046e6 <HAL_RCC_GetSysClockFreq+0x11e>
 800461e:	4b6a      	ldr	r3, [pc, #424]	; (80047c8 <HAL_RCC_GetSysClockFreq+0x200>)
 8004620:	685b      	ldr	r3, [r3, #4]
 8004622:	099b      	lsrs	r3, r3, #6
 8004624:	2200      	movs	r2, #0
 8004626:	63bb      	str	r3, [r7, #56]	; 0x38
 8004628:	63fa      	str	r2, [r7, #60]	; 0x3c
 800462a:	6bbb      	ldr	r3, [r7, #56]	; 0x38
 800462c:	f3c3 0308 	ubfx	r3, r3, #0, #9
 8004630:	633b      	str	r3, [r7, #48]	; 0x30
 8004632:	2300      	movs	r3, #0
 8004634:	637b      	str	r3, [r7, #52]	; 0x34
 8004636:	e9d7 450c 	ldrd	r4, r5, [r7, #48]	; 0x30
 800463a:	4622      	mov	r2, r4
 800463c:	462b      	mov	r3, r5
 800463e:	f04f 0000 	mov.w	r0, #0
 8004642:	f04f 0100 	mov.w	r1, #0
 8004646:	0159      	lsls	r1, r3, #5
 8004648:	ea41 61d2 	orr.w	r1, r1, r2, lsr #27
 800464c:	0150      	lsls	r0, r2, #5
 800464e:	4602      	mov	r2, r0
 8004650:	460b      	mov	r3, r1
 8004652:	4621      	mov	r1, r4
 8004654:	1a51      	subs	r1, r2, r1
 8004656:	6139      	str	r1, [r7, #16]
 8004658:	4629      	mov	r1, r5
 800465a:	eb63 0301 	sbc.w	r3, r3, r1
 800465e:	617b      	str	r3, [r7, #20]
 8004660:	f04f 0200 	mov.w	r2, #0
 8004664:	f04f 0300 	mov.w	r3, #0
 8004668:	e9d7 ab04 	ldrd	sl, fp, [r7, #16]
 800466c:	4659      	mov	r1, fp
 800466e:	018b      	lsls	r3, r1, #6
 8004670:	4651      	mov	r1, sl
 8004672:	ea43 6391 	orr.w	r3, r3, r1, lsr #26
 8004676:	4651      	mov	r1, sl
 8004678:	018a      	lsls	r2, r1, #6
 800467a:	4651      	mov	r1, sl
 800467c:	ebb2 0801 	subs.w	r8, r2, r1
 8004680:	4659      	mov	r1, fp
 8004682:	eb63 0901 	sbc.w	r9, r3, r1
 8004686:	f04f 0200 	mov.w	r2, #0
 800468a:	f04f 0300 	mov.w	r3, #0
 800468e:	ea4f 03c9 	mov.w	r3, r9, lsl #3
 8004692:	ea43 7358 	orr.w	r3, r3, r8, lsr #29
 8004696:	ea4f 02c8 	mov.w	r2, r8, lsl #3
 800469a:	4690      	mov	r8, r2
 800469c:	4699      	mov	r9, r3
 800469e:	4623      	mov	r3, r4
 80046a0:	eb18 0303 	adds.w	r3, r8, r3
 80046a4:	60bb      	str	r3, [r7, #8]
 80046a6:	462b      	mov	r3, r5
 80046a8:	eb49 0303 	adc.w	r3, r9, r3
 80046ac:	60fb      	str	r3, [r7, #12]
 80046ae:	f04f 0200 	mov.w	r2, #0
 80046b2:	f04f 0300 	mov.w	r3, #0
 80046b6:	e9d7 4502 	ldrd	r4, r5, [r7, #8]
 80046ba:	4629      	mov	r1, r5
 80046bc:	024b      	lsls	r3, r1, #9
 80046be:	4621      	mov	r1, r4
 80046c0:	ea43 53d1 	orr.w	r3, r3, r1, lsr #23
 80046c4:	4621      	mov	r1, r4
 80046c6:	024a      	lsls	r2, r1, #9
 80046c8:	4610      	mov	r0, r2
 80046ca:	4619      	mov	r1, r3
 80046cc:	6c7b      	ldr	r3, [r7, #68]	; 0x44
 80046ce:	2200      	movs	r2, #0
 80046d0:	62bb      	str	r3, [r7, #40]	; 0x28
 80046d2:	62fa      	str	r2, [r7, #44]	; 0x2c
 80046d4:	e9d7 230a 	ldrd	r2, r3, [r7, #40]	; 0x28
 80046d8:	f7fb ff52 	bl	8000580 <__aeabi_uldivmod>
 80046dc:	4602      	mov	r2, r0
 80046de:	460b      	mov	r3, r1
 80046e0:	4613      	mov	r3, r2
 80046e2:	64fb      	str	r3, [r7, #76]	; 0x4c
 80046e4:	e058      	b.n	8004798 <HAL_RCC_GetSysClockFreq+0x1d0>
 80046e6:	4b38      	ldr	r3, [pc, #224]	; (80047c8 <HAL_RCC_GetSysClockFreq+0x200>)
 80046e8:	685b      	ldr	r3, [r3, #4]
 80046ea:	099b      	lsrs	r3, r3, #6
 80046ec:	2200      	movs	r2, #0
 80046ee:	4618      	mov	r0, r3
 80046f0:	4611      	mov	r1, r2
 80046f2:	f3c0 0308 	ubfx	r3, r0, #0, #9
 80046f6:	623b      	str	r3, [r7, #32]
 80046f8:	2300      	movs	r3, #0
 80046fa:	627b      	str	r3, [r7, #36]	; 0x24
 80046fc:	e9d7 8908 	ldrd	r8, r9, [r7, #32]
 8004700:	4642      	mov	r2, r8
 8004702:	464b      	mov	r3, r9
 8004704:	f04f 0000 	mov.w	r0, #0
 8004708:	f04f 0100 	mov.w	r1, #0
 800470c:	0159      	lsls	r1, r3, #5
 800470e:	ea41 61d2 	orr.w	r1, r1, r2, lsr #27
 8004712:	0150      	lsls	r0, r2, #5
 8004714:	4602      	mov	r2, r0
 8004716:	460b      	mov	r3, r1
 8004718:	4641      	mov	r1, r8
 800471a:	ebb2 0a01 	subs.w	sl, r2, r1
 800471e:	4649      	mov	r1, r9
 8004720:	eb63 0b01 	sbc.w	fp, r3, r1
 8004724:	f04f 0200 	mov.w	r2, #0
 8004728:	f04f 0300 	mov.w	r3, #0
 800472c:	ea4f 138b 	mov.w	r3, fp, lsl #6
 8004730:	ea43 639a 	orr.w	r3, r3, sl, lsr #26
 8004734:	ea4f 128a 	mov.w	r2, sl, lsl #6
 8004738:	ebb2 040a 	subs.w	r4, r2, sl
 800473c:	eb63 050b 	sbc.w	r5, r3, fp
 8004740:	f04f 0200 	mov.w	r2, #0
 8004744:	f04f 0300 	mov.w	r3, #0
 8004748:	00eb      	lsls	r3, r5, #3
 800474a:	ea43 7354 	orr.w	r3, r3, r4, lsr #29
 800474e:	00e2      	lsls	r2, r4, #3
 8004750:	4614      	mov	r4, r2
 8004752:	461d      	mov	r5, r3
 8004754:	4643      	mov	r3, r8
 8004756:	18e3      	adds	r3, r4, r3
 8004758:	603b      	str	r3, [r7, #0]
 800475a:	464b      	mov	r3, r9
 800475c:	eb45 0303 	adc.w	r3, r5, r3
 8004760:	607b      	str	r3, [r7, #4]
 8004762:	f04f 0200 	mov.w	r2, #0
 8004766:	f04f 0300 	mov.w	r3, #0
 800476a:	e9d7 4500 	ldrd	r4, r5, [r7]
 800476e:	4629      	mov	r1, r5
 8004770:	028b      	lsls	r3, r1, #10
 8004772:	4621      	mov	r1, r4
 8004774:	ea43 5391 	orr.w	r3, r3, r1, lsr #22
 8004778:	4621      	mov	r1, r4
 800477a:	028a      	lsls	r2, r1, #10
 800477c:	4610      	mov	r0, r2
 800477e:	4619      	mov	r1, r3
 8004780:	6c7b      	ldr	r3, [r7, #68]	; 0x44
 8004782:	2200      	movs	r2, #0
 8004784:	61bb      	str	r3, [r7, #24]
 8004786:	61fa      	str	r2, [r7, #28]
 8004788:	e9d7 2306 	ldrd	r2, r3, [r7, #24]
 800478c:	f7fb fef8 	bl	8000580 <__aeabi_uldivmod>
 8004790:	4602      	mov	r2, r0
 8004792:	460b      	mov	r3, r1
 8004794:	4613      	mov	r3, r2
 8004796:	64fb      	str	r3, [r7, #76]	; 0x4c
 8004798:	4b0b      	ldr	r3, [pc, #44]	; (80047c8 <HAL_RCC_GetSysClockFreq+0x200>)
 800479a:	685b      	ldr	r3, [r3, #4]
 800479c:	0c1b      	lsrs	r3, r3, #16
 800479e:	f003 0303 	and.w	r3, r3, #3
 80047a2:	3301      	adds	r3, #1
 80047a4:	005b      	lsls	r3, r3, #1
 80047a6:	643b      	str	r3, [r7, #64]	; 0x40
 80047a8:	6cfa      	ldr	r2, [r7, #76]	; 0x4c
 80047aa:	6c3b      	ldr	r3, [r7, #64]	; 0x40
 80047ac:	fbb2 f3f3 	udiv	r3, r2, r3
 80047b0:	64bb      	str	r3, [r7, #72]	; 0x48
 80047b2:	e002      	b.n	80047ba <HAL_RCC_GetSysClockFreq+0x1f2>
 80047b4:	4b05      	ldr	r3, [pc, #20]	; (80047cc <HAL_RCC_GetSysClockFreq+0x204>)
 80047b6:	64bb      	str	r3, [r7, #72]	; 0x48
 80047b8:	bf00      	nop
 80047ba:	6cbb      	ldr	r3, [r7, #72]	; 0x48
 80047bc:	4618      	mov	r0, r3
 80047be:	3750      	adds	r7, #80	; 0x50
 80047c0:	46bd      	mov	sp, r7
 80047c2:	e8bd 8fb0 	ldmia.w	sp!, {r4, r5, r7, r8, r9, sl, fp, pc}
 80047c6:	bf00      	nop
 80047c8:	40023800 	.word	0x40023800
 80047cc:	00f42400 	.word	0x00f42400
 80047d0:	007a1200 	.word	0x007a1200

080047d4 <HAL_RCC_GetHCLKFreq>:
 80047d4:	b480      	push	{r7}
 80047d6:	af00      	add	r7, sp, #0
 80047d8:	4b03      	ldr	r3, [pc, #12]	; (80047e8 <HAL_RCC_GetHCLKFreq+0x14>)
 80047da:	681b      	ldr	r3, [r3, #0]
 80047dc:	4618      	mov	r0, r3
 80047de:	46bd      	mov	sp, r7
 80047e0:	f85d 7b04 	ldr.w	r7, [sp], #4
 80047e4:	4770      	bx	lr
 80047e6:	bf00      	nop
 80047e8:	20000008 	.word	0x20000008

080047ec <HAL_RCC_GetPCLK1Freq>:
 80047ec:	b580      	push	{r7, lr}
 80047ee:	af00      	add	r7, sp, #0
 80047f0:	f7ff fff0 	bl	80047d4 <HAL_RCC_GetHCLKFreq>
 80047f4:	4602      	mov	r2, r0
 80047f6:	4b05      	ldr	r3, [pc, #20]	; (800480c <HAL_RCC_GetPCLK1Freq+0x20>)
 80047f8:	689b      	ldr	r3, [r3, #8]
 80047fa:	0a9b      	lsrs	r3, r3, #10
 80047fc:	f003 0307 	and.w	r3, r3, #7
 8004800:	4903      	ldr	r1, [pc, #12]	; (8004810 <HAL_RCC_GetPCLK1Freq+0x24>)
 8004802:	5ccb      	ldrb	r3, [r1, r3]
 8004804:	fa22 f303 	lsr.w	r3, r2, r3
 8004808:	4618      	mov	r0, r3
 800480a:	bd80      	pop	{r7, pc}
 800480c:	40023800 	.word	0x40023800
 8004810:	0800a094 	.word	0x0800a094

08004814 <HAL_RCC_GetPCLK2Freq>:
 8004814:	b580      	push	{r7, lr}
 8004816:	af00      	add	r7, sp, #0
 8004818:	f7ff ffdc 	bl	80047d4 <HAL_RCC_GetHCLKFreq>
 800481c:	4602      	mov	r2, r0
 800481e:	4b05      	ldr	r3, [pc, #20]	; (8004834 <HAL_RCC_GetPCLK2Freq+0x20>)
 8004820:	689b      	ldr	r3, [r3, #8]
 8004822:	0b5b      	lsrs	r3, r3, #13
 8004824:	f003 0307 	and.w	r3, r3, #7
 8004828:	4903      	ldr	r1, [pc, #12]	; (8004838 <HAL_RCC_GetPCLK2Freq+0x24>)
 800482a:	5ccb      	ldrb	r3, [r1, r3]
 800482c:	fa22 f303 	lsr.w	r3, r2, r3
 8004830:	4618      	mov	r0, r3
 8004832:	bd80      	pop	{r7, pc}
 8004834:	40023800 	.word	0x40023800
 8004838:	0800a094 	.word	0x0800a094

0800483c <HAL_SPI_Init>:
 800483c:	b580      	push	{r7, lr}
 800483e:	b082      	sub	sp, #8
 8004840:	af00      	add	r7, sp, #0
 8004842:	6078      	str	r0, [r7, #4]
 8004844:	687b      	ldr	r3, [r7, #4]
 8004846:	2b00      	cmp	r3, #0
 8004848:	d101      	bne.n	800484e <HAL_SPI_Init+0x12>
 800484a:	2301      	movs	r3, #1
 800484c:	e07b      	b.n	8004946 <HAL_SPI_Init+0x10a>
 800484e:	687b      	ldr	r3, [r7, #4]
 8004850:	6a5b      	ldr	r3, [r3, #36]	; 0x24
 8004852:	2b00      	cmp	r3, #0
 8004854:	d108      	bne.n	8004868 <HAL_SPI_Init+0x2c>
 8004856:	687b      	ldr	r3, [r7, #4]
 8004858:	685b      	ldr	r3, [r3, #4]
 800485a:	f5b3 7f82 	cmp.w	r3, #260	; 0x104
 800485e:	d009      	beq.n	8004874 <HAL_SPI_Init+0x38>
 8004860:	687b      	ldr	r3, [r7, #4]
 8004862:	2200      	movs	r2, #0
 8004864:	61da      	str	r2, [r3, #28]
 8004866:	e005      	b.n	8004874 <HAL_SPI_Init+0x38>
 8004868:	687b      	ldr	r3, [r7, #4]
 800486a:	2200      	movs	r2, #0
 800486c:	611a      	str	r2, [r3, #16]
 800486e:	687b      	ldr	r3, [r7, #4]
 8004870:	2200      	movs	r2, #0
 8004872:	615a      	str	r2, [r3, #20]
 8004874:	687b      	ldr	r3, [r7, #4]
 8004876:	2200      	movs	r2, #0
 8004878:	629a      	str	r2, [r3, #40]	; 0x28
 800487a:	687b      	ldr	r3, [r7, #4]
 800487c:	f893 3051 	ldrb.w	r3, [r3, #81]	; 0x51
 8004880:	b2db      	uxtb	r3, r3
 8004882:	2b00      	cmp	r3, #0
 8004884:	d106      	bne.n	8004894 <HAL_SPI_Init+0x58>
 8004886:	687b      	ldr	r3, [r7, #4]
 8004888:	2200      	movs	r2, #0
 800488a:	f883 2050 	strb.w	r2, [r3, #80]	; 0x50
 800488e:	6878      	ldr	r0, [r7, #4]
 8004890:	f7fd fa8e 	bl	8001db0 <HAL_SPI_MspInit>
 8004894:	687b      	ldr	r3, [r7, #4]
 8004896:	2202      	movs	r2, #2
 8004898:	f883 2051 	strb.w	r2, [r3, #81]	; 0x51
 800489c:	687b      	ldr	r3, [r7, #4]
 800489e:	681b      	ldr	r3, [r3, #0]
 80048a0:	681a      	ldr	r2, [r3, #0]
 80048a2:	687b      	ldr	r3, [r7, #4]
 80048a4:	681b      	ldr	r3, [r3, #0]
 80048a6:	f022 0240 	bic.w	r2, r2, #64	; 0x40
 80048aa:	601a      	str	r2, [r3, #0]
 80048ac:	687b      	ldr	r3, [r7, #4]
 80048ae:	685b      	ldr	r3, [r3, #4]
 80048b0:	f403 7282 	and.w	r2, r3, #260	; 0x104
 80048b4:	687b      	ldr	r3, [r7, #4]
 80048b6:	689b      	ldr	r3, [r3, #8]
 80048b8:	f403 4304 	and.w	r3, r3, #33792	; 0x8400
 80048bc:	431a      	orrs	r2, r3
 80048be:	687b      	ldr	r3, [r7, #4]
 80048c0:	68db      	ldr	r3, [r3, #12]
 80048c2:	f403 6300 	and.w	r3, r3, #2048	; 0x800
 80048c6:	431a      	orrs	r2, r3
 80048c8:	687b      	ldr	r3, [r7, #4]
 80048ca:	691b      	ldr	r3, [r3, #16]
 80048cc:	f003 0302 	and.w	r3, r3, #2
 80048d0:	431a      	orrs	r2, r3
 80048d2:	687b      	ldr	r3, [r7, #4]
 80048d4:	695b      	ldr	r3, [r3, #20]
 80048d6:	f003 0301 	and.w	r3, r3, #1
 80048da:	431a      	orrs	r2, r3
 80048dc:	687b      	ldr	r3, [r7, #4]
 80048de:	699b      	ldr	r3, [r3, #24]
 80048e0:	f403 7300 	and.w	r3, r3, #512	; 0x200
 80048e4:	431a      	orrs	r2, r3
 80048e6:	687b      	ldr	r3, [r7, #4]
 80048e8:	69db      	ldr	r3, [r3, #28]
 80048ea:	f003 0338 	and.w	r3, r3, #56	; 0x38
 80048ee:	431a      	orrs	r2, r3
 80048f0:	687b      	ldr	r3, [r7, #4]
 80048f2:	6a1b      	ldr	r3, [r3, #32]
 80048f4:	f003 0380 	and.w	r3, r3, #128	; 0x80
 80048f8:	ea42 0103 	orr.w	r1, r2, r3
 80048fc:	687b      	ldr	r3, [r7, #4]
 80048fe:	6a9b      	ldr	r3, [r3, #40]	; 0x28
 8004900:	f403 5200 	and.w	r2, r3, #8192	; 0x2000
 8004904:	687b      	ldr	r3, [r7, #4]
 8004906:	681b      	ldr	r3, [r3, #0]
 8004908:	430a      	orrs	r2, r1
 800490a:	601a      	str	r2, [r3, #0]
 800490c:	687b      	ldr	r3, [r7, #4]
 800490e:	699b      	ldr	r3, [r3, #24]
 8004910:	0c1b      	lsrs	r3, r3, #16
 8004912:	f003 0104 	and.w	r1, r3, #4
 8004916:	687b      	ldr	r3, [r7, #4]
 8004918:	6a5b      	ldr	r3, [r3, #36]	; 0x24
 800491a:	f003 0210 	and.w	r2, r3, #16
 800491e:	687b      	ldr	r3, [r7, #4]
 8004920:	681b      	ldr	r3, [r3, #0]
 8004922:	430a      	orrs	r2, r1
 8004924:	605a      	str	r2, [r3, #4]
 8004926:	687b      	ldr	r3, [r7, #4]
 8004928:	681b      	ldr	r3, [r3, #0]
 800492a:	69da      	ldr	r2, [r3, #28]
 800492c:	687b      	ldr	r3, [r7, #4]
 800492e:	681b      	ldr	r3, [r3, #0]
 8004930:	f422 6200 	bic.w	r2, r2, #2048	; 0x800
 8004934:	61da      	str	r2, [r3, #28]
 8004936:	687b      	ldr	r3, [r7, #4]
 8004938:	2200      	movs	r2, #0
 800493a:	655a      	str	r2, [r3, #84]	; 0x54
 800493c:	687b      	ldr	r3, [r7, #4]
 800493e:	2201      	movs	r2, #1
 8004940:	f883 2051 	strb.w	r2, [r3, #81]	; 0x51
 8004944:	2300      	movs	r3, #0
 8004946:	4618      	mov	r0, r3
 8004948:	3708      	adds	r7, #8
 800494a:	46bd      	mov	sp, r7
 800494c:	bd80      	pop	{r7, pc}

0800494e <HAL_SPI_Transmit>:
 800494e:	b580      	push	{r7, lr}
 8004950:	b088      	sub	sp, #32
 8004952:	af00      	add	r7, sp, #0
 8004954:	60f8      	str	r0, [r7, #12]
 8004956:	60b9      	str	r1, [r7, #8]
 8004958:	603b      	str	r3, [r7, #0]
 800495a:	4613      	mov	r3, r2
 800495c:	80fb      	strh	r3, [r7, #6]
 800495e:	2300      	movs	r3, #0
 8004960:	77fb      	strb	r3, [r7, #31]
 8004962:	68fb      	ldr	r3, [r7, #12]
 8004964:	f893 3050 	ldrb.w	r3, [r3, #80]	; 0x50
 8004968:	2b01      	cmp	r3, #1
 800496a:	d101      	bne.n	8004970 <HAL_SPI_Transmit+0x22>
 800496c:	2302      	movs	r3, #2
 800496e:	e126      	b.n	8004bbe <HAL_SPI_Transmit+0x270>
 8004970:	68fb      	ldr	r3, [r7, #12]
 8004972:	2201      	movs	r2, #1
 8004974:	f883 2050 	strb.w	r2, [r3, #80]	; 0x50
 8004978:	f7fd fe46 	bl	8002608 <HAL_GetTick>
 800497c:	61b8      	str	r0, [r7, #24]
 800497e:	88fb      	ldrh	r3, [r7, #6]
 8004980:	82fb      	strh	r3, [r7, #22]
 8004982:	68fb      	ldr	r3, [r7, #12]
 8004984:	f893 3051 	ldrb.w	r3, [r3, #81]	; 0x51
 8004988:	b2db      	uxtb	r3, r3
 800498a:	2b01      	cmp	r3, #1
 800498c:	d002      	beq.n	8004994 <HAL_SPI_Transmit+0x46>
 800498e:	2302      	movs	r3, #2
 8004990:	77fb      	strb	r3, [r7, #31]
 8004992:	e10b      	b.n	8004bac <HAL_SPI_Transmit+0x25e>
 8004994:	68bb      	ldr	r3, [r7, #8]
 8004996:	2b00      	cmp	r3, #0
 8004998:	d002      	beq.n	80049a0 <HAL_SPI_Transmit+0x52>
 800499a:	88fb      	ldrh	r3, [r7, #6]
 800499c:	2b00      	cmp	r3, #0
 800499e:	d102      	bne.n	80049a6 <HAL_SPI_Transmit+0x58>
 80049a0:	2301      	movs	r3, #1
 80049a2:	77fb      	strb	r3, [r7, #31]
 80049a4:	e102      	b.n	8004bac <HAL_SPI_Transmit+0x25e>
 80049a6:	68fb      	ldr	r3, [r7, #12]
 80049a8:	2203      	movs	r2, #3
 80049aa:	f883 2051 	strb.w	r2, [r3, #81]	; 0x51
 80049ae:	68fb      	ldr	r3, [r7, #12]
 80049b0:	2200      	movs	r2, #0
 80049b2:	655a      	str	r2, [r3, #84]	; 0x54
 80049b4:	68fb      	ldr	r3, [r7, #12]
 80049b6:	68ba      	ldr	r2, [r7, #8]
 80049b8:	631a      	str	r2, [r3, #48]	; 0x30
 80049ba:	68fb      	ldr	r3, [r7, #12]
 80049bc:	88fa      	ldrh	r2, [r7, #6]
 80049be:	869a      	strh	r2, [r3, #52]	; 0x34
 80049c0:	68fb      	ldr	r3, [r7, #12]
 80049c2:	88fa      	ldrh	r2, [r7, #6]
 80049c4:	86da      	strh	r2, [r3, #54]	; 0x36
 80049c6:	68fb      	ldr	r3, [r7, #12]
 80049c8:	2200      	movs	r2, #0
 80049ca:	639a      	str	r2, [r3, #56]	; 0x38
 80049cc:	68fb      	ldr	r3, [r7, #12]
 80049ce:	2200      	movs	r2, #0
 80049d0:	879a      	strh	r2, [r3, #60]	; 0x3c
 80049d2:	68fb      	ldr	r3, [r7, #12]
 80049d4:	2200      	movs	r2, #0
 80049d6:	87da      	strh	r2, [r3, #62]	; 0x3e
 80049d8:	68fb      	ldr	r3, [r7, #12]
 80049da:	2200      	movs	r2, #0
 80049dc:	645a      	str	r2, [r3, #68]	; 0x44
 80049de:	68fb      	ldr	r3, [r7, #12]
 80049e0:	2200      	movs	r2, #0
 80049e2:	641a      	str	r2, [r3, #64]	; 0x40
 80049e4:	68fb      	ldr	r3, [r7, #12]
 80049e6:	689b      	ldr	r3, [r3, #8]
 80049e8:	f5b3 4f00 	cmp.w	r3, #32768	; 0x8000
 80049ec:	d10f      	bne.n	8004a0e <HAL_SPI_Transmit+0xc0>
 80049ee:	68fb      	ldr	r3, [r7, #12]
 80049f0:	681b      	ldr	r3, [r3, #0]
 80049f2:	681a      	ldr	r2, [r3, #0]
 80049f4:	68fb      	ldr	r3, [r7, #12]
 80049f6:	681b      	ldr	r3, [r3, #0]
 80049f8:	f022 0240 	bic.w	r2, r2, #64	; 0x40
 80049fc:	601a      	str	r2, [r3, #0]
 80049fe:	68fb      	ldr	r3, [r7, #12]
 8004a00:	681b      	ldr	r3, [r3, #0]
 8004a02:	681a      	ldr	r2, [r3, #0]
 8004a04:	68fb      	ldr	r3, [r7, #12]
 8004a06:	681b      	ldr	r3, [r3, #0]
 8004a08:	f442 4280 	orr.w	r2, r2, #16384	; 0x4000
 8004a0c:	601a      	str	r2, [r3, #0]
 8004a0e:	68fb      	ldr	r3, [r7, #12]
 8004a10:	681b      	ldr	r3, [r3, #0]
 8004a12:	681b      	ldr	r3, [r3, #0]
 8004a14:	f003 0340 	and.w	r3, r3, #64	; 0x40
 8004a18:	2b40      	cmp	r3, #64	; 0x40
 8004a1a:	d007      	beq.n	8004a2c <HAL_SPI_Transmit+0xde>
 8004a1c:	68fb      	ldr	r3, [r7, #12]
 8004a1e:	681b      	ldr	r3, [r3, #0]
 8004a20:	681a      	ldr	r2, [r3, #0]
 8004a22:	68fb      	ldr	r3, [r7, #12]
 8004a24:	681b      	ldr	r3, [r3, #0]
 8004a26:	f042 0240 	orr.w	r2, r2, #64	; 0x40
 8004a2a:	601a      	str	r2, [r3, #0]
 8004a2c:	68fb      	ldr	r3, [r7, #12]
 8004a2e:	68db      	ldr	r3, [r3, #12]
 8004a30:	f5b3 6f00 	cmp.w	r3, #2048	; 0x800
 8004a34:	d14b      	bne.n	8004ace <HAL_SPI_Transmit+0x180>
 8004a36:	68fb      	ldr	r3, [r7, #12]
 8004a38:	685b      	ldr	r3, [r3, #4]
 8004a3a:	2b00      	cmp	r3, #0
 8004a3c:	d002      	beq.n	8004a44 <HAL_SPI_Transmit+0xf6>
 8004a3e:	8afb      	ldrh	r3, [r7, #22]
 8004a40:	2b01      	cmp	r3, #1
 8004a42:	d13e      	bne.n	8004ac2 <HAL_SPI_Transmit+0x174>
 8004a44:	68fb      	ldr	r3, [r7, #12]
 8004a46:	6b1b      	ldr	r3, [r3, #48]	; 0x30
 8004a48:	881a      	ldrh	r2, [r3, #0]
 8004a4a:	68fb      	ldr	r3, [r7, #12]
 8004a4c:	681b      	ldr	r3, [r3, #0]
 8004a4e:	60da      	str	r2, [r3, #12]
 8004a50:	68fb      	ldr	r3, [r7, #12]
 8004a52:	6b1b      	ldr	r3, [r3, #48]	; 0x30
 8004a54:	1c9a      	adds	r2, r3, #2
 8004a56:	68fb      	ldr	r3, [r7, #12]
 8004a58:	631a      	str	r2, [r3, #48]	; 0x30
 8004a5a:	68fb      	ldr	r3, [r7, #12]
 8004a5c:	8edb      	ldrh	r3, [r3, #54]	; 0x36
 8004a5e:	b29b      	uxth	r3, r3
 8004a60:	3b01      	subs	r3, #1
 8004a62:	b29a      	uxth	r2, r3
 8004a64:	68fb      	ldr	r3, [r7, #12]
 8004a66:	86da      	strh	r2, [r3, #54]	; 0x36
 8004a68:	e02b      	b.n	8004ac2 <HAL_SPI_Transmit+0x174>
 8004a6a:	68fb      	ldr	r3, [r7, #12]
 8004a6c:	681b      	ldr	r3, [r3, #0]
 8004a6e:	689b      	ldr	r3, [r3, #8]
 8004a70:	f003 0302 	and.w	r3, r3, #2
 8004a74:	2b02      	cmp	r3, #2
 8004a76:	d112      	bne.n	8004a9e <HAL_SPI_Transmit+0x150>
 8004a78:	68fb      	ldr	r3, [r7, #12]
 8004a7a:	6b1b      	ldr	r3, [r3, #48]	; 0x30
 8004a7c:	881a      	ldrh	r2, [r3, #0]
 8004a7e:	68fb      	ldr	r3, [r7, #12]
 8004a80:	681b      	ldr	r3, [r3, #0]
 8004a82:	60da      	str	r2, [r3, #12]
 8004a84:	68fb      	ldr	r3, [r7, #12]
 8004a86:	6b1b      	ldr	r3, [r3, #48]	; 0x30
 8004a88:	1c9a      	adds	r2, r3, #2
 8004a8a:	68fb      	ldr	r3, [r7, #12]
 8004a8c:	631a      	str	r2, [r3, #48]	; 0x30
 8004a8e:	68fb      	ldr	r3, [r7, #12]
 8004a90:	8edb      	ldrh	r3, [r3, #54]	; 0x36
 8004a92:	b29b      	uxth	r3, r3
 8004a94:	3b01      	subs	r3, #1
 8004a96:	b29a      	uxth	r2, r3
 8004a98:	68fb      	ldr	r3, [r7, #12]
 8004a9a:	86da      	strh	r2, [r3, #54]	; 0x36
 8004a9c:	e011      	b.n	8004ac2 <HAL_SPI_Transmit+0x174>
 8004a9e:	f7fd fdb3 	bl	8002608 <HAL_GetTick>
 8004aa2:	4602      	mov	r2, r0
 8004aa4:	69bb      	ldr	r3, [r7, #24]
 8004aa6:	1ad3      	subs	r3, r2, r3
 8004aa8:	683a      	ldr	r2, [r7, #0]
 8004aaa:	429a      	cmp	r2, r3
 8004aac:	d803      	bhi.n	8004ab6 <HAL_SPI_Transmit+0x168>
 8004aae:	683b      	ldr	r3, [r7, #0]
 8004ab0:	f1b3 3fff 	cmp.w	r3, #4294967295
 8004ab4:	d102      	bne.n	8004abc <HAL_SPI_Transmit+0x16e>
 8004ab6:	683b      	ldr	r3, [r7, #0]
 8004ab8:	2b00      	cmp	r3, #0
 8004aba:	d102      	bne.n	8004ac2 <HAL_SPI_Transmit+0x174>
 8004abc:	2303      	movs	r3, #3
 8004abe:	77fb      	strb	r3, [r7, #31]
 8004ac0:	e074      	b.n	8004bac <HAL_SPI_Transmit+0x25e>
 8004ac2:	68fb      	ldr	r3, [r7, #12]
 8004ac4:	8edb      	ldrh	r3, [r3, #54]	; 0x36
 8004ac6:	b29b      	uxth	r3, r3
 8004ac8:	2b00      	cmp	r3, #0
 8004aca:	d1ce      	bne.n	8004a6a <HAL_SPI_Transmit+0x11c>
 8004acc:	e04c      	b.n	8004b68 <HAL_SPI_Transmit+0x21a>
 8004ace:	68fb      	ldr	r3, [r7, #12]
 8004ad0:	685b      	ldr	r3, [r3, #4]
 8004ad2:	2b00      	cmp	r3, #0
 8004ad4:	d002      	beq.n	8004adc <HAL_SPI_Transmit+0x18e>
 8004ad6:	8afb      	ldrh	r3, [r7, #22]
 8004ad8:	2b01      	cmp	r3, #1
 8004ada:	d140      	bne.n	8004b5e <HAL_SPI_Transmit+0x210>
 8004adc:	68fb      	ldr	r3, [r7, #12]
 8004ade:	6b1a      	ldr	r2, [r3, #48]	; 0x30
 8004ae0:	68fb      	ldr	r3, [r7, #12]
 8004ae2:	681b      	ldr	r3, [r3, #0]
 8004ae4:	330c      	adds	r3, #12
 8004ae6:	7812      	ldrb	r2, [r2, #0]
 8004ae8:	701a      	strb	r2, [r3, #0]
 8004aea:	68fb      	ldr	r3, [r7, #12]
 8004aec:	6b1b      	ldr	r3, [r3, #48]	; 0x30
 8004aee:	1c5a      	adds	r2, r3, #1
 8004af0:	68fb      	ldr	r3, [r7, #12]
 8004af2:	631a      	str	r2, [r3, #48]	; 0x30
 8004af4:	68fb      	ldr	r3, [r7, #12]
 8004af6:	8edb      	ldrh	r3, [r3, #54]	; 0x36
 8004af8:	b29b      	uxth	r3, r3
 8004afa:	3b01      	subs	r3, #1
 8004afc:	b29a      	uxth	r2, r3
 8004afe:	68fb      	ldr	r3, [r7, #12]
 8004b00:	86da      	strh	r2, [r3, #54]	; 0x36
 8004b02:	e02c      	b.n	8004b5e <HAL_SPI_Transmit+0x210>
 8004b04:	68fb      	ldr	r3, [r7, #12]
 8004b06:	681b      	ldr	r3, [r3, #0]
 8004b08:	689b      	ldr	r3, [r3, #8]
 8004b0a:	f003 0302 	and.w	r3, r3, #2
 8004b0e:	2b02      	cmp	r3, #2
 8004b10:	d113      	bne.n	8004b3a <HAL_SPI_Transmit+0x1ec>
 8004b12:	68fb      	ldr	r3, [r7, #12]
 8004b14:	6b1a      	ldr	r2, [r3, #48]	; 0x30
 8004b16:	68fb      	ldr	r3, [r7, #12]
 8004b18:	681b      	ldr	r3, [r3, #0]
 8004b1a:	330c      	adds	r3, #12
 8004b1c:	7812      	ldrb	r2, [r2, #0]
 8004b1e:	701a      	strb	r2, [r3, #0]
 8004b20:	68fb      	ldr	r3, [r7, #12]
 8004b22:	6b1b      	ldr	r3, [r3, #48]	; 0x30
 8004b24:	1c5a      	adds	r2, r3, #1
 8004b26:	68fb      	ldr	r3, [r7, #12]
 8004b28:	631a      	str	r2, [r3, #48]	; 0x30
 8004b2a:	68fb      	ldr	r3, [r7, #12]
 8004b2c:	8edb      	ldrh	r3, [r3, #54]	; 0x36
 8004b2e:	b29b      	uxth	r3, r3
 8004b30:	3b01      	subs	r3, #1
 8004b32:	b29a      	uxth	r2, r3
 8004b34:	68fb      	ldr	r3, [r7, #12]
 8004b36:	86da      	strh	r2, [r3, #54]	; 0x36
 8004b38:	e011      	b.n	8004b5e <HAL_SPI_Transmit+0x210>
 8004b3a:	f7fd fd65 	bl	8002608 <HAL_GetTick>
 8004b3e:	4602      	mov	r2, r0
 8004b40:	69bb      	ldr	r3, [r7, #24]
 8004b42:	1ad3      	subs	r3, r2, r3
 8004b44:	683a      	ldr	r2, [r7, #0]
 8004b46:	429a      	cmp	r2, r3
 8004b48:	d803      	bhi.n	8004b52 <HAL_SPI_Transmit+0x204>
 8004b4a:	683b      	ldr	r3, [r7, #0]
 8004b4c:	f1b3 3fff 	cmp.w	r3, #4294967295
 8004b50:	d102      	bne.n	8004b58 <HAL_SPI_Transmit+0x20a>
 8004b52:	683b      	ldr	r3, [r7, #0]
 8004b54:	2b00      	cmp	r3, #0
 8004b56:	d102      	bne.n	8004b5e <HAL_SPI_Transmit+0x210>
 8004b58:	2303      	movs	r3, #3
 8004b5a:	77fb      	strb	r3, [r7, #31]
 8004b5c:	e026      	b.n	8004bac <HAL_SPI_Transmit+0x25e>
 8004b5e:	68fb      	ldr	r3, [r7, #12]
 8004b60:	8edb      	ldrh	r3, [r3, #54]	; 0x36
 8004b62:	b29b      	uxth	r3, r3
 8004b64:	2b00      	cmp	r3, #0
 8004b66:	d1cd      	bne.n	8004b04 <HAL_SPI_Transmit+0x1b6>
 8004b68:	69ba      	ldr	r2, [r7, #24]
 8004b6a:	6839      	ldr	r1, [r7, #0]
 8004b6c:	68f8      	ldr	r0, [r7, #12]
 8004b6e:	f000 f8b3 	bl	8004cd8 <SPI_EndRxTxTransaction>
 8004b72:	4603      	mov	r3, r0
 8004b74:	2b00      	cmp	r3, #0
 8004b76:	d002      	beq.n	8004b7e <HAL_SPI_Transmit+0x230>
 8004b78:	68fb      	ldr	r3, [r7, #12]
 8004b7a:	2220      	movs	r2, #32
 8004b7c:	655a      	str	r2, [r3, #84]	; 0x54
 8004b7e:	68fb      	ldr	r3, [r7, #12]
 8004b80:	689b      	ldr	r3, [r3, #8]
 8004b82:	2b00      	cmp	r3, #0
 8004b84:	d10a      	bne.n	8004b9c <HAL_SPI_Transmit+0x24e>
 8004b86:	2300      	movs	r3, #0
 8004b88:	613b      	str	r3, [r7, #16]
 8004b8a:	68fb      	ldr	r3, [r7, #12]
 8004b8c:	681b      	ldr	r3, [r3, #0]
 8004b8e:	68db      	ldr	r3, [r3, #12]
 8004b90:	613b      	str	r3, [r7, #16]
 8004b92:	68fb      	ldr	r3, [r7, #12]
 8004b94:	681b      	ldr	r3, [r3, #0]
 8004b96:	689b      	ldr	r3, [r3, #8]
 8004b98:	613b      	str	r3, [r7, #16]
 8004b9a:	693b      	ldr	r3, [r7, #16]
 8004b9c:	68fb      	ldr	r3, [r7, #12]
 8004b9e:	6d5b      	ldr	r3, [r3, #84]	; 0x54
 8004ba0:	2b00      	cmp	r3, #0
 8004ba2:	d002      	beq.n	8004baa <HAL_SPI_Transmit+0x25c>
 8004ba4:	2301      	movs	r3, #1
 8004ba6:	77fb      	strb	r3, [r7, #31]
 8004ba8:	e000      	b.n	8004bac <HAL_SPI_Transmit+0x25e>
 8004baa:	bf00      	nop
 8004bac:	68fb      	ldr	r3, [r7, #12]
 8004bae:	2201      	movs	r2, #1
 8004bb0:	f883 2051 	strb.w	r2, [r3, #81]	; 0x51
 8004bb4:	68fb      	ldr	r3, [r7, #12]
 8004bb6:	2200      	movs	r2, #0
 8004bb8:	f883 2050 	strb.w	r2, [r3, #80]	; 0x50
 8004bbc:	7ffb      	ldrb	r3, [r7, #31]
 8004bbe:	4618      	mov	r0, r3
 8004bc0:	3720      	adds	r7, #32
 8004bc2:	46bd      	mov	sp, r7
 8004bc4:	bd80      	pop	{r7, pc}
	...

08004bc8 <SPI_WaitFlagStateUntilTimeout>:
 8004bc8:	b580      	push	{r7, lr}
 8004bca:	b088      	sub	sp, #32
 8004bcc:	af00      	add	r7, sp, #0
 8004bce:	60f8      	str	r0, [r7, #12]
 8004bd0:	60b9      	str	r1, [r7, #8]
 8004bd2:	603b      	str	r3, [r7, #0]
 8004bd4:	4613      	mov	r3, r2
 8004bd6:	71fb      	strb	r3, [r7, #7]
 8004bd8:	f7fd fd16 	bl	8002608 <HAL_GetTick>
 8004bdc:	4602      	mov	r2, r0
 8004bde:	6abb      	ldr	r3, [r7, #40]	; 0x28
 8004be0:	1a9b      	subs	r3, r3, r2
 8004be2:	683a      	ldr	r2, [r7, #0]
 8004be4:	4413      	add	r3, r2
 8004be6:	61fb      	str	r3, [r7, #28]
 8004be8:	f7fd fd0e 	bl	8002608 <HAL_GetTick>
 8004bec:	61b8      	str	r0, [r7, #24]
 8004bee:	4b39      	ldr	r3, [pc, #228]	; (8004cd4 <SPI_WaitFlagStateUntilTimeout+0x10c>)
 8004bf0:	681b      	ldr	r3, [r3, #0]
 8004bf2:	015b      	lsls	r3, r3, #5
 8004bf4:	0d1b      	lsrs	r3, r3, #20
 8004bf6:	69fa      	ldr	r2, [r7, #28]
 8004bf8:	fb02 f303 	mul.w	r3, r2, r3
 8004bfc:	617b      	str	r3, [r7, #20]
 8004bfe:	e054      	b.n	8004caa <SPI_WaitFlagStateUntilTimeout+0xe2>
 8004c00:	683b      	ldr	r3, [r7, #0]
 8004c02:	f1b3 3fff 	cmp.w	r3, #4294967295
 8004c06:	d050      	beq.n	8004caa <SPI_WaitFlagStateUntilTimeout+0xe2>
 8004c08:	f7fd fcfe 	bl	8002608 <HAL_GetTick>
 8004c0c:	4602      	mov	r2, r0
 8004c0e:	69bb      	ldr	r3, [r7, #24]
 8004c10:	1ad3      	subs	r3, r2, r3
 8004c12:	69fa      	ldr	r2, [r7, #28]
 8004c14:	429a      	cmp	r2, r3
 8004c16:	d902      	bls.n	8004c1e <SPI_WaitFlagStateUntilTimeout+0x56>
 8004c18:	69fb      	ldr	r3, [r7, #28]
 8004c1a:	2b00      	cmp	r3, #0
 8004c1c:	d13d      	bne.n	8004c9a <SPI_WaitFlagStateUntilTimeout+0xd2>
 8004c1e:	68fb      	ldr	r3, [r7, #12]
 8004c20:	681b      	ldr	r3, [r3, #0]
 8004c22:	685a      	ldr	r2, [r3, #4]
 8004c24:	68fb      	ldr	r3, [r7, #12]
 8004c26:	681b      	ldr	r3, [r3, #0]
 8004c28:	f022 02e0 	bic.w	r2, r2, #224	; 0xe0
 8004c2c:	605a      	str	r2, [r3, #4]
 8004c2e:	68fb      	ldr	r3, [r7, #12]
 8004c30:	685b      	ldr	r3, [r3, #4]
 8004c32:	f5b3 7f82 	cmp.w	r3, #260	; 0x104
 8004c36:	d111      	bne.n	8004c5c <SPI_WaitFlagStateUntilTimeout+0x94>
 8004c38:	68fb      	ldr	r3, [r7, #12]
 8004c3a:	689b      	ldr	r3, [r3, #8]
 8004c3c:	f5b3 4f00 	cmp.w	r3, #32768	; 0x8000
 8004c40:	d004      	beq.n	8004c4c <SPI_WaitFlagStateUntilTimeout+0x84>
 8004c42:	68fb      	ldr	r3, [r7, #12]
 8004c44:	689b      	ldr	r3, [r3, #8]
 8004c46:	f5b3 6f80 	cmp.w	r3, #1024	; 0x400
 8004c4a:	d107      	bne.n	8004c5c <SPI_WaitFlagStateUntilTimeout+0x94>
 8004c4c:	68fb      	ldr	r3, [r7, #12]
 8004c4e:	681b      	ldr	r3, [r3, #0]
 8004c50:	681a      	ldr	r2, [r3, #0]
 8004c52:	68fb      	ldr	r3, [r7, #12]
 8004c54:	681b      	ldr	r3, [r3, #0]
 8004c56:	f022 0240 	bic.w	r2, r2, #64	; 0x40
 8004c5a:	601a      	str	r2, [r3, #0]
 8004c5c:	68fb      	ldr	r3, [r7, #12]
 8004c5e:	6a9b      	ldr	r3, [r3, #40]	; 0x28
 8004c60:	f5b3 5f00 	cmp.w	r3, #8192	; 0x2000
 8004c64:	d10f      	bne.n	8004c86 <SPI_WaitFlagStateUntilTimeout+0xbe>
 8004c66:	68fb      	ldr	r3, [r7, #12]
 8004c68:	681b      	ldr	r3, [r3, #0]
 8004c6a:	681a      	ldr	r2, [r3, #0]
 8004c6c:	68fb      	ldr	r3, [r7, #12]
 8004c6e:	681b      	ldr	r3, [r3, #0]
 8004c70:	f422 5200 	bic.w	r2, r2, #8192	; 0x2000
 8004c74:	601a      	str	r2, [r3, #0]
 8004c76:	68fb      	ldr	r3, [r7, #12]
 8004c78:	681b      	ldr	r3, [r3, #0]
 8004c7a:	681a      	ldr	r2, [r3, #0]
 8004c7c:	68fb      	ldr	r3, [r7, #12]
 8004c7e:	681b      	ldr	r3, [r3, #0]
 8004c80:	f442 5200 	orr.w	r2, r2, #8192	; 0x2000
 8004c84:	601a      	str	r2, [r3, #0]
 8004c86:	68fb      	ldr	r3, [r7, #12]
 8004c88:	2201      	movs	r2, #1
 8004c8a:	f883 2051 	strb.w	r2, [r3, #81]	; 0x51
 8004c8e:	68fb      	ldr	r3, [r7, #12]
 8004c90:	2200      	movs	r2, #0
 8004c92:	f883 2050 	strb.w	r2, [r3, #80]	; 0x50
 8004c96:	2303      	movs	r3, #3
 8004c98:	e017      	b.n	8004cca <SPI_WaitFlagStateUntilTimeout+0x102>
 8004c9a:	697b      	ldr	r3, [r7, #20]
 8004c9c:	2b00      	cmp	r3, #0
 8004c9e:	d101      	bne.n	8004ca4 <SPI_WaitFlagStateUntilTimeout+0xdc>
 8004ca0:	2300      	movs	r3, #0
 8004ca2:	61fb      	str	r3, [r7, #28]
 8004ca4:	697b      	ldr	r3, [r7, #20]
 8004ca6:	3b01      	subs	r3, #1
 8004ca8:	617b      	str	r3, [r7, #20]
 8004caa:	68fb      	ldr	r3, [r7, #12]
 8004cac:	681b      	ldr	r3, [r3, #0]
 8004cae:	689a      	ldr	r2, [r3, #8]
 8004cb0:	68bb      	ldr	r3, [r7, #8]
 8004cb2:	4013      	ands	r3, r2
 8004cb4:	68ba      	ldr	r2, [r7, #8]
 8004cb6:	429a      	cmp	r2, r3
 8004cb8:	bf0c      	ite	eq
 8004cba:	2301      	moveq	r3, #1
 8004cbc:	2300      	movne	r3, #0
 8004cbe:	b2db      	uxtb	r3, r3
 8004cc0:	461a      	mov	r2, r3
 8004cc2:	79fb      	ldrb	r3, [r7, #7]
 8004cc4:	429a      	cmp	r2, r3
 8004cc6:	d19b      	bne.n	8004c00 <SPI_WaitFlagStateUntilTimeout+0x38>
 8004cc8:	2300      	movs	r3, #0
 8004cca:	4618      	mov	r0, r3
 8004ccc:	3720      	adds	r7, #32
 8004cce:	46bd      	mov	sp, r7
 8004cd0:	bd80      	pop	{r7, pc}
 8004cd2:	bf00      	nop
 8004cd4:	20000008 	.word	0x20000008

08004cd8 <SPI_EndRxTxTransaction>:
 8004cd8:	b580      	push	{r7, lr}
 8004cda:	b088      	sub	sp, #32
 8004cdc:	af02      	add	r7, sp, #8
 8004cde:	60f8      	str	r0, [r7, #12]
 8004ce0:	60b9      	str	r1, [r7, #8]
 8004ce2:	607a      	str	r2, [r7, #4]
 8004ce4:	4b1b      	ldr	r3, [pc, #108]	; (8004d54 <SPI_EndRxTxTransaction+0x7c>)
 8004ce6:	681b      	ldr	r3, [r3, #0]
 8004ce8:	4a1b      	ldr	r2, [pc, #108]	; (8004d58 <SPI_EndRxTxTransaction+0x80>)
 8004cea:	fba2 2303 	umull	r2, r3, r2, r3
 8004cee:	0d5b      	lsrs	r3, r3, #21
 8004cf0:	f44f 727a 	mov.w	r2, #1000	; 0x3e8
 8004cf4:	fb02 f303 	mul.w	r3, r2, r3
 8004cf8:	617b      	str	r3, [r7, #20]
 8004cfa:	68fb      	ldr	r3, [r7, #12]
 8004cfc:	685b      	ldr	r3, [r3, #4]
 8004cfe:	f5b3 7f82 	cmp.w	r3, #260	; 0x104
 8004d02:	d112      	bne.n	8004d2a <SPI_EndRxTxTransaction+0x52>
 8004d04:	687b      	ldr	r3, [r7, #4]
 8004d06:	9300      	str	r3, [sp, #0]
 8004d08:	68bb      	ldr	r3, [r7, #8]
 8004d0a:	2200      	movs	r2, #0
 8004d0c:	2180      	movs	r1, #128	; 0x80
 8004d0e:	68f8      	ldr	r0, [r7, #12]
 8004d10:	f7ff ff5a 	bl	8004bc8 <SPI_WaitFlagStateUntilTimeout>
 8004d14:	4603      	mov	r3, r0
 8004d16:	2b00      	cmp	r3, #0
 8004d18:	d016      	beq.n	8004d48 <SPI_EndRxTxTransaction+0x70>
 8004d1a:	68fb      	ldr	r3, [r7, #12]
 8004d1c:	6d5b      	ldr	r3, [r3, #84]	; 0x54
 8004d1e:	f043 0220 	orr.w	r2, r3, #32
 8004d22:	68fb      	ldr	r3, [r7, #12]
 8004d24:	655a      	str	r2, [r3, #84]	; 0x54
 8004d26:	2303      	movs	r3, #3
 8004d28:	e00f      	b.n	8004d4a <SPI_EndRxTxTransaction+0x72>
 8004d2a:	697b      	ldr	r3, [r7, #20]
 8004d2c:	2b00      	cmp	r3, #0
 8004d2e:	d00a      	beq.n	8004d46 <SPI_EndRxTxTransaction+0x6e>
 8004d30:	697b      	ldr	r3, [r7, #20]
 8004d32:	3b01      	subs	r3, #1
 8004d34:	617b      	str	r3, [r7, #20]
 8004d36:	68fb      	ldr	r3, [r7, #12]
 8004d38:	681b      	ldr	r3, [r3, #0]
 8004d3a:	689b      	ldr	r3, [r3, #8]
 8004d3c:	f003 0380 	and.w	r3, r3, #128	; 0x80
 8004d40:	2b80      	cmp	r3, #128	; 0x80
 8004d42:	d0f2      	beq.n	8004d2a <SPI_EndRxTxTransaction+0x52>
 8004d44:	e000      	b.n	8004d48 <SPI_EndRxTxTransaction+0x70>
 8004d46:	bf00      	nop
 8004d48:	2300      	movs	r3, #0
 8004d4a:	4618      	mov	r0, r3
 8004d4c:	3718      	adds	r7, #24
 8004d4e:	46bd      	mov	sp, r7
 8004d50:	bd80      	pop	{r7, pc}
 8004d52:	bf00      	nop
 8004d54:	20000008 	.word	0x20000008
 8004d58:	165e9f81 	.word	0x165e9f81

08004d5c <HAL_SRAM_Init>:
 8004d5c:	b580      	push	{r7, lr}
 8004d5e:	b084      	sub	sp, #16
 8004d60:	af00      	add	r7, sp, #0
 8004d62:	60f8      	str	r0, [r7, #12]
 8004d64:	60b9      	str	r1, [r7, #8]
 8004d66:	607a      	str	r2, [r7, #4]
 8004d68:	68fb      	ldr	r3, [r7, #12]
 8004d6a:	2b00      	cmp	r3, #0
 8004d6c:	d101      	bne.n	8004d72 <HAL_SRAM_Init+0x16>
 8004d6e:	2301      	movs	r3, #1
 8004d70:	e038      	b.n	8004de4 <HAL_SRAM_Init+0x88>
 8004d72:	68fb      	ldr	r3, [r7, #12]
 8004d74:	f893 3049 	ldrb.w	r3, [r3, #73]	; 0x49
 8004d78:	b2db      	uxtb	r3, r3
 8004d7a:	2b00      	cmp	r3, #0
 8004d7c:	d106      	bne.n	8004d8c <HAL_SRAM_Init+0x30>
 8004d7e:	68fb      	ldr	r3, [r7, #12]
 8004d80:	2200      	movs	r2, #0
 8004d82:	f883 2048 	strb.w	r2, [r3, #72]	; 0x48
 8004d86:	68f8      	ldr	r0, [r7, #12]
 8004d88:	f7fb ff8c 	bl	8000ca4 <HAL_SRAM_MspInit>
 8004d8c:	68fb      	ldr	r3, [r7, #12]
 8004d8e:	681a      	ldr	r2, [r3, #0]
 8004d90:	68fb      	ldr	r3, [r7, #12]
 8004d92:	3308      	adds	r3, #8
 8004d94:	4619      	mov	r1, r3
 8004d96:	4610      	mov	r0, r2
 8004d98:	f002 f856 	bl	8006e48 <FSMC_NORSRAM_Init>
 8004d9c:	68fb      	ldr	r3, [r7, #12]
 8004d9e:	6818      	ldr	r0, [r3, #0]
 8004da0:	68fb      	ldr	r3, [r7, #12]
 8004da2:	689b      	ldr	r3, [r3, #8]
 8004da4:	461a      	mov	r2, r3
 8004da6:	68b9      	ldr	r1, [r7, #8]
 8004da8:	f002 f8b8 	bl	8006f1c <FSMC_NORSRAM_Timing_Init>
 8004dac:	68fb      	ldr	r3, [r7, #12]
 8004dae:	6858      	ldr	r0, [r3, #4]
 8004db0:	68fb      	ldr	r3, [r7, #12]
 8004db2:	689a      	ldr	r2, [r3, #8]
 8004db4:	68fb      	ldr	r3, [r7, #12]
 8004db6:	6b1b      	ldr	r3, [r3, #48]	; 0x30
 8004db8:	6879      	ldr	r1, [r7, #4]
 8004dba:	f002 f8e5 	bl	8006f88 <FSMC_NORSRAM_Extended_Timing_Init>
 8004dbe:	68fb      	ldr	r3, [r7, #12]
 8004dc0:	681b      	ldr	r3, [r3, #0]
 8004dc2:	68fa      	ldr	r2, [r7, #12]
 8004dc4:	6892      	ldr	r2, [r2, #8]
 8004dc6:	f853 1022 	ldr.w	r1, [r3, r2, lsl #2]
 8004dca:	68fb      	ldr	r3, [r7, #12]
 8004dcc:	681b      	ldr	r3, [r3, #0]
 8004dce:	68fa      	ldr	r2, [r7, #12]
 8004dd0:	6892      	ldr	r2, [r2, #8]
 8004dd2:	f041 0101 	orr.w	r1, r1, #1
 8004dd6:	f843 1022 	str.w	r1, [r3, r2, lsl #2]
 8004dda:	68fb      	ldr	r3, [r7, #12]
 8004ddc:	2201      	movs	r2, #1
 8004dde:	f883 2049 	strb.w	r2, [r3, #73]	; 0x49
 8004de2:	2300      	movs	r3, #0
 8004de4:	4618      	mov	r0, r3
 8004de6:	3710      	adds	r7, #16
 8004de8:	46bd      	mov	sp, r7
 8004dea:	bd80      	pop	{r7, pc}

08004dec <HAL_TIM_Base_Init>:
 8004dec:	b580      	push	{r7, lr}
 8004dee:	b082      	sub	sp, #8
 8004df0:	af00      	add	r7, sp, #0
 8004df2:	6078      	str	r0, [r7, #4]
 8004df4:	687b      	ldr	r3, [r7, #4]
 8004df6:	2b00      	cmp	r3, #0
 8004df8:	d101      	bne.n	8004dfe <HAL_TIM_Base_Init+0x12>
 8004dfa:	2301      	movs	r3, #1
 8004dfc:	e041      	b.n	8004e82 <HAL_TIM_Base_Init+0x96>
 8004dfe:	687b      	ldr	r3, [r7, #4]
 8004e00:	f893 303d 	ldrb.w	r3, [r3, #61]	; 0x3d
 8004e04:	b2db      	uxtb	r3, r3
 8004e06:	2b00      	cmp	r3, #0
 8004e08:	d106      	bne.n	8004e18 <HAL_TIM_Base_Init+0x2c>
 8004e0a:	687b      	ldr	r3, [r7, #4]
 8004e0c:	2200      	movs	r2, #0
 8004e0e:	f883 203c 	strb.w	r2, [r3, #60]	; 0x3c
 8004e12:	6878      	ldr	r0, [r7, #4]
 8004e14:	f7fd f98a 	bl	800212c <HAL_TIM_Base_MspInit>
 8004e18:	687b      	ldr	r3, [r7, #4]
 8004e1a:	2202      	movs	r2, #2
 8004e1c:	f883 203d 	strb.w	r2, [r3, #61]	; 0x3d
 8004e20:	687b      	ldr	r3, [r7, #4]
 8004e22:	681a      	ldr	r2, [r3, #0]
 8004e24:	687b      	ldr	r3, [r7, #4]
 8004e26:	3304      	adds	r3, #4
 8004e28:	4619      	mov	r1, r3
 8004e2a:	4610      	mov	r0, r2
 8004e2c:	f000 fc1a 	bl	8005664 <TIM_Base_SetConfig>
 8004e30:	687b      	ldr	r3, [r7, #4]
 8004e32:	2201      	movs	r2, #1
 8004e34:	f883 2046 	strb.w	r2, [r3, #70]	; 0x46
 8004e38:	687b      	ldr	r3, [r7, #4]
 8004e3a:	2201      	movs	r2, #1
 8004e3c:	f883 203e 	strb.w	r2, [r3, #62]	; 0x3e
 8004e40:	687b      	ldr	r3, [r7, #4]
 8004e42:	2201      	movs	r2, #1
 8004e44:	f883 203f 	strb.w	r2, [r3, #63]	; 0x3f
 8004e48:	687b      	ldr	r3, [r7, #4]
 8004e4a:	2201      	movs	r2, #1
 8004e4c:	f883 2040 	strb.w	r2, [r3, #64]	; 0x40
 8004e50:	687b      	ldr	r3, [r7, #4]
 8004e52:	2201      	movs	r2, #1
 8004e54:	f883 2041 	strb.w	r2, [r3, #65]	; 0x41
 8004e58:	687b      	ldr	r3, [r7, #4]
 8004e5a:	2201      	movs	r2, #1
 8004e5c:	f883 2042 	strb.w	r2, [r3, #66]	; 0x42
 8004e60:	687b      	ldr	r3, [r7, #4]
 8004e62:	2201      	movs	r2, #1
 8004e64:	f883 2043 	strb.w	r2, [r3, #67]	; 0x43
 8004e68:	687b      	ldr	r3, [r7, #4]
 8004e6a:	2201      	movs	r2, #1
 8004e6c:	f883 2044 	strb.w	r2, [r3, #68]	; 0x44
 8004e70:	687b      	ldr	r3, [r7, #4]
 8004e72:	2201      	movs	r2, #1
 8004e74:	f883 2045 	strb.w	r2, [r3, #69]	; 0x45
 8004e78:	687b      	ldr	r3, [r7, #4]
 8004e7a:	2201      	movs	r2, #1
 8004e7c:	f883 203d 	strb.w	r2, [r3, #61]	; 0x3d
 8004e80:	2300      	movs	r3, #0
 8004e82:	4618      	mov	r0, r3
 8004e84:	3708      	adds	r7, #8
 8004e86:	46bd      	mov	sp, r7
 8004e88:	bd80      	pop	{r7, pc}
	...

08004e8c <HAL_TIM_Base_Start>:
 8004e8c:	b480      	push	{r7}
 8004e8e:	b085      	sub	sp, #20
 8004e90:	af00      	add	r7, sp, #0
 8004e92:	6078      	str	r0, [r7, #4]
 8004e94:	687b      	ldr	r3, [r7, #4]
 8004e96:	f893 303d 	ldrb.w	r3, [r3, #61]	; 0x3d
 8004e9a:	b2db      	uxtb	r3, r3
 8004e9c:	2b01      	cmp	r3, #1
 8004e9e:	d001      	beq.n	8004ea4 <HAL_TIM_Base_Start+0x18>
 8004ea0:	2301      	movs	r3, #1
 8004ea2:	e046      	b.n	8004f32 <HAL_TIM_Base_Start+0xa6>
 8004ea4:	687b      	ldr	r3, [r7, #4]
 8004ea6:	2202      	movs	r2, #2
 8004ea8:	f883 203d 	strb.w	r2, [r3, #61]	; 0x3d
 8004eac:	687b      	ldr	r3, [r7, #4]
 8004eae:	681b      	ldr	r3, [r3, #0]
 8004eb0:	4a23      	ldr	r2, [pc, #140]	; (8004f40 <HAL_TIM_Base_Start+0xb4>)
 8004eb2:	4293      	cmp	r3, r2
 8004eb4:	d022      	beq.n	8004efc <HAL_TIM_Base_Start+0x70>
 8004eb6:	687b      	ldr	r3, [r7, #4]
 8004eb8:	681b      	ldr	r3, [r3, #0]
 8004eba:	f1b3 4f80 	cmp.w	r3, #1073741824	; 0x40000000
 8004ebe:	d01d      	beq.n	8004efc <HAL_TIM_Base_Start+0x70>
 8004ec0:	687b      	ldr	r3, [r7, #4]
 8004ec2:	681b      	ldr	r3, [r3, #0]
 8004ec4:	4a1f      	ldr	r2, [pc, #124]	; (8004f44 <HAL_TIM_Base_Start+0xb8>)
 8004ec6:	4293      	cmp	r3, r2
 8004ec8:	d018      	beq.n	8004efc <HAL_TIM_Base_Start+0x70>
 8004eca:	687b      	ldr	r3, [r7, #4]
 8004ecc:	681b      	ldr	r3, [r3, #0]
 8004ece:	4a1e      	ldr	r2, [pc, #120]	; (8004f48 <HAL_TIM_Base_Start+0xbc>)
 8004ed0:	4293      	cmp	r3, r2
 8004ed2:	d013      	beq.n	8004efc <HAL_TIM_Base_Start+0x70>
 8004ed4:	687b      	ldr	r3, [r7, #4]
 8004ed6:	681b      	ldr	r3, [r3, #0]
 8004ed8:	4a1c      	ldr	r2, [pc, #112]	; (8004f4c <HAL_TIM_Base_Start+0xc0>)
 8004eda:	4293      	cmp	r3, r2
 8004edc:	d00e      	beq.n	8004efc <HAL_TIM_Base_Start+0x70>
 8004ede:	687b      	ldr	r3, [r7, #4]
 8004ee0:	681b      	ldr	r3, [r3, #0]
 8004ee2:	4a1b      	ldr	r2, [pc, #108]	; (8004f50 <HAL_TIM_Base_Start+0xc4>)
 8004ee4:	4293      	cmp	r3, r2
 8004ee6:	d009      	beq.n	8004efc <HAL_TIM_Base_Start+0x70>
 8004ee8:	687b      	ldr	r3, [r7, #4]
 8004eea:	681b      	ldr	r3, [r3, #0]
 8004eec:	4a19      	ldr	r2, [pc, #100]	; (8004f54 <HAL_TIM_Base_Start+0xc8>)
 8004eee:	4293      	cmp	r3, r2
 8004ef0:	d004      	beq.n	8004efc <HAL_TIM_Base_Start+0x70>
 8004ef2:	687b      	ldr	r3, [r7, #4]
 8004ef4:	681b      	ldr	r3, [r3, #0]
 8004ef6:	4a18      	ldr	r2, [pc, #96]	; (8004f58 <HAL_TIM_Base_Start+0xcc>)
 8004ef8:	4293      	cmp	r3, r2
 8004efa:	d111      	bne.n	8004f20 <HAL_TIM_Base_Start+0x94>
 8004efc:	687b      	ldr	r3, [r7, #4]
 8004efe:	681b      	ldr	r3, [r3, #0]
 8004f00:	689b      	ldr	r3, [r3, #8]
 8004f02:	f003 0307 	and.w	r3, r3, #7
 8004f06:	60fb      	str	r3, [r7, #12]
 8004f08:	68fb      	ldr	r3, [r7, #12]
 8004f0a:	2b06      	cmp	r3, #6
 8004f0c:	d010      	beq.n	8004f30 <HAL_TIM_Base_Start+0xa4>
 8004f0e:	687b      	ldr	r3, [r7, #4]
 8004f10:	681b      	ldr	r3, [r3, #0]
 8004f12:	681a      	ldr	r2, [r3, #0]
 8004f14:	687b      	ldr	r3, [r7, #4]
 8004f16:	681b      	ldr	r3, [r3, #0]
 8004f18:	f042 0201 	orr.w	r2, r2, #1
 8004f1c:	601a      	str	r2, [r3, #0]
 8004f1e:	e007      	b.n	8004f30 <HAL_TIM_Base_Start+0xa4>
 8004f20:	687b      	ldr	r3, [r7, #4]
 8004f22:	681b      	ldr	r3, [r3, #0]
 8004f24:	681a      	ldr	r2, [r3, #0]
 8004f26:	687b      	ldr	r3, [r7, #4]
 8004f28:	681b      	ldr	r3, [r3, #0]
 8004f2a:	f042 0201 	orr.w	r2, r2, #1
 8004f2e:	601a      	str	r2, [r3, #0]
 8004f30:	2300      	movs	r3, #0
 8004f32:	4618      	mov	r0, r3
 8004f34:	3714      	adds	r7, #20
 8004f36:	46bd      	mov	sp, r7
 8004f38:	f85d 7b04 	ldr.w	r7, [sp], #4
 8004f3c:	4770      	bx	lr
 8004f3e:	bf00      	nop
 8004f40:	40010000 	.word	0x40010000
 8004f44:	40000400 	.word	0x40000400
 8004f48:	40000800 	.word	0x40000800
 8004f4c:	40000c00 	.word	0x40000c00
 8004f50:	40010400 	.word	0x40010400
 8004f54:	40014000 	.word	0x40014000
 8004f58:	40001800 	.word	0x40001800

08004f5c <HAL_TIM_Base_Start_IT>:
 8004f5c:	b480      	push	{r7}
 8004f5e:	b085      	sub	sp, #20
 8004f60:	af00      	add	r7, sp, #0
 8004f62:	6078      	str	r0, [r7, #4]
 8004f64:	687b      	ldr	r3, [r7, #4]
 8004f66:	f893 303d 	ldrb.w	r3, [r3, #61]	; 0x3d
 8004f6a:	b2db      	uxtb	r3, r3
 8004f6c:	2b01      	cmp	r3, #1
 8004f6e:	d001      	beq.n	8004f74 <HAL_TIM_Base_Start_IT+0x18>
 8004f70:	2301      	movs	r3, #1
 8004f72:	e04e      	b.n	8005012 <HAL_TIM_Base_Start_IT+0xb6>
 8004f74:	687b      	ldr	r3, [r7, #4]
 8004f76:	2202      	movs	r2, #2
 8004f78:	f883 203d 	strb.w	r2, [r3, #61]	; 0x3d
 8004f7c:	687b      	ldr	r3, [r7, #4]
 8004f7e:	681b      	ldr	r3, [r3, #0]
 8004f80:	68da      	ldr	r2, [r3, #12]
 8004f82:	687b      	ldr	r3, [r7, #4]
 8004f84:	681b      	ldr	r3, [r3, #0]
 8004f86:	f042 0201 	orr.w	r2, r2, #1
 8004f8a:	60da      	str	r2, [r3, #12]
 8004f8c:	687b      	ldr	r3, [r7, #4]
 8004f8e:	681b      	ldr	r3, [r3, #0]
 8004f90:	4a23      	ldr	r2, [pc, #140]	; (8005020 <HAL_TIM_Base_Start_IT+0xc4>)
 8004f92:	4293      	cmp	r3, r2
 8004f94:	d022      	beq.n	8004fdc <HAL_TIM_Base_Start_IT+0x80>
 8004f96:	687b      	ldr	r3, [r7, #4]
 8004f98:	681b      	ldr	r3, [r3, #0]
 8004f9a:	f1b3 4f80 	cmp.w	r3, #1073741824	; 0x40000000
 8004f9e:	d01d      	beq.n	8004fdc <HAL_TIM_Base_Start_IT+0x80>
 8004fa0:	687b      	ldr	r3, [r7, #4]
 8004fa2:	681b      	ldr	r3, [r3, #0]
 8004fa4:	4a1f      	ldr	r2, [pc, #124]	; (8005024 <HAL_TIM_Base_Start_IT+0xc8>)
 8004fa6:	4293      	cmp	r3, r2
 8004fa8:	d018      	beq.n	8004fdc <HAL_TIM_Base_Start_IT+0x80>
 8004faa:	687b      	ldr	r3, [r7, #4]
 8004fac:	681b      	ldr	r3, [r3, #0]
 8004fae:	4a1e      	ldr	r2, [pc, #120]	; (8005028 <HAL_TIM_Base_Start_IT+0xcc>)
 8004fb0:	4293      	cmp	r3, r2
 8004fb2:	d013      	beq.n	8004fdc <HAL_TIM_Base_Start_IT+0x80>
 8004fb4:	687b      	ldr	r3, [r7, #4]
 8004fb6:	681b      	ldr	r3, [r3, #0]
 8004fb8:	4a1c      	ldr	r2, [pc, #112]	; (800502c <HAL_TIM_Base_Start_IT+0xd0>)
 8004fba:	4293      	cmp	r3, r2
 8004fbc:	d00e      	beq.n	8004fdc <HAL_TIM_Base_Start_IT+0x80>
 8004fbe:	687b      	ldr	r3, [r7, #4]
 8004fc0:	681b      	ldr	r3, [r3, #0]
 8004fc2:	4a1b      	ldr	r2, [pc, #108]	; (8005030 <HAL_TIM_Base_Start_IT+0xd4>)
 8004fc4:	4293      	cmp	r3, r2
 8004fc6:	d009      	beq.n	8004fdc <HAL_TIM_Base_Start_IT+0x80>
 8004fc8:	687b      	ldr	r3, [r7, #4]
 8004fca:	681b      	ldr	r3, [r3, #0]
 8004fcc:	4a19      	ldr	r2, [pc, #100]	; (8005034 <HAL_TIM_Base_Start_IT+0xd8>)
 8004fce:	4293      	cmp	r3, r2
 8004fd0:	d004      	beq.n	8004fdc <HAL_TIM_Base_Start_IT+0x80>
 8004fd2:	687b      	ldr	r3, [r7, #4]
 8004fd4:	681b      	ldr	r3, [r3, #0]
 8004fd6:	4a18      	ldr	r2, [pc, #96]	; (8005038 <HAL_TIM_Base_Start_IT+0xdc>)
 8004fd8:	4293      	cmp	r3, r2
 8004fda:	d111      	bne.n	8005000 <HAL_TIM_Base_Start_IT+0xa4>
 8004fdc:	687b      	ldr	r3, [r7, #4]
 8004fde:	681b      	ldr	r3, [r3, #0]
 8004fe0:	689b      	ldr	r3, [r3, #8]
 8004fe2:	f003 0307 	and.w	r3, r3, #7
 8004fe6:	60fb      	str	r3, [r7, #12]
 8004fe8:	68fb      	ldr	r3, [r7, #12]
 8004fea:	2b06      	cmp	r3, #6
 8004fec:	d010      	beq.n	8005010 <HAL_TIM_Base_Start_IT+0xb4>
 8004fee:	687b      	ldr	r3, [r7, #4]
 8004ff0:	681b      	ldr	r3, [r3, #0]
 8004ff2:	681a      	ldr	r2, [r3, #0]
 8004ff4:	687b      	ldr	r3, [r7, #4]
 8004ff6:	681b      	ldr	r3, [r3, #0]
 8004ff8:	f042 0201 	orr.w	r2, r2, #1
 8004ffc:	601a      	str	r2, [r3, #0]
 8004ffe:	e007      	b.n	8005010 <HAL_TIM_Base_Start_IT+0xb4>
 8005000:	687b      	ldr	r3, [r7, #4]
 8005002:	681b      	ldr	r3, [r3, #0]
 8005004:	681a      	ldr	r2, [r3, #0]
 8005006:	687b      	ldr	r3, [r7, #4]
 8005008:	681b      	ldr	r3, [r3, #0]
 800500a:	f042 0201 	orr.w	r2, r2, #1
 800500e:	601a      	str	r2, [r3, #0]
 8005010:	2300      	movs	r3, #0
 8005012:	4618      	mov	r0, r3
 8005014:	3714      	adds	r7, #20
 8005016:	46bd      	mov	sp, r7
 8005018:	f85d 7b04 	ldr.w	r7, [sp], #4
 800501c:	4770      	bx	lr
 800501e:	bf00      	nop
 8005020:	40010000 	.word	0x40010000
 8005024:	40000400 	.word	0x40000400
 8005028:	40000800 	.word	0x40000800
 800502c:	40000c00 	.word	0x40000c00
 8005030:	40010400 	.word	0x40010400
 8005034:	40014000 	.word	0x40014000
 8005038:	40001800 	.word	0x40001800

0800503c <HAL_TIM_PWM_Init>:
 800503c:	b580      	push	{r7, lr}
 800503e:	b082      	sub	sp, #8
 8005040:	af00      	add	r7, sp, #0
 8005042:	6078      	str	r0, [r7, #4]
 8005044:	687b      	ldr	r3, [r7, #4]
 8005046:	2b00      	cmp	r3, #0
 8005048:	d101      	bne.n	800504e <HAL_TIM_PWM_Init+0x12>
 800504a:	2301      	movs	r3, #1
 800504c:	e041      	b.n	80050d2 <HAL_TIM_PWM_Init+0x96>
 800504e:	687b      	ldr	r3, [r7, #4]
 8005050:	f893 303d 	ldrb.w	r3, [r3, #61]	; 0x3d
 8005054:	b2db      	uxtb	r3, r3
 8005056:	2b00      	cmp	r3, #0
 8005058:	d106      	bne.n	8005068 <HAL_TIM_PWM_Init+0x2c>
 800505a:	687b      	ldr	r3, [r7, #4]
 800505c:	2200      	movs	r2, #0
 800505e:	f883 203c 	strb.w	r2, [r3, #60]	; 0x3c
 8005062:	6878      	ldr	r0, [r7, #4]
 8005064:	f000 f839 	bl	80050da <HAL_TIM_PWM_MspInit>
 8005068:	687b      	ldr	r3, [r7, #4]
 800506a:	2202      	movs	r2, #2
 800506c:	f883 203d 	strb.w	r2, [r3, #61]	; 0x3d
 8005070:	687b      	ldr	r3, [r7, #4]
 8005072:	681a      	ldr	r2, [r3, #0]
 8005074:	687b      	ldr	r3, [r7, #4]
 8005076:	3304      	adds	r3, #4
 8005078:	4619      	mov	r1, r3
 800507a:	4610      	mov	r0, r2
 800507c:	f000 faf2 	bl	8005664 <TIM_Base_SetConfig>
 8005080:	687b      	ldr	r3, [r7, #4]
 8005082:	2201      	movs	r2, #1
 8005084:	f883 2046 	strb.w	r2, [r3, #70]	; 0x46
 8005088:	687b      	ldr	r3, [r7, #4]
 800508a:	2201      	movs	r2, #1
 800508c:	f883 203e 	strb.w	r2, [r3, #62]	; 0x3e
 8005090:	687b      	ldr	r3, [r7, #4]
 8005092:	2201      	movs	r2, #1
 8005094:	f883 203f 	strb.w	r2, [r3, #63]	; 0x3f
 8005098:	687b      	ldr	r3, [r7, #4]
 800509a:	2201      	movs	r2, #1
 800509c:	f883 2040 	strb.w	r2, [r3, #64]	; 0x40
 80050a0:	687b      	ldr	r3, [r7, #4]
 80050a2:	2201      	movs	r2, #1
 80050a4:	f883 2041 	strb.w	r2, [r3, #65]	; 0x41
 80050a8:	687b      	ldr	r3, [r7, #4]
 80050aa:	2201      	movs	r2, #1
 80050ac:	f883 2042 	strb.w	r2, [r3, #66]	; 0x42
 80050b0:	687b      	ldr	r3, [r7, #4]
 80050b2:	2201      	movs	r2, #1
 80050b4:	f883 2043 	strb.w	r2, [r3, #67]	; 0x43
 80050b8:	687b      	ldr	r3, [r7, #4]
 80050ba:	2201      	movs	r2, #1
 80050bc:	f883 2044 	strb.w	r2, [r3, #68]	; 0x44
 80050c0:	687b      	ldr	r3, [r7, #4]
 80050c2:	2201      	movs	r2, #1
 80050c4:	f883 2045 	strb.w	r2, [r3, #69]	; 0x45
 80050c8:	687b      	ldr	r3, [r7, #4]
 80050ca:	2201      	movs	r2, #1
 80050cc:	f883 203d 	strb.w	r2, [r3, #61]	; 0x3d
 80050d0:	2300      	movs	r3, #0
 80050d2:	4618      	mov	r0, r3
 80050d4:	3708      	adds	r7, #8
 80050d6:	46bd      	mov	sp, r7
 80050d8:	bd80      	pop	{r7, pc}

080050da <HAL_TIM_PWM_MspInit>:
 80050da:	b480      	push	{r7}
 80050dc:	b083      	sub	sp, #12
 80050de:	af00      	add	r7, sp, #0
 80050e0:	6078      	str	r0, [r7, #4]
 80050e2:	bf00      	nop
 80050e4:	370c      	adds	r7, #12
 80050e6:	46bd      	mov	sp, r7
 80050e8:	f85d 7b04 	ldr.w	r7, [sp], #4
 80050ec:	4770      	bx	lr

080050ee <HAL_TIM_IRQHandler>:
 80050ee:	b580      	push	{r7, lr}
 80050f0:	b082      	sub	sp, #8
 80050f2:	af00      	add	r7, sp, #0
 80050f4:	6078      	str	r0, [r7, #4]
 80050f6:	687b      	ldr	r3, [r7, #4]
 80050f8:	681b      	ldr	r3, [r3, #0]
 80050fa:	691b      	ldr	r3, [r3, #16]
 80050fc:	f003 0302 	and.w	r3, r3, #2
 8005100:	2b02      	cmp	r3, #2
 8005102:	d122      	bne.n	800514a <HAL_TIM_IRQHandler+0x5c>
 8005104:	687b      	ldr	r3, [r7, #4]
 8005106:	681b      	ldr	r3, [r3, #0]
 8005108:	68db      	ldr	r3, [r3, #12]
 800510a:	f003 0302 	and.w	r3, r3, #2
 800510e:	2b02      	cmp	r3, #2
 8005110:	d11b      	bne.n	800514a <HAL_TIM_IRQHandler+0x5c>
 8005112:	687b      	ldr	r3, [r7, #4]
 8005114:	681b      	ldr	r3, [r3, #0]
 8005116:	f06f 0202 	mvn.w	r2, #2
 800511a:	611a      	str	r2, [r3, #16]
 800511c:	687b      	ldr	r3, [r7, #4]
 800511e:	2201      	movs	r2, #1
 8005120:	771a      	strb	r2, [r3, #28]
 8005122:	687b      	ldr	r3, [r7, #4]
 8005124:	681b      	ldr	r3, [r3, #0]
 8005126:	699b      	ldr	r3, [r3, #24]
 8005128:	f003 0303 	and.w	r3, r3, #3
 800512c:	2b00      	cmp	r3, #0
 800512e:	d003      	beq.n	8005138 <HAL_TIM_IRQHandler+0x4a>
 8005130:	6878      	ldr	r0, [r7, #4]
 8005132:	f000 fa78 	bl	8005626 <HAL_TIM_IC_CaptureCallback>
 8005136:	e005      	b.n	8005144 <HAL_TIM_IRQHandler+0x56>
 8005138:	6878      	ldr	r0, [r7, #4]
 800513a:	f000 fa6a 	bl	8005612 <HAL_TIM_OC_DelayElapsedCallback>
 800513e:	6878      	ldr	r0, [r7, #4]
 8005140:	f000 fa7b 	bl	800563a <HAL_TIM_PWM_PulseFinishedCallback>
 8005144:	687b      	ldr	r3, [r7, #4]
 8005146:	2200      	movs	r2, #0
 8005148:	771a      	strb	r2, [r3, #28]
 800514a:	687b      	ldr	r3, [r7, #4]
 800514c:	681b      	ldr	r3, [r3, #0]
 800514e:	691b      	ldr	r3, [r3, #16]
 8005150:	f003 0304 	and.w	r3, r3, #4
 8005154:	2b04      	cmp	r3, #4
 8005156:	d122      	bne.n	800519e <HAL_TIM_IRQHandler+0xb0>
 8005158:	687b      	ldr	r3, [r7, #4]
 800515a:	681b      	ldr	r3, [r3, #0]
 800515c:	68db      	ldr	r3, [r3, #12]
 800515e:	f003 0304 	and.w	r3, r3, #4
 8005162:	2b04      	cmp	r3, #4
 8005164:	d11b      	bne.n	800519e <HAL_TIM_IRQHandler+0xb0>
 8005166:	687b      	ldr	r3, [r7, #4]
 8005168:	681b      	ldr	r3, [r3, #0]
 800516a:	f06f 0204 	mvn.w	r2, #4
 800516e:	611a      	str	r2, [r3, #16]
 8005170:	687b      	ldr	r3, [r7, #4]
 8005172:	2202      	movs	r2, #2
 8005174:	771a      	strb	r2, [r3, #28]
 8005176:	687b      	ldr	r3, [r7, #4]
 8005178:	681b      	ldr	r3, [r3, #0]
 800517a:	699b      	ldr	r3, [r3, #24]
 800517c:	f403 7340 	and.w	r3, r3, #768	; 0x300
 8005180:	2b00      	cmp	r3, #0
 8005182:	d003      	beq.n	800518c <HAL_TIM_IRQHandler+0x9e>
 8005184:	6878      	ldr	r0, [r7, #4]
 8005186:	f000 fa4e 	bl	8005626 <HAL_TIM_IC_CaptureCallback>
 800518a:	e005      	b.n	8005198 <HAL_TIM_IRQHandler+0xaa>
 800518c:	6878      	ldr	r0, [r7, #4]
 800518e:	f000 fa40 	bl	8005612 <HAL_TIM_OC_DelayElapsedCallback>
 8005192:	6878      	ldr	r0, [r7, #4]
 8005194:	f000 fa51 	bl	800563a <HAL_TIM_PWM_PulseFinishedCallback>
 8005198:	687b      	ldr	r3, [r7, #4]
 800519a:	2200      	movs	r2, #0
 800519c:	771a      	strb	r2, [r3, #28]
 800519e:	687b      	ldr	r3, [r7, #4]
 80051a0:	681b      	ldr	r3, [r3, #0]
 80051a2:	691b      	ldr	r3, [r3, #16]
 80051a4:	f003 0308 	and.w	r3, r3, #8
 80051a8:	2b08      	cmp	r3, #8
 80051aa:	d122      	bne.n	80051f2 <HAL_TIM_IRQHandler+0x104>
 80051ac:	687b      	ldr	r3, [r7, #4]
 80051ae:	681b      	ldr	r3, [r3, #0]
 80051b0:	68db      	ldr	r3, [r3, #12]
 80051b2:	f003 0308 	and.w	r3, r3, #8
 80051b6:	2b08      	cmp	r3, #8
 80051b8:	d11b      	bne.n	80051f2 <HAL_TIM_IRQHandler+0x104>
 80051ba:	687b      	ldr	r3, [r7, #4]
 80051bc:	681b      	ldr	r3, [r3, #0]
 80051be:	f06f 0208 	mvn.w	r2, #8
 80051c2:	611a      	str	r2, [r3, #16]
 80051c4:	687b      	ldr	r3, [r7, #4]
 80051c6:	2204      	movs	r2, #4
 80051c8:	771a      	strb	r2, [r3, #28]
 80051ca:	687b      	ldr	r3, [r7, #4]
 80051cc:	681b      	ldr	r3, [r3, #0]
 80051ce:	69db      	ldr	r3, [r3, #28]
 80051d0:	f003 0303 	and.w	r3, r3, #3
 80051d4:	2b00      	cmp	r3, #0
 80051d6:	d003      	beq.n	80051e0 <HAL_TIM_IRQHandler+0xf2>
 80051d8:	6878      	ldr	r0, [r7, #4]
 80051da:	f000 fa24 	bl	8005626 <HAL_TIM_IC_CaptureCallback>
 80051de:	e005      	b.n	80051ec <HAL_TIM_IRQHandler+0xfe>
 80051e0:	6878      	ldr	r0, [r7, #4]
 80051e2:	f000 fa16 	bl	8005612 <HAL_TIM_OC_DelayElapsedCallback>
 80051e6:	6878      	ldr	r0, [r7, #4]
 80051e8:	f000 fa27 	bl	800563a <HAL_TIM_PWM_PulseFinishedCallback>
 80051ec:	687b      	ldr	r3, [r7, #4]
 80051ee:	2200      	movs	r2, #0
 80051f0:	771a      	strb	r2, [r3, #28]
 80051f2:	687b      	ldr	r3, [r7, #4]
 80051f4:	681b      	ldr	r3, [r3, #0]
 80051f6:	691b      	ldr	r3, [r3, #16]
 80051f8:	f003 0310 	and.w	r3, r3, #16
 80051fc:	2b10      	cmp	r3, #16
 80051fe:	d122      	bne.n	8005246 <HAL_TIM_IRQHandler+0x158>
 8005200:	687b      	ldr	r3, [r7, #4]
 8005202:	681b      	ldr	r3, [r3, #0]
 8005204:	68db      	ldr	r3, [r3, #12]
 8005206:	f003 0310 	and.w	r3, r3, #16
 800520a:	2b10      	cmp	r3, #16
 800520c:	d11b      	bne.n	8005246 <HAL_TIM_IRQHandler+0x158>
 800520e:	687b      	ldr	r3, [r7, #4]
 8005210:	681b      	ldr	r3, [r3, #0]
 8005212:	f06f 0210 	mvn.w	r2, #16
 8005216:	611a      	str	r2, [r3, #16]
 8005218:	687b      	ldr	r3, [r7, #4]
 800521a:	2208      	movs	r2, #8
 800521c:	771a      	strb	r2, [r3, #28]
 800521e:	687b      	ldr	r3, [r7, #4]
 8005220:	681b      	ldr	r3, [r3, #0]
 8005222:	69db      	ldr	r3, [r3, #28]
 8005224:	f403 7340 	and.w	r3, r3, #768	; 0x300
 8005228:	2b00      	cmp	r3, #0
 800522a:	d003      	beq.n	8005234 <HAL_TIM_IRQHandler+0x146>
 800522c:	6878      	ldr	r0, [r7, #4]
 800522e:	f000 f9fa 	bl	8005626 <HAL_TIM_IC_CaptureCallback>
 8005232:	e005      	b.n	8005240 <HAL_TIM_IRQHandler+0x152>
 8005234:	6878      	ldr	r0, [r7, #4]
 8005236:	f000 f9ec 	bl	8005612 <HAL_TIM_OC_DelayElapsedCallback>
 800523a:	6878      	ldr	r0, [r7, #4]
 800523c:	f000 f9fd 	bl	800563a <HAL_TIM_PWM_PulseFinishedCallback>
 8005240:	687b      	ldr	r3, [r7, #4]
 8005242:	2200      	movs	r2, #0
 8005244:	771a      	strb	r2, [r3, #28]
 8005246:	687b      	ldr	r3, [r7, #4]
 8005248:	681b      	ldr	r3, [r3, #0]
 800524a:	691b      	ldr	r3, [r3, #16]
 800524c:	f003 0301 	and.w	r3, r3, #1
 8005250:	2b01      	cmp	r3, #1
 8005252:	d10e      	bne.n	8005272 <HAL_TIM_IRQHandler+0x184>
 8005254:	687b      	ldr	r3, [r7, #4]
 8005256:	681b      	ldr	r3, [r3, #0]
 8005258:	68db      	ldr	r3, [r3, #12]
 800525a:	f003 0301 	and.w	r3, r3, #1
 800525e:	2b01      	cmp	r3, #1
 8005260:	d107      	bne.n	8005272 <HAL_TIM_IRQHandler+0x184>
 8005262:	687b      	ldr	r3, [r7, #4]
 8005264:	681b      	ldr	r3, [r3, #0]
 8005266:	f06f 0201 	mvn.w	r2, #1
 800526a:	611a      	str	r2, [r3, #16]
 800526c:	6878      	ldr	r0, [r7, #4]
 800526e:	f7fc fd3f 	bl	8001cf0 <HAL_TIM_PeriodElapsedCallback>
 8005272:	687b      	ldr	r3, [r7, #4]
 8005274:	681b      	ldr	r3, [r3, #0]
 8005276:	691b      	ldr	r3, [r3, #16]
 8005278:	f003 0380 	and.w	r3, r3, #128	; 0x80
 800527c:	2b80      	cmp	r3, #128	; 0x80
 800527e:	d10e      	bne.n	800529e <HAL_TIM_IRQHandler+0x1b0>
 8005280:	687b      	ldr	r3, [r7, #4]
 8005282:	681b      	ldr	r3, [r3, #0]
 8005284:	68db      	ldr	r3, [r3, #12]
 8005286:	f003 0380 	and.w	r3, r3, #128	; 0x80
 800528a:	2b80      	cmp	r3, #128	; 0x80
 800528c:	d107      	bne.n	800529e <HAL_TIM_IRQHandler+0x1b0>
 800528e:	687b      	ldr	r3, [r7, #4]
 8005290:	681b      	ldr	r3, [r3, #0]
 8005292:	f06f 0280 	mvn.w	r2, #128	; 0x80
 8005296:	611a      	str	r2, [r3, #16]
 8005298:	6878      	ldr	r0, [r7, #4]
 800529a:	f000 fd53 	bl	8005d44 <HAL_TIMEx_BreakCallback>
 800529e:	687b      	ldr	r3, [r7, #4]
 80052a0:	681b      	ldr	r3, [r3, #0]
 80052a2:	691b      	ldr	r3, [r3, #16]
 80052a4:	f003 0340 	and.w	r3, r3, #64	; 0x40
 80052a8:	2b40      	cmp	r3, #64	; 0x40
 80052aa:	d10e      	bne.n	80052ca <HAL_TIM_IRQHandler+0x1dc>
 80052ac:	687b      	ldr	r3, [r7, #4]
 80052ae:	681b      	ldr	r3, [r3, #0]
 80052b0:	68db      	ldr	r3, [r3, #12]
 80052b2:	f003 0340 	and.w	r3, r3, #64	; 0x40
 80052b6:	2b40      	cmp	r3, #64	; 0x40
 80052b8:	d107      	bne.n	80052ca <HAL_TIM_IRQHandler+0x1dc>
 80052ba:	687b      	ldr	r3, [r7, #4]
 80052bc:	681b      	ldr	r3, [r3, #0]
 80052be:	f06f 0240 	mvn.w	r2, #64	; 0x40
 80052c2:	611a      	str	r2, [r3, #16]
 80052c4:	6878      	ldr	r0, [r7, #4]
 80052c6:	f000 f9c2 	bl	800564e <HAL_TIM_TriggerCallback>
 80052ca:	687b      	ldr	r3, [r7, #4]
 80052cc:	681b      	ldr	r3, [r3, #0]
 80052ce:	691b      	ldr	r3, [r3, #16]
 80052d0:	f003 0320 	and.w	r3, r3, #32
 80052d4:	2b20      	cmp	r3, #32
 80052d6:	d10e      	bne.n	80052f6 <HAL_TIM_IRQHandler+0x208>
 80052d8:	687b      	ldr	r3, [r7, #4]
 80052da:	681b      	ldr	r3, [r3, #0]
 80052dc:	68db      	ldr	r3, [r3, #12]
 80052de:	f003 0320 	and.w	r3, r3, #32
 80052e2:	2b20      	cmp	r3, #32
 80052e4:	d107      	bne.n	80052f6 <HAL_TIM_IRQHandler+0x208>
 80052e6:	687b      	ldr	r3, [r7, #4]
 80052e8:	681b      	ldr	r3, [r3, #0]
 80052ea:	f06f 0220 	mvn.w	r2, #32
 80052ee:	611a      	str	r2, [r3, #16]
 80052f0:	6878      	ldr	r0, [r7, #4]
 80052f2:	f000 fd1d 	bl	8005d30 <HAL_TIMEx_CommutCallback>
 80052f6:	bf00      	nop
 80052f8:	3708      	adds	r7, #8
 80052fa:	46bd      	mov	sp, r7
 80052fc:	bd80      	pop	{r7, pc}
	...

08005300 <HAL_TIM_PWM_ConfigChannel>:
 8005300:	b580      	push	{r7, lr}
 8005302:	b086      	sub	sp, #24
 8005304:	af00      	add	r7, sp, #0
 8005306:	60f8      	str	r0, [r7, #12]
 8005308:	60b9      	str	r1, [r7, #8]
 800530a:	607a      	str	r2, [r7, #4]
 800530c:	2300      	movs	r3, #0
 800530e:	75fb      	strb	r3, [r7, #23]
 8005310:	68fb      	ldr	r3, [r7, #12]
 8005312:	f893 303c 	ldrb.w	r3, [r3, #60]	; 0x3c
 8005316:	2b01      	cmp	r3, #1
 8005318:	d101      	bne.n	800531e <HAL_TIM_PWM_ConfigChannel+0x1e>
 800531a:	2302      	movs	r3, #2
 800531c:	e0ae      	b.n	800547c <HAL_TIM_PWM_ConfigChannel+0x17c>
 800531e:	68fb      	ldr	r3, [r7, #12]
 8005320:	2201      	movs	r2, #1
 8005322:	f883 203c 	strb.w	r2, [r3, #60]	; 0x3c
 8005326:	687b      	ldr	r3, [r7, #4]
 8005328:	2b0c      	cmp	r3, #12
 800532a:	f200 809f 	bhi.w	800546c <HAL_TIM_PWM_ConfigChannel+0x16c>
 800532e:	a201      	add	r2, pc, #4	; (adr r2, 8005334 <HAL_TIM_PWM_ConfigChannel+0x34>)
 8005330:	f852 f023 	ldr.w	pc, [r2, r3, lsl #2]
 8005334:	08005369 	.word	0x08005369
 8005338:	0800546d 	.word	0x0800546d
 800533c:	0800546d 	.word	0x0800546d
 8005340:	0800546d 	.word	0x0800546d
 8005344:	080053a9 	.word	0x080053a9
 8005348:	0800546d 	.word	0x0800546d
 800534c:	0800546d 	.word	0x0800546d
 8005350:	0800546d 	.word	0x0800546d
 8005354:	080053eb 	.word	0x080053eb
 8005358:	0800546d 	.word	0x0800546d
 800535c:	0800546d 	.word	0x0800546d
 8005360:	0800546d 	.word	0x0800546d
 8005364:	0800542b 	.word	0x0800542b
 8005368:	68fb      	ldr	r3, [r7, #12]
 800536a:	681b      	ldr	r3, [r3, #0]
 800536c:	68b9      	ldr	r1, [r7, #8]
 800536e:	4618      	mov	r0, r3
 8005370:	f000 fa18 	bl	80057a4 <TIM_OC1_SetConfig>
 8005374:	68fb      	ldr	r3, [r7, #12]
 8005376:	681b      	ldr	r3, [r3, #0]
 8005378:	699a      	ldr	r2, [r3, #24]
 800537a:	68fb      	ldr	r3, [r7, #12]
 800537c:	681b      	ldr	r3, [r3, #0]
 800537e:	f042 0208 	orr.w	r2, r2, #8
 8005382:	619a      	str	r2, [r3, #24]
 8005384:	68fb      	ldr	r3, [r7, #12]
 8005386:	681b      	ldr	r3, [r3, #0]
 8005388:	699a      	ldr	r2, [r3, #24]
 800538a:	68fb      	ldr	r3, [r7, #12]
 800538c:	681b      	ldr	r3, [r3, #0]
 800538e:	f022 0204 	bic.w	r2, r2, #4
 8005392:	619a      	str	r2, [r3, #24]
 8005394:	68fb      	ldr	r3, [r7, #12]
 8005396:	681b      	ldr	r3, [r3, #0]
 8005398:	6999      	ldr	r1, [r3, #24]
 800539a:	68bb      	ldr	r3, [r7, #8]
 800539c:	691a      	ldr	r2, [r3, #16]
 800539e:	68fb      	ldr	r3, [r7, #12]
 80053a0:	681b      	ldr	r3, [r3, #0]
 80053a2:	430a      	orrs	r2, r1
 80053a4:	619a      	str	r2, [r3, #24]
 80053a6:	e064      	b.n	8005472 <HAL_TIM_PWM_ConfigChannel+0x172>
 80053a8:	68fb      	ldr	r3, [r7, #12]
 80053aa:	681b      	ldr	r3, [r3, #0]
 80053ac:	68b9      	ldr	r1, [r7, #8]
 80053ae:	4618      	mov	r0, r3
 80053b0:	f000 fa68 	bl	8005884 <TIM_OC2_SetConfig>
 80053b4:	68fb      	ldr	r3, [r7, #12]
 80053b6:	681b      	ldr	r3, [r3, #0]
 80053b8:	699a      	ldr	r2, [r3, #24]
 80053ba:	68fb      	ldr	r3, [r7, #12]
 80053bc:	681b      	ldr	r3, [r3, #0]
 80053be:	f442 6200 	orr.w	r2, r2, #2048	; 0x800
 80053c2:	619a      	str	r2, [r3, #24]
 80053c4:	68fb      	ldr	r3, [r7, #12]
 80053c6:	681b      	ldr	r3, [r3, #0]
 80053c8:	699a      	ldr	r2, [r3, #24]
 80053ca:	68fb      	ldr	r3, [r7, #12]
 80053cc:	681b      	ldr	r3, [r3, #0]
 80053ce:	f422 6280 	bic.w	r2, r2, #1024	; 0x400
 80053d2:	619a      	str	r2, [r3, #24]
 80053d4:	68fb      	ldr	r3, [r7, #12]
 80053d6:	681b      	ldr	r3, [r3, #0]
 80053d8:	6999      	ldr	r1, [r3, #24]
 80053da:	68bb      	ldr	r3, [r7, #8]
 80053dc:	691b      	ldr	r3, [r3, #16]
 80053de:	021a      	lsls	r2, r3, #8
 80053e0:	68fb      	ldr	r3, [r7, #12]
 80053e2:	681b      	ldr	r3, [r3, #0]
 80053e4:	430a      	orrs	r2, r1
 80053e6:	619a      	str	r2, [r3, #24]
 80053e8:	e043      	b.n	8005472 <HAL_TIM_PWM_ConfigChannel+0x172>
 80053ea:	68fb      	ldr	r3, [r7, #12]
 80053ec:	681b      	ldr	r3, [r3, #0]
 80053ee:	68b9      	ldr	r1, [r7, #8]
 80053f0:	4618      	mov	r0, r3
 80053f2:	f000 fabd 	bl	8005970 <TIM_OC3_SetConfig>
 80053f6:	68fb      	ldr	r3, [r7, #12]
 80053f8:	681b      	ldr	r3, [r3, #0]
 80053fa:	69da      	ldr	r2, [r3, #28]
 80053fc:	68fb      	ldr	r3, [r7, #12]
 80053fe:	681b      	ldr	r3, [r3, #0]
 8005400:	f042 0208 	orr.w	r2, r2, #8
 8005404:	61da      	str	r2, [r3, #28]
 8005406:	68fb      	ldr	r3, [r7, #12]
 8005408:	681b      	ldr	r3, [r3, #0]
 800540a:	69da      	ldr	r2, [r3, #28]
 800540c:	68fb      	ldr	r3, [r7, #12]
 800540e:	681b      	ldr	r3, [r3, #0]
 8005410:	f022 0204 	bic.w	r2, r2, #4
 8005414:	61da      	str	r2, [r3, #28]
 8005416:	68fb      	ldr	r3, [r7, #12]
 8005418:	681b      	ldr	r3, [r3, #0]
 800541a:	69d9      	ldr	r1, [r3, #28]
 800541c:	68bb      	ldr	r3, [r7, #8]
 800541e:	691a      	ldr	r2, [r3, #16]
 8005420:	68fb      	ldr	r3, [r7, #12]
 8005422:	681b      	ldr	r3, [r3, #0]
 8005424:	430a      	orrs	r2, r1
 8005426:	61da      	str	r2, [r3, #28]
 8005428:	e023      	b.n	8005472 <HAL_TIM_PWM_ConfigChannel+0x172>
 800542a:	68fb      	ldr	r3, [r7, #12]
 800542c:	681b      	ldr	r3, [r3, #0]
 800542e:	68b9      	ldr	r1, [r7, #8]
 8005430:	4618      	mov	r0, r3
 8005432:	f000 fb11 	bl	8005a58 <TIM_OC4_SetConfig>
 8005436:	68fb      	ldr	r3, [r7, #12]
 8005438:	681b      	ldr	r3, [r3, #0]
 800543a:	69da      	ldr	r2, [r3, #28]
 800543c:	68fb      	ldr	r3, [r7, #12]
 800543e:	681b      	ldr	r3, [r3, #0]
 8005440:	f442 6200 	orr.w	r2, r2, #2048	; 0x800
 8005444:	61da      	str	r2, [r3, #28]
 8005446:	68fb      	ldr	r3, [r7, #12]
 8005448:	681b      	ldr	r3, [r3, #0]
 800544a:	69da      	ldr	r2, [r3, #28]
 800544c:	68fb      	ldr	r3, [r7, #12]
 800544e:	681b      	ldr	r3, [r3, #0]
 8005450:	f422 6280 	bic.w	r2, r2, #1024	; 0x400
 8005454:	61da      	str	r2, [r3, #28]
 8005456:	68fb      	ldr	r3, [r7, #12]
 8005458:	681b      	ldr	r3, [r3, #0]
 800545a:	69d9      	ldr	r1, [r3, #28]
 800545c:	68bb      	ldr	r3, [r7, #8]
 800545e:	691b      	ldr	r3, [r3, #16]
 8005460:	021a      	lsls	r2, r3, #8
 8005462:	68fb      	ldr	r3, [r7, #12]
 8005464:	681b      	ldr	r3, [r3, #0]
 8005466:	430a      	orrs	r2, r1
 8005468:	61da      	str	r2, [r3, #28]
 800546a:	e002      	b.n	8005472 <HAL_TIM_PWM_ConfigChannel+0x172>
 800546c:	2301      	movs	r3, #1
 800546e:	75fb      	strb	r3, [r7, #23]
 8005470:	bf00      	nop
 8005472:	68fb      	ldr	r3, [r7, #12]
 8005474:	2200      	movs	r2, #0
 8005476:	f883 203c 	strb.w	r2, [r3, #60]	; 0x3c
 800547a:	7dfb      	ldrb	r3, [r7, #23]
 800547c:	4618      	mov	r0, r3
 800547e:	3718      	adds	r7, #24
 8005480:	46bd      	mov	sp, r7
 8005482:	bd80      	pop	{r7, pc}

08005484 <HAL_TIM_ConfigClockSource>:
 8005484:	b580      	push	{r7, lr}
 8005486:	b084      	sub	sp, #16
 8005488:	af00      	add	r7, sp, #0
 800548a:	6078      	str	r0, [r7, #4]
 800548c:	6039      	str	r1, [r7, #0]
 800548e:	2300      	movs	r3, #0
 8005490:	73fb      	strb	r3, [r7, #15]
 8005492:	687b      	ldr	r3, [r7, #4]
 8005494:	f893 303c 	ldrb.w	r3, [r3, #60]	; 0x3c
 8005498:	2b01      	cmp	r3, #1
 800549a:	d101      	bne.n	80054a0 <HAL_TIM_ConfigClockSource+0x1c>
 800549c:	2302      	movs	r3, #2
 800549e:	e0b4      	b.n	800560a <HAL_TIM_ConfigClockSource+0x186>
 80054a0:	687b      	ldr	r3, [r7, #4]
 80054a2:	2201      	movs	r2, #1
 80054a4:	f883 203c 	strb.w	r2, [r3, #60]	; 0x3c
 80054a8:	687b      	ldr	r3, [r7, #4]
 80054aa:	2202      	movs	r2, #2
 80054ac:	f883 203d 	strb.w	r2, [r3, #61]	; 0x3d
 80054b0:	687b      	ldr	r3, [r7, #4]
 80054b2:	681b      	ldr	r3, [r3, #0]
 80054b4:	689b      	ldr	r3, [r3, #8]
 80054b6:	60bb      	str	r3, [r7, #8]
 80054b8:	68bb      	ldr	r3, [r7, #8]
 80054ba:	f023 0377 	bic.w	r3, r3, #119	; 0x77
 80054be:	60bb      	str	r3, [r7, #8]
 80054c0:	68bb      	ldr	r3, [r7, #8]
 80054c2:	f423 437f 	bic.w	r3, r3, #65280	; 0xff00
 80054c6:	60bb      	str	r3, [r7, #8]
 80054c8:	687b      	ldr	r3, [r7, #4]
 80054ca:	681b      	ldr	r3, [r3, #0]
 80054cc:	68ba      	ldr	r2, [r7, #8]
 80054ce:	609a      	str	r2, [r3, #8]
 80054d0:	683b      	ldr	r3, [r7, #0]
 80054d2:	681b      	ldr	r3, [r3, #0]
 80054d4:	f5b3 5f00 	cmp.w	r3, #8192	; 0x2000
 80054d8:	d03e      	beq.n	8005558 <HAL_TIM_ConfigClockSource+0xd4>
 80054da:	f5b3 5f00 	cmp.w	r3, #8192	; 0x2000
 80054de:	f200 8087 	bhi.w	80055f0 <HAL_TIM_ConfigClockSource+0x16c>
 80054e2:	f5b3 5f80 	cmp.w	r3, #4096	; 0x1000
 80054e6:	f000 8086 	beq.w	80055f6 <HAL_TIM_ConfigClockSource+0x172>
 80054ea:	f5b3 5f80 	cmp.w	r3, #4096	; 0x1000
 80054ee:	d87f      	bhi.n	80055f0 <HAL_TIM_ConfigClockSource+0x16c>
 80054f0:	2b70      	cmp	r3, #112	; 0x70
 80054f2:	d01a      	beq.n	800552a <HAL_TIM_ConfigClockSource+0xa6>
 80054f4:	2b70      	cmp	r3, #112	; 0x70
 80054f6:	d87b      	bhi.n	80055f0 <HAL_TIM_ConfigClockSource+0x16c>
 80054f8:	2b60      	cmp	r3, #96	; 0x60
 80054fa:	d050      	beq.n	800559e <HAL_TIM_ConfigClockSource+0x11a>
 80054fc:	2b60      	cmp	r3, #96	; 0x60
 80054fe:	d877      	bhi.n	80055f0 <HAL_TIM_ConfigClockSource+0x16c>
 8005500:	2b50      	cmp	r3, #80	; 0x50
 8005502:	d03c      	beq.n	800557e <HAL_TIM_ConfigClockSource+0xfa>
 8005504:	2b50      	cmp	r3, #80	; 0x50
 8005506:	d873      	bhi.n	80055f0 <HAL_TIM_ConfigClockSource+0x16c>
 8005508:	2b40      	cmp	r3, #64	; 0x40
 800550a:	d058      	beq.n	80055be <HAL_TIM_ConfigClockSource+0x13a>
 800550c:	2b40      	cmp	r3, #64	; 0x40
 800550e:	d86f      	bhi.n	80055f0 <HAL_TIM_ConfigClockSource+0x16c>
 8005510:	2b30      	cmp	r3, #48	; 0x30
 8005512:	d064      	beq.n	80055de <HAL_TIM_ConfigClockSource+0x15a>
 8005514:	2b30      	cmp	r3, #48	; 0x30
 8005516:	d86b      	bhi.n	80055f0 <HAL_TIM_ConfigClockSource+0x16c>
 8005518:	2b20      	cmp	r3, #32
 800551a:	d060      	beq.n	80055de <HAL_TIM_ConfigClockSource+0x15a>
 800551c:	2b20      	cmp	r3, #32
 800551e:	d867      	bhi.n	80055f0 <HAL_TIM_ConfigClockSource+0x16c>
 8005520:	2b00      	cmp	r3, #0
 8005522:	d05c      	beq.n	80055de <HAL_TIM_ConfigClockSource+0x15a>
 8005524:	2b10      	cmp	r3, #16
 8005526:	d05a      	beq.n	80055de <HAL_TIM_ConfigClockSource+0x15a>
 8005528:	e062      	b.n	80055f0 <HAL_TIM_ConfigClockSource+0x16c>
 800552a:	687b      	ldr	r3, [r7, #4]
 800552c:	6818      	ldr	r0, [r3, #0]
 800552e:	683b      	ldr	r3, [r7, #0]
 8005530:	6899      	ldr	r1, [r3, #8]
 8005532:	683b      	ldr	r3, [r7, #0]
 8005534:	685a      	ldr	r2, [r3, #4]
 8005536:	683b      	ldr	r3, [r7, #0]
 8005538:	68db      	ldr	r3, [r3, #12]
 800553a:	f000 fb5d 	bl	8005bf8 <TIM_ETR_SetConfig>
 800553e:	687b      	ldr	r3, [r7, #4]
 8005540:	681b      	ldr	r3, [r3, #0]
 8005542:	689b      	ldr	r3, [r3, #8]
 8005544:	60bb      	str	r3, [r7, #8]
 8005546:	68bb      	ldr	r3, [r7, #8]
 8005548:	f043 0377 	orr.w	r3, r3, #119	; 0x77
 800554c:	60bb      	str	r3, [r7, #8]
 800554e:	687b      	ldr	r3, [r7, #4]
 8005550:	681b      	ldr	r3, [r3, #0]
 8005552:	68ba      	ldr	r2, [r7, #8]
 8005554:	609a      	str	r2, [r3, #8]
 8005556:	e04f      	b.n	80055f8 <HAL_TIM_ConfigClockSource+0x174>
 8005558:	687b      	ldr	r3, [r7, #4]
 800555a:	6818      	ldr	r0, [r3, #0]
 800555c:	683b      	ldr	r3, [r7, #0]
 800555e:	6899      	ldr	r1, [r3, #8]
 8005560:	683b      	ldr	r3, [r7, #0]
 8005562:	685a      	ldr	r2, [r3, #4]
 8005564:	683b      	ldr	r3, [r7, #0]
 8005566:	68db      	ldr	r3, [r3, #12]
 8005568:	f000 fb46 	bl	8005bf8 <TIM_ETR_SetConfig>
 800556c:	687b      	ldr	r3, [r7, #4]
 800556e:	681b      	ldr	r3, [r3, #0]
 8005570:	689a      	ldr	r2, [r3, #8]
 8005572:	687b      	ldr	r3, [r7, #4]
 8005574:	681b      	ldr	r3, [r3, #0]
 8005576:	f442 4280 	orr.w	r2, r2, #16384	; 0x4000
 800557a:	609a      	str	r2, [r3, #8]
 800557c:	e03c      	b.n	80055f8 <HAL_TIM_ConfigClockSource+0x174>
 800557e:	687b      	ldr	r3, [r7, #4]
 8005580:	6818      	ldr	r0, [r3, #0]
 8005582:	683b      	ldr	r3, [r7, #0]
 8005584:	6859      	ldr	r1, [r3, #4]
 8005586:	683b      	ldr	r3, [r7, #0]
 8005588:	68db      	ldr	r3, [r3, #12]
 800558a:	461a      	mov	r2, r3
 800558c:	f000 faba 	bl	8005b04 <TIM_TI1_ConfigInputStage>
 8005590:	687b      	ldr	r3, [r7, #4]
 8005592:	681b      	ldr	r3, [r3, #0]
 8005594:	2150      	movs	r1, #80	; 0x50
 8005596:	4618      	mov	r0, r3
 8005598:	f000 fb13 	bl	8005bc2 <TIM_ITRx_SetConfig>
 800559c:	e02c      	b.n	80055f8 <HAL_TIM_ConfigClockSource+0x174>
 800559e:	687b      	ldr	r3, [r7, #4]
 80055a0:	6818      	ldr	r0, [r3, #0]
 80055a2:	683b      	ldr	r3, [r7, #0]
 80055a4:	6859      	ldr	r1, [r3, #4]
 80055a6:	683b      	ldr	r3, [r7, #0]
 80055a8:	68db      	ldr	r3, [r3, #12]
 80055aa:	461a      	mov	r2, r3
 80055ac:	f000 fad9 	bl	8005b62 <TIM_TI2_ConfigInputStage>
 80055b0:	687b      	ldr	r3, [r7, #4]
 80055b2:	681b      	ldr	r3, [r3, #0]
 80055b4:	2160      	movs	r1, #96	; 0x60
 80055b6:	4618      	mov	r0, r3
 80055b8:	f000 fb03 	bl	8005bc2 <TIM_ITRx_SetConfig>
 80055bc:	e01c      	b.n	80055f8 <HAL_TIM_ConfigClockSource+0x174>
 80055be:	687b      	ldr	r3, [r7, #4]
 80055c0:	6818      	ldr	r0, [r3, #0]
 80055c2:	683b      	ldr	r3, [r7, #0]
 80055c4:	6859      	ldr	r1, [r3, #4]
 80055c6:	683b      	ldr	r3, [r7, #0]
 80055c8:	68db      	ldr	r3, [r3, #12]
 80055ca:	461a      	mov	r2, r3
 80055cc:	f000 fa9a 	bl	8005b04 <TIM_TI1_ConfigInputStage>
 80055d0:	687b      	ldr	r3, [r7, #4]
 80055d2:	681b      	ldr	r3, [r3, #0]
 80055d4:	2140      	movs	r1, #64	; 0x40
 80055d6:	4618      	mov	r0, r3
 80055d8:	f000 faf3 	bl	8005bc2 <TIM_ITRx_SetConfig>
 80055dc:	e00c      	b.n	80055f8 <HAL_TIM_ConfigClockSource+0x174>
 80055de:	687b      	ldr	r3, [r7, #4]
 80055e0:	681a      	ldr	r2, [r3, #0]
 80055e2:	683b      	ldr	r3, [r7, #0]
 80055e4:	681b      	ldr	r3, [r3, #0]
 80055e6:	4619      	mov	r1, r3
 80055e8:	4610      	mov	r0, r2
 80055ea:	f000 faea 	bl	8005bc2 <TIM_ITRx_SetConfig>
 80055ee:	e003      	b.n	80055f8 <HAL_TIM_ConfigClockSource+0x174>
 80055f0:	2301      	movs	r3, #1
 80055f2:	73fb      	strb	r3, [r7, #15]
 80055f4:	e000      	b.n	80055f8 <HAL_TIM_ConfigClockSource+0x174>
 80055f6:	bf00      	nop
 80055f8:	687b      	ldr	r3, [r7, #4]
 80055fa:	2201      	movs	r2, #1
 80055fc:	f883 203d 	strb.w	r2, [r3, #61]	; 0x3d
 8005600:	687b      	ldr	r3, [r7, #4]
 8005602:	2200      	movs	r2, #0
 8005604:	f883 203c 	strb.w	r2, [r3, #60]	; 0x3c
 8005608:	7bfb      	ldrb	r3, [r7, #15]
 800560a:	4618      	mov	r0, r3
 800560c:	3710      	adds	r7, #16
 800560e:	46bd      	mov	sp, r7
 8005610:	bd80      	pop	{r7, pc}

08005612 <HAL_TIM_OC_DelayElapsedCallback>:
 8005612:	b480      	push	{r7}
 8005614:	b083      	sub	sp, #12
 8005616:	af00      	add	r7, sp, #0
 8005618:	6078      	str	r0, [r7, #4]
 800561a:	bf00      	nop
 800561c:	370c      	adds	r7, #12
 800561e:	46bd      	mov	sp, r7
 8005620:	f85d 7b04 	ldr.w	r7, [sp], #4
 8005624:	4770      	bx	lr

08005626 <HAL_TIM_IC_CaptureCallback>:
 8005626:	b480      	push	{r7}
 8005628:	b083      	sub	sp, #12
 800562a:	af00      	add	r7, sp, #0
 800562c:	6078      	str	r0, [r7, #4]
 800562e:	bf00      	nop
 8005630:	370c      	adds	r7, #12
 8005632:	46bd      	mov	sp, r7
 8005634:	f85d 7b04 	ldr.w	r7, [sp], #4
 8005638:	4770      	bx	lr

0800563a <HAL_TIM_PWM_PulseFinishedCallback>:
 800563a:	b480      	push	{r7}
 800563c:	b083      	sub	sp, #12
 800563e:	af00      	add	r7, sp, #0
 8005640:	6078      	str	r0, [r7, #4]
 8005642:	bf00      	nop
 8005644:	370c      	adds	r7, #12
 8005646:	46bd      	mov	sp, r7
 8005648:	f85d 7b04 	ldr.w	r7, [sp], #4
 800564c:	4770      	bx	lr

0800564e <HAL_TIM_TriggerCallback>:
 800564e:	b480      	push	{r7}
 8005650:	b083      	sub	sp, #12
 8005652:	af00      	add	r7, sp, #0
 8005654:	6078      	str	r0, [r7, #4]
 8005656:	bf00      	nop
 8005658:	370c      	adds	r7, #12
 800565a:	46bd      	mov	sp, r7
 800565c:	f85d 7b04 	ldr.w	r7, [sp], #4
 8005660:	4770      	bx	lr
	...

08005664 <TIM_Base_SetConfig>:
 8005664:	b480      	push	{r7}
 8005666:	b085      	sub	sp, #20
 8005668:	af00      	add	r7, sp, #0
 800566a:	6078      	str	r0, [r7, #4]
 800566c:	6039      	str	r1, [r7, #0]
 800566e:	687b      	ldr	r3, [r7, #4]
 8005670:	681b      	ldr	r3, [r3, #0]
 8005672:	60fb      	str	r3, [r7, #12]
 8005674:	687b      	ldr	r3, [r7, #4]
 8005676:	4a40      	ldr	r2, [pc, #256]	; (8005778 <TIM_Base_SetConfig+0x114>)
 8005678:	4293      	cmp	r3, r2
 800567a:	d013      	beq.n	80056a4 <TIM_Base_SetConfig+0x40>
 800567c:	687b      	ldr	r3, [r7, #4]
 800567e:	f1b3 4f80 	cmp.w	r3, #1073741824	; 0x40000000
 8005682:	d00f      	beq.n	80056a4 <TIM_Base_SetConfig+0x40>
 8005684:	687b      	ldr	r3, [r7, #4]
 8005686:	4a3d      	ldr	r2, [pc, #244]	; (800577c <TIM_Base_SetConfig+0x118>)
 8005688:	4293      	cmp	r3, r2
 800568a:	d00b      	beq.n	80056a4 <TIM_Base_SetConfig+0x40>
 800568c:	687b      	ldr	r3, [r7, #4]
 800568e:	4a3c      	ldr	r2, [pc, #240]	; (8005780 <TIM_Base_SetConfig+0x11c>)
 8005690:	4293      	cmp	r3, r2
 8005692:	d007      	beq.n	80056a4 <TIM_Base_SetConfig+0x40>
 8005694:	687b      	ldr	r3, [r7, #4]
 8005696:	4a3b      	ldr	r2, [pc, #236]	; (8005784 <TIM_Base_SetConfig+0x120>)
 8005698:	4293      	cmp	r3, r2
 800569a:	d003      	beq.n	80056a4 <TIM_Base_SetConfig+0x40>
 800569c:	687b      	ldr	r3, [r7, #4]
 800569e:	4a3a      	ldr	r2, [pc, #232]	; (8005788 <TIM_Base_SetConfig+0x124>)
 80056a0:	4293      	cmp	r3, r2
 80056a2:	d108      	bne.n	80056b6 <TIM_Base_SetConfig+0x52>
 80056a4:	68fb      	ldr	r3, [r7, #12]
 80056a6:	f023 0370 	bic.w	r3, r3, #112	; 0x70
 80056aa:	60fb      	str	r3, [r7, #12]
 80056ac:	683b      	ldr	r3, [r7, #0]
 80056ae:	685b      	ldr	r3, [r3, #4]
 80056b0:	68fa      	ldr	r2, [r7, #12]
 80056b2:	4313      	orrs	r3, r2
 80056b4:	60fb      	str	r3, [r7, #12]
 80056b6:	687b      	ldr	r3, [r7, #4]
 80056b8:	4a2f      	ldr	r2, [pc, #188]	; (8005778 <TIM_Base_SetConfig+0x114>)
 80056ba:	4293      	cmp	r3, r2
 80056bc:	d02b      	beq.n	8005716 <TIM_Base_SetConfig+0xb2>
 80056be:	687b      	ldr	r3, [r7, #4]
 80056c0:	f1b3 4f80 	cmp.w	r3, #1073741824	; 0x40000000
 80056c4:	d027      	beq.n	8005716 <TIM_Base_SetConfig+0xb2>
 80056c6:	687b      	ldr	r3, [r7, #4]
 80056c8:	4a2c      	ldr	r2, [pc, #176]	; (800577c <TIM_Base_SetConfig+0x118>)
 80056ca:	4293      	cmp	r3, r2
 80056cc:	d023      	beq.n	8005716 <TIM_Base_SetConfig+0xb2>
 80056ce:	687b      	ldr	r3, [r7, #4]
 80056d0:	4a2b      	ldr	r2, [pc, #172]	; (8005780 <TIM_Base_SetConfig+0x11c>)
 80056d2:	4293      	cmp	r3, r2
 80056d4:	d01f      	beq.n	8005716 <TIM_Base_SetConfig+0xb2>
 80056d6:	687b      	ldr	r3, [r7, #4]
 80056d8:	4a2a      	ldr	r2, [pc, #168]	; (8005784 <TIM_Base_SetConfig+0x120>)
 80056da:	4293      	cmp	r3, r2
 80056dc:	d01b      	beq.n	8005716 <TIM_Base_SetConfig+0xb2>
 80056de:	687b      	ldr	r3, [r7, #4]
 80056e0:	4a29      	ldr	r2, [pc, #164]	; (8005788 <TIM_Base_SetConfig+0x124>)
 80056e2:	4293      	cmp	r3, r2
 80056e4:	d017      	beq.n	8005716 <TIM_Base_SetConfig+0xb2>
 80056e6:	687b      	ldr	r3, [r7, #4]
 80056e8:	4a28      	ldr	r2, [pc, #160]	; (800578c <TIM_Base_SetConfig+0x128>)
 80056ea:	4293      	cmp	r3, r2
 80056ec:	d013      	beq.n	8005716 <TIM_Base_SetConfig+0xb2>
 80056ee:	687b      	ldr	r3, [r7, #4]
 80056f0:	4a27      	ldr	r2, [pc, #156]	; (8005790 <TIM_Base_SetConfig+0x12c>)
 80056f2:	4293      	cmp	r3, r2
 80056f4:	d00f      	beq.n	8005716 <TIM_Base_SetConfig+0xb2>
 80056f6:	687b      	ldr	r3, [r7, #4]
 80056f8:	4a26      	ldr	r2, [pc, #152]	; (8005794 <TIM_Base_SetConfig+0x130>)
 80056fa:	4293      	cmp	r3, r2
 80056fc:	d00b      	beq.n	8005716 <TIM_Base_SetConfig+0xb2>
 80056fe:	687b      	ldr	r3, [r7, #4]
 8005700:	4a25      	ldr	r2, [pc, #148]	; (8005798 <TIM_Base_SetConfig+0x134>)
 8005702:	4293      	cmp	r3, r2
 8005704:	d007      	beq.n	8005716 <TIM_Base_SetConfig+0xb2>
 8005706:	687b      	ldr	r3, [r7, #4]
 8005708:	4a24      	ldr	r2, [pc, #144]	; (800579c <TIM_Base_SetConfig+0x138>)
 800570a:	4293      	cmp	r3, r2
 800570c:	d003      	beq.n	8005716 <TIM_Base_SetConfig+0xb2>
 800570e:	687b      	ldr	r3, [r7, #4]
 8005710:	4a23      	ldr	r2, [pc, #140]	; (80057a0 <TIM_Base_SetConfig+0x13c>)
 8005712:	4293      	cmp	r3, r2
 8005714:	d108      	bne.n	8005728 <TIM_Base_SetConfig+0xc4>
 8005716:	68fb      	ldr	r3, [r7, #12]
 8005718:	f423 7340 	bic.w	r3, r3, #768	; 0x300
 800571c:	60fb      	str	r3, [r7, #12]
 800571e:	683b      	ldr	r3, [r7, #0]
 8005720:	68db      	ldr	r3, [r3, #12]
 8005722:	68fa      	ldr	r2, [r7, #12]
 8005724:	4313      	orrs	r3, r2
 8005726:	60fb      	str	r3, [r7, #12]
 8005728:	68fb      	ldr	r3, [r7, #12]
 800572a:	f023 0280 	bic.w	r2, r3, #128	; 0x80
 800572e:	683b      	ldr	r3, [r7, #0]
 8005730:	695b      	ldr	r3, [r3, #20]
 8005732:	4313      	orrs	r3, r2
 8005734:	60fb      	str	r3, [r7, #12]
 8005736:	687b      	ldr	r3, [r7, #4]
 8005738:	68fa      	ldr	r2, [r7, #12]
 800573a:	601a      	str	r2, [r3, #0]
 800573c:	683b      	ldr	r3, [r7, #0]
 800573e:	689a      	ldr	r2, [r3, #8]
 8005740:	687b      	ldr	r3, [r7, #4]
 8005742:	62da      	str	r2, [r3, #44]	; 0x2c
 8005744:	683b      	ldr	r3, [r7, #0]
 8005746:	681a      	ldr	r2, [r3, #0]
 8005748:	687b      	ldr	r3, [r7, #4]
 800574a:	629a      	str	r2, [r3, #40]	; 0x28
 800574c:	687b      	ldr	r3, [r7, #4]
 800574e:	4a0a      	ldr	r2, [pc, #40]	; (8005778 <TIM_Base_SetConfig+0x114>)
 8005750:	4293      	cmp	r3, r2
 8005752:	d003      	beq.n	800575c <TIM_Base_SetConfig+0xf8>
 8005754:	687b      	ldr	r3, [r7, #4]
 8005756:	4a0c      	ldr	r2, [pc, #48]	; (8005788 <TIM_Base_SetConfig+0x124>)
 8005758:	4293      	cmp	r3, r2
 800575a:	d103      	bne.n	8005764 <TIM_Base_SetConfig+0x100>
 800575c:	683b      	ldr	r3, [r7, #0]
 800575e:	691a      	ldr	r2, [r3, #16]
 8005760:	687b      	ldr	r3, [r7, #4]
 8005762:	631a      	str	r2, [r3, #48]	; 0x30
 8005764:	687b      	ldr	r3, [r7, #4]
 8005766:	2201      	movs	r2, #1
 8005768:	615a      	str	r2, [r3, #20]
 800576a:	bf00      	nop
 800576c:	3714      	adds	r7, #20
 800576e:	46bd      	mov	sp, r7
 8005770:	f85d 7b04 	ldr.w	r7, [sp], #4
 8005774:	4770      	bx	lr
 8005776:	bf00      	nop
 8005778:	40010000 	.word	0x40010000
 800577c:	40000400 	.word	0x40000400
 8005780:	40000800 	.word	0x40000800
 8005784:	40000c00 	.word	0x40000c00
 8005788:	40010400 	.word	0x40010400
 800578c:	40014000 	.word	0x40014000
 8005790:	40014400 	.word	0x40014400
 8005794:	40014800 	.word	0x40014800
 8005798:	40001800 	.word	0x40001800
 800579c:	40001c00 	.word	0x40001c00
 80057a0:	40002000 	.word	0x40002000

080057a4 <TIM_OC1_SetConfig>:
 80057a4:	b480      	push	{r7}
 80057a6:	b087      	sub	sp, #28
 80057a8:	af00      	add	r7, sp, #0
 80057aa:	6078      	str	r0, [r7, #4]
 80057ac:	6039      	str	r1, [r7, #0]
 80057ae:	687b      	ldr	r3, [r7, #4]
 80057b0:	6a1b      	ldr	r3, [r3, #32]
 80057b2:	f023 0201 	bic.w	r2, r3, #1
 80057b6:	687b      	ldr	r3, [r7, #4]
 80057b8:	621a      	str	r2, [r3, #32]
 80057ba:	687b      	ldr	r3, [r7, #4]
 80057bc:	6a1b      	ldr	r3, [r3, #32]
 80057be:	617b      	str	r3, [r7, #20]
 80057c0:	687b      	ldr	r3, [r7, #4]
 80057c2:	685b      	ldr	r3, [r3, #4]
 80057c4:	613b      	str	r3, [r7, #16]
 80057c6:	687b      	ldr	r3, [r7, #4]
 80057c8:	699b      	ldr	r3, [r3, #24]
 80057ca:	60fb      	str	r3, [r7, #12]
 80057cc:	68fb      	ldr	r3, [r7, #12]
 80057ce:	f023 0370 	bic.w	r3, r3, #112	; 0x70
 80057d2:	60fb      	str	r3, [r7, #12]
 80057d4:	68fb      	ldr	r3, [r7, #12]
 80057d6:	f023 0303 	bic.w	r3, r3, #3
 80057da:	60fb      	str	r3, [r7, #12]
 80057dc:	683b      	ldr	r3, [r7, #0]
 80057de:	681b      	ldr	r3, [r3, #0]
 80057e0:	68fa      	ldr	r2, [r7, #12]
 80057e2:	4313      	orrs	r3, r2
 80057e4:	60fb      	str	r3, [r7, #12]
 80057e6:	697b      	ldr	r3, [r7, #20]
 80057e8:	f023 0302 	bic.w	r3, r3, #2
 80057ec:	617b      	str	r3, [r7, #20]
 80057ee:	683b      	ldr	r3, [r7, #0]
 80057f0:	689b      	ldr	r3, [r3, #8]
 80057f2:	697a      	ldr	r2, [r7, #20]
 80057f4:	4313      	orrs	r3, r2
 80057f6:	617b      	str	r3, [r7, #20]
 80057f8:	687b      	ldr	r3, [r7, #4]
 80057fa:	4a20      	ldr	r2, [pc, #128]	; (800587c <TIM_OC1_SetConfig+0xd8>)
 80057fc:	4293      	cmp	r3, r2
 80057fe:	d003      	beq.n	8005808 <TIM_OC1_SetConfig+0x64>
 8005800:	687b      	ldr	r3, [r7, #4]
 8005802:	4a1f      	ldr	r2, [pc, #124]	; (8005880 <TIM_OC1_SetConfig+0xdc>)
 8005804:	4293      	cmp	r3, r2
 8005806:	d10c      	bne.n	8005822 <TIM_OC1_SetConfig+0x7e>
 8005808:	697b      	ldr	r3, [r7, #20]
 800580a:	f023 0308 	bic.w	r3, r3, #8
 800580e:	617b      	str	r3, [r7, #20]
 8005810:	683b      	ldr	r3, [r7, #0]
 8005812:	68db      	ldr	r3, [r3, #12]
 8005814:	697a      	ldr	r2, [r7, #20]
 8005816:	4313      	orrs	r3, r2
 8005818:	617b      	str	r3, [r7, #20]
 800581a:	697b      	ldr	r3, [r7, #20]
 800581c:	f023 0304 	bic.w	r3, r3, #4
 8005820:	617b      	str	r3, [r7, #20]
 8005822:	687b      	ldr	r3, [r7, #4]
 8005824:	4a15      	ldr	r2, [pc, #84]	; (800587c <TIM_OC1_SetConfig+0xd8>)
 8005826:	4293      	cmp	r3, r2
 8005828:	d003      	beq.n	8005832 <TIM_OC1_SetConfig+0x8e>
 800582a:	687b      	ldr	r3, [r7, #4]
 800582c:	4a14      	ldr	r2, [pc, #80]	; (8005880 <TIM_OC1_SetConfig+0xdc>)
 800582e:	4293      	cmp	r3, r2
 8005830:	d111      	bne.n	8005856 <TIM_OC1_SetConfig+0xb2>
 8005832:	693b      	ldr	r3, [r7, #16]
 8005834:	f423 7380 	bic.w	r3, r3, #256	; 0x100
 8005838:	613b      	str	r3, [r7, #16]
 800583a:	693b      	ldr	r3, [r7, #16]
 800583c:	f423 7300 	bic.w	r3, r3, #512	; 0x200
 8005840:	613b      	str	r3, [r7, #16]
 8005842:	683b      	ldr	r3, [r7, #0]
 8005844:	695b      	ldr	r3, [r3, #20]
 8005846:	693a      	ldr	r2, [r7, #16]
 8005848:	4313      	orrs	r3, r2
 800584a:	613b      	str	r3, [r7, #16]
 800584c:	683b      	ldr	r3, [r7, #0]
 800584e:	699b      	ldr	r3, [r3, #24]
 8005850:	693a      	ldr	r2, [r7, #16]
 8005852:	4313      	orrs	r3, r2
 8005854:	613b      	str	r3, [r7, #16]
 8005856:	687b      	ldr	r3, [r7, #4]
 8005858:	693a      	ldr	r2, [r7, #16]
 800585a:	605a      	str	r2, [r3, #4]
 800585c:	687b      	ldr	r3, [r7, #4]
 800585e:	68fa      	ldr	r2, [r7, #12]
 8005860:	619a      	str	r2, [r3, #24]
 8005862:	683b      	ldr	r3, [r7, #0]
 8005864:	685a      	ldr	r2, [r3, #4]
 8005866:	687b      	ldr	r3, [r7, #4]
 8005868:	635a      	str	r2, [r3, #52]	; 0x34
 800586a:	687b      	ldr	r3, [r7, #4]
 800586c:	697a      	ldr	r2, [r7, #20]
 800586e:	621a      	str	r2, [r3, #32]
 8005870:	bf00      	nop
 8005872:	371c      	adds	r7, #28
 8005874:	46bd      	mov	sp, r7
 8005876:	f85d 7b04 	ldr.w	r7, [sp], #4
 800587a:	4770      	bx	lr
 800587c:	40010000 	.word	0x40010000
 8005880:	40010400 	.word	0x40010400

08005884 <TIM_OC2_SetConfig>:
 8005884:	b480      	push	{r7}
 8005886:	b087      	sub	sp, #28
 8005888:	af00      	add	r7, sp, #0
 800588a:	6078      	str	r0, [r7, #4]
 800588c:	6039      	str	r1, [r7, #0]
 800588e:	687b      	ldr	r3, [r7, #4]
 8005890:	6a1b      	ldr	r3, [r3, #32]
 8005892:	f023 0210 	bic.w	r2, r3, #16
 8005896:	687b      	ldr	r3, [r7, #4]
 8005898:	621a      	str	r2, [r3, #32]
 800589a:	687b      	ldr	r3, [r7, #4]
 800589c:	6a1b      	ldr	r3, [r3, #32]
 800589e:	617b      	str	r3, [r7, #20]
 80058a0:	687b      	ldr	r3, [r7, #4]
 80058a2:	685b      	ldr	r3, [r3, #4]
 80058a4:	613b      	str	r3, [r7, #16]
 80058a6:	687b      	ldr	r3, [r7, #4]
 80058a8:	699b      	ldr	r3, [r3, #24]
 80058aa:	60fb      	str	r3, [r7, #12]
 80058ac:	68fb      	ldr	r3, [r7, #12]
 80058ae:	f423 43e0 	bic.w	r3, r3, #28672	; 0x7000
 80058b2:	60fb      	str	r3, [r7, #12]
 80058b4:	68fb      	ldr	r3, [r7, #12]
 80058b6:	f423 7340 	bic.w	r3, r3, #768	; 0x300
 80058ba:	60fb      	str	r3, [r7, #12]
 80058bc:	683b      	ldr	r3, [r7, #0]
 80058be:	681b      	ldr	r3, [r3, #0]
 80058c0:	021b      	lsls	r3, r3, #8
 80058c2:	68fa      	ldr	r2, [r7, #12]
 80058c4:	4313      	orrs	r3, r2
 80058c6:	60fb      	str	r3, [r7, #12]
 80058c8:	697b      	ldr	r3, [r7, #20]
 80058ca:	f023 0320 	bic.w	r3, r3, #32
 80058ce:	617b      	str	r3, [r7, #20]
 80058d0:	683b      	ldr	r3, [r7, #0]
 80058d2:	689b      	ldr	r3, [r3, #8]
 80058d4:	011b      	lsls	r3, r3, #4
 80058d6:	697a      	ldr	r2, [r7, #20]
 80058d8:	4313      	orrs	r3, r2
 80058da:	617b      	str	r3, [r7, #20]
 80058dc:	687b      	ldr	r3, [r7, #4]
 80058de:	4a22      	ldr	r2, [pc, #136]	; (8005968 <TIM_OC2_SetConfig+0xe4>)
 80058e0:	4293      	cmp	r3, r2
 80058e2:	d003      	beq.n	80058ec <TIM_OC2_SetConfig+0x68>
 80058e4:	687b      	ldr	r3, [r7, #4]
 80058e6:	4a21      	ldr	r2, [pc, #132]	; (800596c <TIM_OC2_SetConfig+0xe8>)
 80058e8:	4293      	cmp	r3, r2
 80058ea:	d10d      	bne.n	8005908 <TIM_OC2_SetConfig+0x84>
 80058ec:	697b      	ldr	r3, [r7, #20]
 80058ee:	f023 0380 	bic.w	r3, r3, #128	; 0x80
 80058f2:	617b      	str	r3, [r7, #20]
 80058f4:	683b      	ldr	r3, [r7, #0]
 80058f6:	68db      	ldr	r3, [r3, #12]
 80058f8:	011b      	lsls	r3, r3, #4
 80058fa:	697a      	ldr	r2, [r7, #20]
 80058fc:	4313      	orrs	r3, r2
 80058fe:	617b      	str	r3, [r7, #20]
 8005900:	697b      	ldr	r3, [r7, #20]
 8005902:	f023 0340 	bic.w	r3, r3, #64	; 0x40
 8005906:	617b      	str	r3, [r7, #20]
 8005908:	687b      	ldr	r3, [r7, #4]
 800590a:	4a17      	ldr	r2, [pc, #92]	; (8005968 <TIM_OC2_SetConfig+0xe4>)
 800590c:	4293      	cmp	r3, r2
 800590e:	d003      	beq.n	8005918 <TIM_OC2_SetConfig+0x94>
 8005910:	687b      	ldr	r3, [r7, #4]
 8005912:	4a16      	ldr	r2, [pc, #88]	; (800596c <TIM_OC2_SetConfig+0xe8>)
 8005914:	4293      	cmp	r3, r2
 8005916:	d113      	bne.n	8005940 <TIM_OC2_SetConfig+0xbc>
 8005918:	693b      	ldr	r3, [r7, #16]
 800591a:	f423 6380 	bic.w	r3, r3, #1024	; 0x400
 800591e:	613b      	str	r3, [r7, #16]
 8005920:	693b      	ldr	r3, [r7, #16]
 8005922:	f423 6300 	bic.w	r3, r3, #2048	; 0x800
 8005926:	613b      	str	r3, [r7, #16]
 8005928:	683b      	ldr	r3, [r7, #0]
 800592a:	695b      	ldr	r3, [r3, #20]
 800592c:	009b      	lsls	r3, r3, #2
 800592e:	693a      	ldr	r2, [r7, #16]
 8005930:	4313      	orrs	r3, r2
 8005932:	613b      	str	r3, [r7, #16]
 8005934:	683b      	ldr	r3, [r7, #0]
 8005936:	699b      	ldr	r3, [r3, #24]
 8005938:	009b      	lsls	r3, r3, #2
 800593a:	693a      	ldr	r2, [r7, #16]
 800593c:	4313      	orrs	r3, r2
 800593e:	613b      	str	r3, [r7, #16]
 8005940:	687b      	ldr	r3, [r7, #4]
 8005942:	693a      	ldr	r2, [r7, #16]
 8005944:	605a      	str	r2, [r3, #4]
 8005946:	687b      	ldr	r3, [r7, #4]
 8005948:	68fa      	ldr	r2, [r7, #12]
 800594a:	619a      	str	r2, [r3, #24]
 800594c:	683b      	ldr	r3, [r7, #0]
 800594e:	685a      	ldr	r2, [r3, #4]
 8005950:	687b      	ldr	r3, [r7, #4]
 8005952:	639a      	str	r2, [r3, #56]	; 0x38
 8005954:	687b      	ldr	r3, [r7, #4]
 8005956:	697a      	ldr	r2, [r7, #20]
 8005958:	621a      	str	r2, [r3, #32]
 800595a:	bf00      	nop
 800595c:	371c      	adds	r7, #28
 800595e:	46bd      	mov	sp, r7
 8005960:	f85d 7b04 	ldr.w	r7, [sp], #4
 8005964:	4770      	bx	lr
 8005966:	bf00      	nop
 8005968:	40010000 	.word	0x40010000
 800596c:	40010400 	.word	0x40010400

08005970 <TIM_OC3_SetConfig>:
 8005970:	b480      	push	{r7}
 8005972:	b087      	sub	sp, #28
 8005974:	af00      	add	r7, sp, #0
 8005976:	6078      	str	r0, [r7, #4]
 8005978:	6039      	str	r1, [r7, #0]
 800597a:	687b      	ldr	r3, [r7, #4]
 800597c:	6a1b      	ldr	r3, [r3, #32]
 800597e:	f423 7280 	bic.w	r2, r3, #256	; 0x100
 8005982:	687b      	ldr	r3, [r7, #4]
 8005984:	621a      	str	r2, [r3, #32]
 8005986:	687b      	ldr	r3, [r7, #4]
 8005988:	6a1b      	ldr	r3, [r3, #32]
 800598a:	617b      	str	r3, [r7, #20]
 800598c:	687b      	ldr	r3, [r7, #4]
 800598e:	685b      	ldr	r3, [r3, #4]
 8005990:	613b      	str	r3, [r7, #16]
 8005992:	687b      	ldr	r3, [r7, #4]
 8005994:	69db      	ldr	r3, [r3, #28]
 8005996:	60fb      	str	r3, [r7, #12]
 8005998:	68fb      	ldr	r3, [r7, #12]
 800599a:	f023 0370 	bic.w	r3, r3, #112	; 0x70
 800599e:	60fb      	str	r3, [r7, #12]
 80059a0:	68fb      	ldr	r3, [r7, #12]
 80059a2:	f023 0303 	bic.w	r3, r3, #3
 80059a6:	60fb      	str	r3, [r7, #12]
 80059a8:	683b      	ldr	r3, [r7, #0]
 80059aa:	681b      	ldr	r3, [r3, #0]
 80059ac:	68fa      	ldr	r2, [r7, #12]
 80059ae:	4313      	orrs	r3, r2
 80059b0:	60fb      	str	r3, [r7, #12]
 80059b2:	697b      	ldr	r3, [r7, #20]
 80059b4:	f423 7300 	bic.w	r3, r3, #512	; 0x200
 80059b8:	617b      	str	r3, [r7, #20]
 80059ba:	683b      	ldr	r3, [r7, #0]
 80059bc:	689b      	ldr	r3, [r3, #8]
 80059be:	021b      	lsls	r3, r3, #8
 80059c0:	697a      	ldr	r2, [r7, #20]
 80059c2:	4313      	orrs	r3, r2
 80059c4:	617b      	str	r3, [r7, #20]
 80059c6:	687b      	ldr	r3, [r7, #4]
 80059c8:	4a21      	ldr	r2, [pc, #132]	; (8005a50 <TIM_OC3_SetConfig+0xe0>)
 80059ca:	4293      	cmp	r3, r2
 80059cc:	d003      	beq.n	80059d6 <TIM_OC3_SetConfig+0x66>
 80059ce:	687b      	ldr	r3, [r7, #4]
 80059d0:	4a20      	ldr	r2, [pc, #128]	; (8005a54 <TIM_OC3_SetConfig+0xe4>)
 80059d2:	4293      	cmp	r3, r2
 80059d4:	d10d      	bne.n	80059f2 <TIM_OC3_SetConfig+0x82>
 80059d6:	697b      	ldr	r3, [r7, #20]
 80059d8:	f423 6300 	bic.w	r3, r3, #2048	; 0x800
 80059dc:	617b      	str	r3, [r7, #20]
 80059de:	683b      	ldr	r3, [r7, #0]
 80059e0:	68db      	ldr	r3, [r3, #12]
 80059e2:	021b      	lsls	r3, r3, #8
 80059e4:	697a      	ldr	r2, [r7, #20]
 80059e6:	4313      	orrs	r3, r2
 80059e8:	617b      	str	r3, [r7, #20]
 80059ea:	697b      	ldr	r3, [r7, #20]
 80059ec:	f423 6380 	bic.w	r3, r3, #1024	; 0x400
 80059f0:	617b      	str	r3, [r7, #20]
 80059f2:	687b      	ldr	r3, [r7, #4]
 80059f4:	4a16      	ldr	r2, [pc, #88]	; (8005a50 <TIM_OC3_SetConfig+0xe0>)
 80059f6:	4293      	cmp	r3, r2
 80059f8:	d003      	beq.n	8005a02 <TIM_OC3_SetConfig+0x92>
 80059fa:	687b      	ldr	r3, [r7, #4]
 80059fc:	4a15      	ldr	r2, [pc, #84]	; (8005a54 <TIM_OC3_SetConfig+0xe4>)
 80059fe:	4293      	cmp	r3, r2
 8005a00:	d113      	bne.n	8005a2a <TIM_OC3_SetConfig+0xba>
 8005a02:	693b      	ldr	r3, [r7, #16]
 8005a04:	f423 5380 	bic.w	r3, r3, #4096	; 0x1000
 8005a08:	613b      	str	r3, [r7, #16]
 8005a0a:	693b      	ldr	r3, [r7, #16]
 8005a0c:	f423 5300 	bic.w	r3, r3, #8192	; 0x2000
 8005a10:	613b      	str	r3, [r7, #16]
 8005a12:	683b      	ldr	r3, [r7, #0]
 8005a14:	695b      	ldr	r3, [r3, #20]
 8005a16:	011b      	lsls	r3, r3, #4
 8005a18:	693a      	ldr	r2, [r7, #16]
 8005a1a:	4313      	orrs	r3, r2
 8005a1c:	613b      	str	r3, [r7, #16]
 8005a1e:	683b      	ldr	r3, [r7, #0]
 8005a20:	699b      	ldr	r3, [r3, #24]
 8005a22:	011b      	lsls	r3, r3, #4
 8005a24:	693a      	ldr	r2, [r7, #16]
 8005a26:	4313      	orrs	r3, r2
 8005a28:	613b      	str	r3, [r7, #16]
 8005a2a:	687b      	ldr	r3, [r7, #4]
 8005a2c:	693a      	ldr	r2, [r7, #16]
 8005a2e:	605a      	str	r2, [r3, #4]
 8005a30:	687b      	ldr	r3, [r7, #4]
 8005a32:	68fa      	ldr	r2, [r7, #12]
 8005a34:	61da      	str	r2, [r3, #28]
 8005a36:	683b      	ldr	r3, [r7, #0]
 8005a38:	685a      	ldr	r2, [r3, #4]
 8005a3a:	687b      	ldr	r3, [r7, #4]
 8005a3c:	63da      	str	r2, [r3, #60]	; 0x3c
 8005a3e:	687b      	ldr	r3, [r7, #4]
 8005a40:	697a      	ldr	r2, [r7, #20]
 8005a42:	621a      	str	r2, [r3, #32]
 8005a44:	bf00      	nop
 8005a46:	371c      	adds	r7, #28
 8005a48:	46bd      	mov	sp, r7
 8005a4a:	f85d 7b04 	ldr.w	r7, [sp], #4
 8005a4e:	4770      	bx	lr
 8005a50:	40010000 	.word	0x40010000
 8005a54:	40010400 	.word	0x40010400

08005a58 <TIM_OC4_SetConfig>:
 8005a58:	b480      	push	{r7}
 8005a5a:	b087      	sub	sp, #28
 8005a5c:	af00      	add	r7, sp, #0
 8005a5e:	6078      	str	r0, [r7, #4]
 8005a60:	6039      	str	r1, [r7, #0]
 8005a62:	687b      	ldr	r3, [r7, #4]
 8005a64:	6a1b      	ldr	r3, [r3, #32]
 8005a66:	f423 5280 	bic.w	r2, r3, #4096	; 0x1000
 8005a6a:	687b      	ldr	r3, [r7, #4]
 8005a6c:	621a      	str	r2, [r3, #32]
 8005a6e:	687b      	ldr	r3, [r7, #4]
 8005a70:	6a1b      	ldr	r3, [r3, #32]
 8005a72:	613b      	str	r3, [r7, #16]
 8005a74:	687b      	ldr	r3, [r7, #4]
 8005a76:	685b      	ldr	r3, [r3, #4]
 8005a78:	617b      	str	r3, [r7, #20]
 8005a7a:	687b      	ldr	r3, [r7, #4]
 8005a7c:	69db      	ldr	r3, [r3, #28]
 8005a7e:	60fb      	str	r3, [r7, #12]
 8005a80:	68fb      	ldr	r3, [r7, #12]
 8005a82:	f423 43e0 	bic.w	r3, r3, #28672	; 0x7000
 8005a86:	60fb      	str	r3, [r7, #12]
 8005a88:	68fb      	ldr	r3, [r7, #12]
 8005a8a:	f423 7340 	bic.w	r3, r3, #768	; 0x300
 8005a8e:	60fb      	str	r3, [r7, #12]
 8005a90:	683b      	ldr	r3, [r7, #0]
 8005a92:	681b      	ldr	r3, [r3, #0]
 8005a94:	021b      	lsls	r3, r3, #8
 8005a96:	68fa      	ldr	r2, [r7, #12]
 8005a98:	4313      	orrs	r3, r2
 8005a9a:	60fb      	str	r3, [r7, #12]
 8005a9c:	693b      	ldr	r3, [r7, #16]
 8005a9e:	f423 5300 	bic.w	r3, r3, #8192	; 0x2000
 8005aa2:	613b      	str	r3, [r7, #16]
 8005aa4:	683b      	ldr	r3, [r7, #0]
 8005aa6:	689b      	ldr	r3, [r3, #8]
 8005aa8:	031b      	lsls	r3, r3, #12
 8005aaa:	693a      	ldr	r2, [r7, #16]
 8005aac:	4313      	orrs	r3, r2
 8005aae:	613b      	str	r3, [r7, #16]
 8005ab0:	687b      	ldr	r3, [r7, #4]
 8005ab2:	4a12      	ldr	r2, [pc, #72]	; (8005afc <TIM_OC4_SetConfig+0xa4>)
 8005ab4:	4293      	cmp	r3, r2
 8005ab6:	d003      	beq.n	8005ac0 <TIM_OC4_SetConfig+0x68>
 8005ab8:	687b      	ldr	r3, [r7, #4]
 8005aba:	4a11      	ldr	r2, [pc, #68]	; (8005b00 <TIM_OC4_SetConfig+0xa8>)
 8005abc:	4293      	cmp	r3, r2
 8005abe:	d109      	bne.n	8005ad4 <TIM_OC4_SetConfig+0x7c>
 8005ac0:	697b      	ldr	r3, [r7, #20]
 8005ac2:	f423 4380 	bic.w	r3, r3, #16384	; 0x4000
 8005ac6:	617b      	str	r3, [r7, #20]
 8005ac8:	683b      	ldr	r3, [r7, #0]
 8005aca:	695b      	ldr	r3, [r3, #20]
 8005acc:	019b      	lsls	r3, r3, #6
 8005ace:	697a      	ldr	r2, [r7, #20]
 8005ad0:	4313      	orrs	r3, r2
 8005ad2:	617b      	str	r3, [r7, #20]
 8005ad4:	687b      	ldr	r3, [r7, #4]
 8005ad6:	697a      	ldr	r2, [r7, #20]
 8005ad8:	605a      	str	r2, [r3, #4]
 8005ada:	687b      	ldr	r3, [r7, #4]
 8005adc:	68fa      	ldr	r2, [r7, #12]
 8005ade:	61da      	str	r2, [r3, #28]
 8005ae0:	683b      	ldr	r3, [r7, #0]
 8005ae2:	685a      	ldr	r2, [r3, #4]
 8005ae4:	687b      	ldr	r3, [r7, #4]
 8005ae6:	641a      	str	r2, [r3, #64]	; 0x40
 8005ae8:	687b      	ldr	r3, [r7, #4]
 8005aea:	693a      	ldr	r2, [r7, #16]
 8005aec:	621a      	str	r2, [r3, #32]
 8005aee:	bf00      	nop
 8005af0:	371c      	adds	r7, #28
 8005af2:	46bd      	mov	sp, r7
 8005af4:	f85d 7b04 	ldr.w	r7, [sp], #4
 8005af8:	4770      	bx	lr
 8005afa:	bf00      	nop
 8005afc:	40010000 	.word	0x40010000
 8005b00:	40010400 	.word	0x40010400

08005b04 <TIM_TI1_ConfigInputStage>:
 8005b04:	b480      	push	{r7}
 8005b06:	b087      	sub	sp, #28
 8005b08:	af00      	add	r7, sp, #0
 8005b0a:	60f8      	str	r0, [r7, #12]
 8005b0c:	60b9      	str	r1, [r7, #8]
 8005b0e:	607a      	str	r2, [r7, #4]
 8005b10:	68fb      	ldr	r3, [r7, #12]
 8005b12:	6a1b      	ldr	r3, [r3, #32]
 8005b14:	617b      	str	r3, [r7, #20]
 8005b16:	68fb      	ldr	r3, [r7, #12]
 8005b18:	6a1b      	ldr	r3, [r3, #32]
 8005b1a:	f023 0201 	bic.w	r2, r3, #1
 8005b1e:	68fb      	ldr	r3, [r7, #12]
 8005b20:	621a      	str	r2, [r3, #32]
 8005b22:	68fb      	ldr	r3, [r7, #12]
 8005b24:	699b      	ldr	r3, [r3, #24]
 8005b26:	613b      	str	r3, [r7, #16]
 8005b28:	693b      	ldr	r3, [r7, #16]
 8005b2a:	f023 03f0 	bic.w	r3, r3, #240	; 0xf0
 8005b2e:	613b      	str	r3, [r7, #16]
 8005b30:	687b      	ldr	r3, [r7, #4]
 8005b32:	011b      	lsls	r3, r3, #4
 8005b34:	693a      	ldr	r2, [r7, #16]
 8005b36:	4313      	orrs	r3, r2
 8005b38:	613b      	str	r3, [r7, #16]
 8005b3a:	697b      	ldr	r3, [r7, #20]
 8005b3c:	f023 030a 	bic.w	r3, r3, #10
 8005b40:	617b      	str	r3, [r7, #20]
 8005b42:	697a      	ldr	r2, [r7, #20]
 8005b44:	68bb      	ldr	r3, [r7, #8]
 8005b46:	4313      	orrs	r3, r2
 8005b48:	617b      	str	r3, [r7, #20]
 8005b4a:	68fb      	ldr	r3, [r7, #12]
 8005b4c:	693a      	ldr	r2, [r7, #16]
 8005b4e:	619a      	str	r2, [r3, #24]
 8005b50:	68fb      	ldr	r3, [r7, #12]
 8005b52:	697a      	ldr	r2, [r7, #20]
 8005b54:	621a      	str	r2, [r3, #32]
 8005b56:	bf00      	nop
 8005b58:	371c      	adds	r7, #28
 8005b5a:	46bd      	mov	sp, r7
 8005b5c:	f85d 7b04 	ldr.w	r7, [sp], #4
 8005b60:	4770      	bx	lr

08005b62 <TIM_TI2_ConfigInputStage>:
 8005b62:	b480      	push	{r7}
 8005b64:	b087      	sub	sp, #28
 8005b66:	af00      	add	r7, sp, #0
 8005b68:	60f8      	str	r0, [r7, #12]
 8005b6a:	60b9      	str	r1, [r7, #8]
 8005b6c:	607a      	str	r2, [r7, #4]
 8005b6e:	68fb      	ldr	r3, [r7, #12]
 8005b70:	6a1b      	ldr	r3, [r3, #32]
 8005b72:	f023 0210 	bic.w	r2, r3, #16
 8005b76:	68fb      	ldr	r3, [r7, #12]
 8005b78:	621a      	str	r2, [r3, #32]
 8005b7a:	68fb      	ldr	r3, [r7, #12]
 8005b7c:	699b      	ldr	r3, [r3, #24]
 8005b7e:	617b      	str	r3, [r7, #20]
 8005b80:	68fb      	ldr	r3, [r7, #12]
 8005b82:	6a1b      	ldr	r3, [r3, #32]
 8005b84:	613b      	str	r3, [r7, #16]
 8005b86:	697b      	ldr	r3, [r7, #20]
 8005b88:	f423 4370 	bic.w	r3, r3, #61440	; 0xf000
 8005b8c:	617b      	str	r3, [r7, #20]
 8005b8e:	687b      	ldr	r3, [r7, #4]
 8005b90:	031b      	lsls	r3, r3, #12
 8005b92:	697a      	ldr	r2, [r7, #20]
 8005b94:	4313      	orrs	r3, r2
 8005b96:	617b      	str	r3, [r7, #20]
 8005b98:	693b      	ldr	r3, [r7, #16]
 8005b9a:	f023 03a0 	bic.w	r3, r3, #160	; 0xa0
 8005b9e:	613b      	str	r3, [r7, #16]
 8005ba0:	68bb      	ldr	r3, [r7, #8]
 8005ba2:	011b      	lsls	r3, r3, #4
 8005ba4:	693a      	ldr	r2, [r7, #16]
 8005ba6:	4313      	orrs	r3, r2
 8005ba8:	613b      	str	r3, [r7, #16]
 8005baa:	68fb      	ldr	r3, [r7, #12]
 8005bac:	697a      	ldr	r2, [r7, #20]
 8005bae:	619a      	str	r2, [r3, #24]
 8005bb0:	68fb      	ldr	r3, [r7, #12]
 8005bb2:	693a      	ldr	r2, [r7, #16]
 8005bb4:	621a      	str	r2, [r3, #32]
 8005bb6:	bf00      	nop
 8005bb8:	371c      	adds	r7, #28
 8005bba:	46bd      	mov	sp, r7
 8005bbc:	f85d 7b04 	ldr.w	r7, [sp], #4
 8005bc0:	4770      	bx	lr

08005bc2 <TIM_ITRx_SetConfig>:
 8005bc2:	b480      	push	{r7}
 8005bc4:	b085      	sub	sp, #20
 8005bc6:	af00      	add	r7, sp, #0
 8005bc8:	6078      	str	r0, [r7, #4]
 8005bca:	6039      	str	r1, [r7, #0]
 8005bcc:	687b      	ldr	r3, [r7, #4]
 8005bce:	689b      	ldr	r3, [r3, #8]
 8005bd0:	60fb      	str	r3, [r7, #12]
 8005bd2:	68fb      	ldr	r3, [r7, #12]
 8005bd4:	f023 0370 	bic.w	r3, r3, #112	; 0x70
 8005bd8:	60fb      	str	r3, [r7, #12]
 8005bda:	683a      	ldr	r2, [r7, #0]
 8005bdc:	68fb      	ldr	r3, [r7, #12]
 8005bde:	4313      	orrs	r3, r2
 8005be0:	f043 0307 	orr.w	r3, r3, #7
 8005be4:	60fb      	str	r3, [r7, #12]
 8005be6:	687b      	ldr	r3, [r7, #4]
 8005be8:	68fa      	ldr	r2, [r7, #12]
 8005bea:	609a      	str	r2, [r3, #8]
 8005bec:	bf00      	nop
 8005bee:	3714      	adds	r7, #20
 8005bf0:	46bd      	mov	sp, r7
 8005bf2:	f85d 7b04 	ldr.w	r7, [sp], #4
 8005bf6:	4770      	bx	lr

08005bf8 <TIM_ETR_SetConfig>:
 8005bf8:	b480      	push	{r7}
 8005bfa:	b087      	sub	sp, #28
 8005bfc:	af00      	add	r7, sp, #0
 8005bfe:	60f8      	str	r0, [r7, #12]
 8005c00:	60b9      	str	r1, [r7, #8]
 8005c02:	607a      	str	r2, [r7, #4]
 8005c04:	603b      	str	r3, [r7, #0]
 8005c06:	68fb      	ldr	r3, [r7, #12]
 8005c08:	689b      	ldr	r3, [r3, #8]
 8005c0a:	617b      	str	r3, [r7, #20]
 8005c0c:	697b      	ldr	r3, [r7, #20]
 8005c0e:	f423 437f 	bic.w	r3, r3, #65280	; 0xff00
 8005c12:	617b      	str	r3, [r7, #20]
 8005c14:	683b      	ldr	r3, [r7, #0]
 8005c16:	021a      	lsls	r2, r3, #8
 8005c18:	687b      	ldr	r3, [r7, #4]
 8005c1a:	431a      	orrs	r2, r3
 8005c1c:	68bb      	ldr	r3, [r7, #8]
 8005c1e:	4313      	orrs	r3, r2
 8005c20:	697a      	ldr	r2, [r7, #20]
 8005c22:	4313      	orrs	r3, r2
 8005c24:	617b      	str	r3, [r7, #20]
 8005c26:	68fb      	ldr	r3, [r7, #12]
 8005c28:	697a      	ldr	r2, [r7, #20]
 8005c2a:	609a      	str	r2, [r3, #8]
 8005c2c:	bf00      	nop
 8005c2e:	371c      	adds	r7, #28
 8005c30:	46bd      	mov	sp, r7
 8005c32:	f85d 7b04 	ldr.w	r7, [sp], #4
 8005c36:	4770      	bx	lr

08005c38 <HAL_TIMEx_MasterConfigSynchronization>:
 8005c38:	b480      	push	{r7}
 8005c3a:	b085      	sub	sp, #20
 8005c3c:	af00      	add	r7, sp, #0
 8005c3e:	6078      	str	r0, [r7, #4]
 8005c40:	6039      	str	r1, [r7, #0]
 8005c42:	687b      	ldr	r3, [r7, #4]
 8005c44:	f893 303c 	ldrb.w	r3, [r3, #60]	; 0x3c
 8005c48:	2b01      	cmp	r3, #1
 8005c4a:	d101      	bne.n	8005c50 <HAL_TIMEx_MasterConfigSynchronization+0x18>
 8005c4c:	2302      	movs	r3, #2
 8005c4e:	e05a      	b.n	8005d06 <HAL_TIMEx_MasterConfigSynchronization+0xce>
 8005c50:	687b      	ldr	r3, [r7, #4]
 8005c52:	2201      	movs	r2, #1
 8005c54:	f883 203c 	strb.w	r2, [r3, #60]	; 0x3c
 8005c58:	687b      	ldr	r3, [r7, #4]
 8005c5a:	2202      	movs	r2, #2
 8005c5c:	f883 203d 	strb.w	r2, [r3, #61]	; 0x3d
 8005c60:	687b      	ldr	r3, [r7, #4]
 8005c62:	681b      	ldr	r3, [r3, #0]
 8005c64:	685b      	ldr	r3, [r3, #4]
 8005c66:	60fb      	str	r3, [r7, #12]
 8005c68:	687b      	ldr	r3, [r7, #4]
 8005c6a:	681b      	ldr	r3, [r3, #0]
 8005c6c:	689b      	ldr	r3, [r3, #8]
 8005c6e:	60bb      	str	r3, [r7, #8]
 8005c70:	68fb      	ldr	r3, [r7, #12]
 8005c72:	f023 0370 	bic.w	r3, r3, #112	; 0x70
 8005c76:	60fb      	str	r3, [r7, #12]
 8005c78:	683b      	ldr	r3, [r7, #0]
 8005c7a:	681b      	ldr	r3, [r3, #0]
 8005c7c:	68fa      	ldr	r2, [r7, #12]
 8005c7e:	4313      	orrs	r3, r2
 8005c80:	60fb      	str	r3, [r7, #12]
 8005c82:	687b      	ldr	r3, [r7, #4]
 8005c84:	681b      	ldr	r3, [r3, #0]
 8005c86:	68fa      	ldr	r2, [r7, #12]
 8005c88:	605a      	str	r2, [r3, #4]
 8005c8a:	687b      	ldr	r3, [r7, #4]
 8005c8c:	681b      	ldr	r3, [r3, #0]
 8005c8e:	4a21      	ldr	r2, [pc, #132]	; (8005d14 <HAL_TIMEx_MasterConfigSynchronization+0xdc>)
 8005c90:	4293      	cmp	r3, r2
 8005c92:	d022      	beq.n	8005cda <HAL_TIMEx_MasterConfigSynchronization+0xa2>
 8005c94:	687b      	ldr	r3, [r7, #4]
 8005c96:	681b      	ldr	r3, [r3, #0]
 8005c98:	f1b3 4f80 	cmp.w	r3, #1073741824	; 0x40000000
 8005c9c:	d01d      	beq.n	8005cda <HAL_TIMEx_MasterConfigSynchronization+0xa2>
 8005c9e:	687b      	ldr	r3, [r7, #4]
 8005ca0:	681b      	ldr	r3, [r3, #0]
 8005ca2:	4a1d      	ldr	r2, [pc, #116]	; (8005d18 <HAL_TIMEx_MasterConfigSynchronization+0xe0>)
 8005ca4:	4293      	cmp	r3, r2
 8005ca6:	d018      	beq.n	8005cda <HAL_TIMEx_MasterConfigSynchronization+0xa2>
 8005ca8:	687b      	ldr	r3, [r7, #4]
 8005caa:	681b      	ldr	r3, [r3, #0]
 8005cac:	4a1b      	ldr	r2, [pc, #108]	; (8005d1c <HAL_TIMEx_MasterConfigSynchronization+0xe4>)
 8005cae:	4293      	cmp	r3, r2
 8005cb0:	d013      	beq.n	8005cda <HAL_TIMEx_MasterConfigSynchronization+0xa2>
 8005cb2:	687b      	ldr	r3, [r7, #4]
 8005cb4:	681b      	ldr	r3, [r3, #0]
 8005cb6:	4a1a      	ldr	r2, [pc, #104]	; (8005d20 <HAL_TIMEx_MasterConfigSynchronization+0xe8>)
 8005cb8:	4293      	cmp	r3, r2
 8005cba:	d00e      	beq.n	8005cda <HAL_TIMEx_MasterConfigSynchronization+0xa2>
 8005cbc:	687b      	ldr	r3, [r7, #4]
 8005cbe:	681b      	ldr	r3, [r3, #0]
 8005cc0:	4a18      	ldr	r2, [pc, #96]	; (8005d24 <HAL_TIMEx_MasterConfigSynchronization+0xec>)
 8005cc2:	4293      	cmp	r3, r2
 8005cc4:	d009      	beq.n	8005cda <HAL_TIMEx_MasterConfigSynchronization+0xa2>
 8005cc6:	687b      	ldr	r3, [r7, #4]
 8005cc8:	681b      	ldr	r3, [r3, #0]
 8005cca:	4a17      	ldr	r2, [pc, #92]	; (8005d28 <HAL_TIMEx_MasterConfigSynchronization+0xf0>)
 8005ccc:	4293      	cmp	r3, r2
 8005cce:	d004      	beq.n	8005cda <HAL_TIMEx_MasterConfigSynchronization+0xa2>
 8005cd0:	687b      	ldr	r3, [r7, #4]
 8005cd2:	681b      	ldr	r3, [r3, #0]
 8005cd4:	4a15      	ldr	r2, [pc, #84]	; (8005d2c <HAL_TIMEx_MasterConfigSynchronization+0xf4>)
 8005cd6:	4293      	cmp	r3, r2
 8005cd8:	d10c      	bne.n	8005cf4 <HAL_TIMEx_MasterConfigSynchronization+0xbc>
 8005cda:	68bb      	ldr	r3, [r7, #8]
 8005cdc:	f023 0380 	bic.w	r3, r3, #128	; 0x80
 8005ce0:	60bb      	str	r3, [r7, #8]
 8005ce2:	683b      	ldr	r3, [r7, #0]
 8005ce4:	685b      	ldr	r3, [r3, #4]
 8005ce6:	68ba      	ldr	r2, [r7, #8]
 8005ce8:	4313      	orrs	r3, r2
 8005cea:	60bb      	str	r3, [r7, #8]
 8005cec:	687b      	ldr	r3, [r7, #4]
 8005cee:	681b      	ldr	r3, [r3, #0]
 8005cf0:	68ba      	ldr	r2, [r7, #8]
 8005cf2:	609a      	str	r2, [r3, #8]
 8005cf4:	687b      	ldr	r3, [r7, #4]
 8005cf6:	2201      	movs	r2, #1
 8005cf8:	f883 203d 	strb.w	r2, [r3, #61]	; 0x3d
 8005cfc:	687b      	ldr	r3, [r7, #4]
 8005cfe:	2200      	movs	r2, #0
 8005d00:	f883 203c 	strb.w	r2, [r3, #60]	; 0x3c
 8005d04:	2300      	movs	r3, #0
 8005d06:	4618      	mov	r0, r3
 8005d08:	3714      	adds	r7, #20
 8005d0a:	46bd      	mov	sp, r7
 8005d0c:	f85d 7b04 	ldr.w	r7, [sp], #4
 8005d10:	4770      	bx	lr
 8005d12:	bf00      	nop
 8005d14:	40010000 	.word	0x40010000
 8005d18:	40000400 	.word	0x40000400
 8005d1c:	40000800 	.word	0x40000800
 8005d20:	40000c00 	.word	0x40000c00
 8005d24:	40010400 	.word	0x40010400
 8005d28:	40014000 	.word	0x40014000
 8005d2c:	40001800 	.word	0x40001800

08005d30 <HAL_TIMEx_CommutCallback>:
 8005d30:	b480      	push	{r7}
 8005d32:	b083      	sub	sp, #12
 8005d34:	af00      	add	r7, sp, #0
 8005d36:	6078      	str	r0, [r7, #4]
 8005d38:	bf00      	nop
 8005d3a:	370c      	adds	r7, #12
 8005d3c:	46bd      	mov	sp, r7
 8005d3e:	f85d 7b04 	ldr.w	r7, [sp], #4
 8005d42:	4770      	bx	lr

08005d44 <HAL_TIMEx_BreakCallback>:
 8005d44:	b480      	push	{r7}
 8005d46:	b083      	sub	sp, #12
 8005d48:	af00      	add	r7, sp, #0
 8005d4a:	6078      	str	r0, [r7, #4]
 8005d4c:	bf00      	nop
 8005d4e:	370c      	adds	r7, #12
 8005d50:	46bd      	mov	sp, r7
 8005d52:	f85d 7b04 	ldr.w	r7, [sp], #4
 8005d56:	4770      	bx	lr

08005d58 <HAL_UART_Init>:
 8005d58:	b580      	push	{r7, lr}
 8005d5a:	b082      	sub	sp, #8
 8005d5c:	af00      	add	r7, sp, #0
 8005d5e:	6078      	str	r0, [r7, #4]
 8005d60:	687b      	ldr	r3, [r7, #4]
 8005d62:	2b00      	cmp	r3, #0
 8005d64:	d101      	bne.n	8005d6a <HAL_UART_Init+0x12>
 8005d66:	2301      	movs	r3, #1
 8005d68:	e03f      	b.n	8005dea <HAL_UART_Init+0x92>
 8005d6a:	687b      	ldr	r3, [r7, #4]
 8005d6c:	f893 303d 	ldrb.w	r3, [r3, #61]	; 0x3d
 8005d70:	b2db      	uxtb	r3, r3
 8005d72:	2b00      	cmp	r3, #0
 8005d74:	d106      	bne.n	8005d84 <HAL_UART_Init+0x2c>
 8005d76:	687b      	ldr	r3, [r7, #4]
 8005d78:	2200      	movs	r2, #0
 8005d7a:	f883 203c 	strb.w	r2, [r3, #60]	; 0x3c
 8005d7e:	6878      	ldr	r0, [r7, #4]
 8005d80:	f7fc fb26 	bl	80023d0 <HAL_UART_MspInit>
 8005d84:	687b      	ldr	r3, [r7, #4]
 8005d86:	2224      	movs	r2, #36	; 0x24
 8005d88:	f883 203d 	strb.w	r2, [r3, #61]	; 0x3d
 8005d8c:	687b      	ldr	r3, [r7, #4]
 8005d8e:	681b      	ldr	r3, [r3, #0]
 8005d90:	68da      	ldr	r2, [r3, #12]
 8005d92:	687b      	ldr	r3, [r7, #4]
 8005d94:	681b      	ldr	r3, [r3, #0]
 8005d96:	f422 5200 	bic.w	r2, r2, #8192	; 0x2000
 8005d9a:	60da      	str	r2, [r3, #12]
 8005d9c:	6878      	ldr	r0, [r7, #4]
 8005d9e:	f000 fddf 	bl	8006960 <UART_SetConfig>
 8005da2:	687b      	ldr	r3, [r7, #4]
 8005da4:	681b      	ldr	r3, [r3, #0]
 8005da6:	691a      	ldr	r2, [r3, #16]
 8005da8:	687b      	ldr	r3, [r7, #4]
 8005daa:	681b      	ldr	r3, [r3, #0]
 8005dac:	f422 4290 	bic.w	r2, r2, #18432	; 0x4800
 8005db0:	611a      	str	r2, [r3, #16]
 8005db2:	687b      	ldr	r3, [r7, #4]
 8005db4:	681b      	ldr	r3, [r3, #0]
 8005db6:	695a      	ldr	r2, [r3, #20]
 8005db8:	687b      	ldr	r3, [r7, #4]
 8005dba:	681b      	ldr	r3, [r3, #0]
 8005dbc:	f022 022a 	bic.w	r2, r2, #42	; 0x2a
 8005dc0:	615a      	str	r2, [r3, #20]
 8005dc2:	687b      	ldr	r3, [r7, #4]
 8005dc4:	681b      	ldr	r3, [r3, #0]
 8005dc6:	68da      	ldr	r2, [r3, #12]
 8005dc8:	687b      	ldr	r3, [r7, #4]
 8005dca:	681b      	ldr	r3, [r3, #0]
 8005dcc:	f442 5200 	orr.w	r2, r2, #8192	; 0x2000
 8005dd0:	60da      	str	r2, [r3, #12]
 8005dd2:	687b      	ldr	r3, [r7, #4]
 8005dd4:	2200      	movs	r2, #0
 8005dd6:	641a      	str	r2, [r3, #64]	; 0x40
 8005dd8:	687b      	ldr	r3, [r7, #4]
 8005dda:	2220      	movs	r2, #32
 8005ddc:	f883 203d 	strb.w	r2, [r3, #61]	; 0x3d
 8005de0:	687b      	ldr	r3, [r7, #4]
 8005de2:	2220      	movs	r2, #32
 8005de4:	f883 203e 	strb.w	r2, [r3, #62]	; 0x3e
 8005de8:	2300      	movs	r3, #0
 8005dea:	4618      	mov	r0, r3
 8005dec:	3708      	adds	r7, #8
 8005dee:	46bd      	mov	sp, r7
 8005df0:	bd80      	pop	{r7, pc}

08005df2 <HAL_UART_Transmit>:
 8005df2:	b580      	push	{r7, lr}
 8005df4:	b08a      	sub	sp, #40	; 0x28
 8005df6:	af02      	add	r7, sp, #8
 8005df8:	60f8      	str	r0, [r7, #12]
 8005dfa:	60b9      	str	r1, [r7, #8]
 8005dfc:	603b      	str	r3, [r7, #0]
 8005dfe:	4613      	mov	r3, r2
 8005e00:	80fb      	strh	r3, [r7, #6]
 8005e02:	2300      	movs	r3, #0
 8005e04:	617b      	str	r3, [r7, #20]
 8005e06:	68fb      	ldr	r3, [r7, #12]
 8005e08:	f893 303d 	ldrb.w	r3, [r3, #61]	; 0x3d
 8005e0c:	b2db      	uxtb	r3, r3
 8005e0e:	2b20      	cmp	r3, #32
 8005e10:	d17c      	bne.n	8005f0c <HAL_UART_Transmit+0x11a>
 8005e12:	68bb      	ldr	r3, [r7, #8]
 8005e14:	2b00      	cmp	r3, #0
 8005e16:	d002      	beq.n	8005e1e <HAL_UART_Transmit+0x2c>
 8005e18:	88fb      	ldrh	r3, [r7, #6]
 8005e1a:	2b00      	cmp	r3, #0
 8005e1c:	d101      	bne.n	8005e22 <HAL_UART_Transmit+0x30>
 8005e1e:	2301      	movs	r3, #1
 8005e20:	e075      	b.n	8005f0e <HAL_UART_Transmit+0x11c>
 8005e22:	68fb      	ldr	r3, [r7, #12]
 8005e24:	f893 303c 	ldrb.w	r3, [r3, #60]	; 0x3c
 8005e28:	2b01      	cmp	r3, #1
 8005e2a:	d101      	bne.n	8005e30 <HAL_UART_Transmit+0x3e>
 8005e2c:	2302      	movs	r3, #2
 8005e2e:	e06e      	b.n	8005f0e <HAL_UART_Transmit+0x11c>
 8005e30:	68fb      	ldr	r3, [r7, #12]
 8005e32:	2201      	movs	r2, #1
 8005e34:	f883 203c 	strb.w	r2, [r3, #60]	; 0x3c
 8005e38:	68fb      	ldr	r3, [r7, #12]
 8005e3a:	2200      	movs	r2, #0
 8005e3c:	641a      	str	r2, [r3, #64]	; 0x40
 8005e3e:	68fb      	ldr	r3, [r7, #12]
 8005e40:	2221      	movs	r2, #33	; 0x21
 8005e42:	f883 203d 	strb.w	r2, [r3, #61]	; 0x3d
 8005e46:	f7fc fbdf 	bl	8002608 <HAL_GetTick>
 8005e4a:	6178      	str	r0, [r7, #20]
 8005e4c:	68fb      	ldr	r3, [r7, #12]
 8005e4e:	88fa      	ldrh	r2, [r7, #6]
 8005e50:	849a      	strh	r2, [r3, #36]	; 0x24
 8005e52:	68fb      	ldr	r3, [r7, #12]
 8005e54:	88fa      	ldrh	r2, [r7, #6]
 8005e56:	84da      	strh	r2, [r3, #38]	; 0x26
 8005e58:	68fb      	ldr	r3, [r7, #12]
 8005e5a:	689b      	ldr	r3, [r3, #8]
 8005e5c:	f5b3 5f80 	cmp.w	r3, #4096	; 0x1000
 8005e60:	d108      	bne.n	8005e74 <HAL_UART_Transmit+0x82>
 8005e62:	68fb      	ldr	r3, [r7, #12]
 8005e64:	691b      	ldr	r3, [r3, #16]
 8005e66:	2b00      	cmp	r3, #0
 8005e68:	d104      	bne.n	8005e74 <HAL_UART_Transmit+0x82>
 8005e6a:	2300      	movs	r3, #0
 8005e6c:	61fb      	str	r3, [r7, #28]
 8005e6e:	68bb      	ldr	r3, [r7, #8]
 8005e70:	61bb      	str	r3, [r7, #24]
 8005e72:	e003      	b.n	8005e7c <HAL_UART_Transmit+0x8a>
 8005e74:	68bb      	ldr	r3, [r7, #8]
 8005e76:	61fb      	str	r3, [r7, #28]
 8005e78:	2300      	movs	r3, #0
 8005e7a:	61bb      	str	r3, [r7, #24]
 8005e7c:	68fb      	ldr	r3, [r7, #12]
 8005e7e:	2200      	movs	r2, #0
 8005e80:	f883 203c 	strb.w	r2, [r3, #60]	; 0x3c
 8005e84:	e02a      	b.n	8005edc <HAL_UART_Transmit+0xea>
 8005e86:	683b      	ldr	r3, [r7, #0]
 8005e88:	9300      	str	r3, [sp, #0]
 8005e8a:	697b      	ldr	r3, [r7, #20]
 8005e8c:	2200      	movs	r2, #0
 8005e8e:	2180      	movs	r1, #128	; 0x80
 8005e90:	68f8      	ldr	r0, [r7, #12]
 8005e92:	f000 fb1f 	bl	80064d4 <UART_WaitOnFlagUntilTimeout>
 8005e96:	4603      	mov	r3, r0
 8005e98:	2b00      	cmp	r3, #0
 8005e9a:	d001      	beq.n	8005ea0 <HAL_UART_Transmit+0xae>
 8005e9c:	2303      	movs	r3, #3
 8005e9e:	e036      	b.n	8005f0e <HAL_UART_Transmit+0x11c>
 8005ea0:	69fb      	ldr	r3, [r7, #28]
 8005ea2:	2b00      	cmp	r3, #0
 8005ea4:	d10b      	bne.n	8005ebe <HAL_UART_Transmit+0xcc>
 8005ea6:	69bb      	ldr	r3, [r7, #24]
 8005ea8:	881b      	ldrh	r3, [r3, #0]
 8005eaa:	461a      	mov	r2, r3
 8005eac:	68fb      	ldr	r3, [r7, #12]
 8005eae:	681b      	ldr	r3, [r3, #0]
 8005eb0:	f3c2 0208 	ubfx	r2, r2, #0, #9
 8005eb4:	605a      	str	r2, [r3, #4]
 8005eb6:	69bb      	ldr	r3, [r7, #24]
 8005eb8:	3302      	adds	r3, #2
 8005eba:	61bb      	str	r3, [r7, #24]
 8005ebc:	e007      	b.n	8005ece <HAL_UART_Transmit+0xdc>
 8005ebe:	69fb      	ldr	r3, [r7, #28]
 8005ec0:	781a      	ldrb	r2, [r3, #0]
 8005ec2:	68fb      	ldr	r3, [r7, #12]
 8005ec4:	681b      	ldr	r3, [r3, #0]
 8005ec6:	605a      	str	r2, [r3, #4]
 8005ec8:	69fb      	ldr	r3, [r7, #28]
 8005eca:	3301      	adds	r3, #1
 8005ecc:	61fb      	str	r3, [r7, #28]
 8005ece:	68fb      	ldr	r3, [r7, #12]
 8005ed0:	8cdb      	ldrh	r3, [r3, #38]	; 0x26
 8005ed2:	b29b      	uxth	r3, r3
 8005ed4:	3b01      	subs	r3, #1
 8005ed6:	b29a      	uxth	r2, r3
 8005ed8:	68fb      	ldr	r3, [r7, #12]
 8005eda:	84da      	strh	r2, [r3, #38]	; 0x26
 8005edc:	68fb      	ldr	r3, [r7, #12]
 8005ede:	8cdb      	ldrh	r3, [r3, #38]	; 0x26
 8005ee0:	b29b      	uxth	r3, r3
 8005ee2:	2b00      	cmp	r3, #0
 8005ee4:	d1cf      	bne.n	8005e86 <HAL_UART_Transmit+0x94>
 8005ee6:	683b      	ldr	r3, [r7, #0]
 8005ee8:	9300      	str	r3, [sp, #0]
 8005eea:	697b      	ldr	r3, [r7, #20]
 8005eec:	2200      	movs	r2, #0
 8005eee:	2140      	movs	r1, #64	; 0x40
 8005ef0:	68f8      	ldr	r0, [r7, #12]
 8005ef2:	f000 faef 	bl	80064d4 <UART_WaitOnFlagUntilTimeout>
 8005ef6:	4603      	mov	r3, r0
 8005ef8:	2b00      	cmp	r3, #0
 8005efa:	d001      	beq.n	8005f00 <HAL_UART_Transmit+0x10e>
 8005efc:	2303      	movs	r3, #3
 8005efe:	e006      	b.n	8005f0e <HAL_UART_Transmit+0x11c>
 8005f00:	68fb      	ldr	r3, [r7, #12]
 8005f02:	2220      	movs	r2, #32
 8005f04:	f883 203d 	strb.w	r2, [r3, #61]	; 0x3d
 8005f08:	2300      	movs	r3, #0
 8005f0a:	e000      	b.n	8005f0e <HAL_UART_Transmit+0x11c>
 8005f0c:	2302      	movs	r3, #2
 8005f0e:	4618      	mov	r0, r3
 8005f10:	3720      	adds	r7, #32
 8005f12:	46bd      	mov	sp, r7
 8005f14:	bd80      	pop	{r7, pc}

08005f16 <HAL_UART_Receive_IT>:
 8005f16:	b580      	push	{r7, lr}
 8005f18:	b084      	sub	sp, #16
 8005f1a:	af00      	add	r7, sp, #0
 8005f1c:	60f8      	str	r0, [r7, #12]
 8005f1e:	60b9      	str	r1, [r7, #8]
 8005f20:	4613      	mov	r3, r2
 8005f22:	80fb      	strh	r3, [r7, #6]
 8005f24:	68fb      	ldr	r3, [r7, #12]
 8005f26:	f893 303e 	ldrb.w	r3, [r3, #62]	; 0x3e
 8005f2a:	b2db      	uxtb	r3, r3
 8005f2c:	2b20      	cmp	r3, #32
 8005f2e:	d11d      	bne.n	8005f6c <HAL_UART_Receive_IT+0x56>
 8005f30:	68bb      	ldr	r3, [r7, #8]
 8005f32:	2b00      	cmp	r3, #0
 8005f34:	d002      	beq.n	8005f3c <HAL_UART_Receive_IT+0x26>
 8005f36:	88fb      	ldrh	r3, [r7, #6]
 8005f38:	2b00      	cmp	r3, #0
 8005f3a:	d101      	bne.n	8005f40 <HAL_UART_Receive_IT+0x2a>
 8005f3c:	2301      	movs	r3, #1
 8005f3e:	e016      	b.n	8005f6e <HAL_UART_Receive_IT+0x58>
 8005f40:	68fb      	ldr	r3, [r7, #12]
 8005f42:	f893 303c 	ldrb.w	r3, [r3, #60]	; 0x3c
 8005f46:	2b01      	cmp	r3, #1
 8005f48:	d101      	bne.n	8005f4e <HAL_UART_Receive_IT+0x38>
 8005f4a:	2302      	movs	r3, #2
 8005f4c:	e00f      	b.n	8005f6e <HAL_UART_Receive_IT+0x58>
 8005f4e:	68fb      	ldr	r3, [r7, #12]
 8005f50:	2201      	movs	r2, #1
 8005f52:	f883 203c 	strb.w	r2, [r3, #60]	; 0x3c
 8005f56:	68fb      	ldr	r3, [r7, #12]
 8005f58:	2200      	movs	r2, #0
 8005f5a:	631a      	str	r2, [r3, #48]	; 0x30
 8005f5c:	88fb      	ldrh	r3, [r7, #6]
 8005f5e:	461a      	mov	r2, r3
 8005f60:	68b9      	ldr	r1, [r7, #8]
 8005f62:	68f8      	ldr	r0, [r7, #12]
 8005f64:	f000 fb24 	bl	80065b0 <UART_Start_Receive_IT>
 8005f68:	4603      	mov	r3, r0
 8005f6a:	e000      	b.n	8005f6e <HAL_UART_Receive_IT+0x58>
 8005f6c:	2302      	movs	r3, #2
 8005f6e:	4618      	mov	r0, r3
 8005f70:	3710      	adds	r7, #16
 8005f72:	46bd      	mov	sp, r7
 8005f74:	bd80      	pop	{r7, pc}
	...

08005f78 <HAL_UART_IRQHandler>:
 8005f78:	b580      	push	{r7, lr}
 8005f7a:	b0ba      	sub	sp, #232	; 0xe8
 8005f7c:	af00      	add	r7, sp, #0
 8005f7e:	6078      	str	r0, [r7, #4]
 8005f80:	687b      	ldr	r3, [r7, #4]
 8005f82:	681b      	ldr	r3, [r3, #0]
 8005f84:	681b      	ldr	r3, [r3, #0]
 8005f86:	f8c7 30e4 	str.w	r3, [r7, #228]	; 0xe4
 8005f8a:	687b      	ldr	r3, [r7, #4]
 8005f8c:	681b      	ldr	r3, [r3, #0]
 8005f8e:	68db      	ldr	r3, [r3, #12]
 8005f90:	f8c7 30e0 	str.w	r3, [r7, #224]	; 0xe0
 8005f94:	687b      	ldr	r3, [r7, #4]
 8005f96:	681b      	ldr	r3, [r3, #0]
 8005f98:	695b      	ldr	r3, [r3, #20]
 8005f9a:	f8c7 30dc 	str.w	r3, [r7, #220]	; 0xdc
 8005f9e:	2300      	movs	r3, #0
 8005fa0:	f8c7 30d8 	str.w	r3, [r7, #216]	; 0xd8
 8005fa4:	2300      	movs	r3, #0
 8005fa6:	f8c7 30d4 	str.w	r3, [r7, #212]	; 0xd4
 8005faa:	f8d7 30e4 	ldr.w	r3, [r7, #228]	; 0xe4
 8005fae:	f003 030f 	and.w	r3, r3, #15
 8005fb2:	f8c7 30d8 	str.w	r3, [r7, #216]	; 0xd8
 8005fb6:	f8d7 30d8 	ldr.w	r3, [r7, #216]	; 0xd8
 8005fba:	2b00      	cmp	r3, #0
 8005fbc:	d10f      	bne.n	8005fde <HAL_UART_IRQHandler+0x66>
 8005fbe:	f8d7 30e4 	ldr.w	r3, [r7, #228]	; 0xe4
 8005fc2:	f003 0320 	and.w	r3, r3, #32
 8005fc6:	2b00      	cmp	r3, #0
 8005fc8:	d009      	beq.n	8005fde <HAL_UART_IRQHandler+0x66>
 8005fca:	f8d7 30e0 	ldr.w	r3, [r7, #224]	; 0xe0
 8005fce:	f003 0320 	and.w	r3, r3, #32
 8005fd2:	2b00      	cmp	r3, #0
 8005fd4:	d003      	beq.n	8005fde <HAL_UART_IRQHandler+0x66>
 8005fd6:	6878      	ldr	r0, [r7, #4]
 8005fd8:	f000 fc07 	bl	80067ea <UART_Receive_IT>
 8005fdc:	e256      	b.n	800648c <HAL_UART_IRQHandler+0x514>
 8005fde:	f8d7 30d8 	ldr.w	r3, [r7, #216]	; 0xd8
 8005fe2:	2b00      	cmp	r3, #0
 8005fe4:	f000 80de 	beq.w	80061a4 <HAL_UART_IRQHandler+0x22c>
 8005fe8:	f8d7 30dc 	ldr.w	r3, [r7, #220]	; 0xdc
 8005fec:	f003 0301 	and.w	r3, r3, #1
 8005ff0:	2b00      	cmp	r3, #0
 8005ff2:	d106      	bne.n	8006002 <HAL_UART_IRQHandler+0x8a>
 8005ff4:	f8d7 30e0 	ldr.w	r3, [r7, #224]	; 0xe0
 8005ff8:	f403 7390 	and.w	r3, r3, #288	; 0x120
 8005ffc:	2b00      	cmp	r3, #0
 8005ffe:	f000 80d1 	beq.w	80061a4 <HAL_UART_IRQHandler+0x22c>
 8006002:	f8d7 30e4 	ldr.w	r3, [r7, #228]	; 0xe4
 8006006:	f003 0301 	and.w	r3, r3, #1
 800600a:	2b00      	cmp	r3, #0
 800600c:	d00b      	beq.n	8006026 <HAL_UART_IRQHandler+0xae>
 800600e:	f8d7 30e0 	ldr.w	r3, [r7, #224]	; 0xe0
 8006012:	f403 7380 	and.w	r3, r3, #256	; 0x100
 8006016:	2b00      	cmp	r3, #0
 8006018:	d005      	beq.n	8006026 <HAL_UART_IRQHandler+0xae>
 800601a:	687b      	ldr	r3, [r7, #4]
 800601c:	6c1b      	ldr	r3, [r3, #64]	; 0x40
 800601e:	f043 0201 	orr.w	r2, r3, #1
 8006022:	687b      	ldr	r3, [r7, #4]
 8006024:	641a      	str	r2, [r3, #64]	; 0x40
 8006026:	f8d7 30e4 	ldr.w	r3, [r7, #228]	; 0xe4
 800602a:	f003 0304 	and.w	r3, r3, #4
 800602e:	2b00      	cmp	r3, #0
 8006030:	d00b      	beq.n	800604a <HAL_UART_IRQHandler+0xd2>
 8006032:	f8d7 30dc 	ldr.w	r3, [r7, #220]	; 0xdc
 8006036:	f003 0301 	and.w	r3, r3, #1
 800603a:	2b00      	cmp	r3, #0
 800603c:	d005      	beq.n	800604a <HAL_UART_IRQHandler+0xd2>
 800603e:	687b      	ldr	r3, [r7, #4]
 8006040:	6c1b      	ldr	r3, [r3, #64]	; 0x40
 8006042:	f043 0202 	orr.w	r2, r3, #2
 8006046:	687b      	ldr	r3, [r7, #4]
 8006048:	641a      	str	r2, [r3, #64]	; 0x40
 800604a:	f8d7 30e4 	ldr.w	r3, [r7, #228]	; 0xe4
 800604e:	f003 0302 	and.w	r3, r3, #2
 8006052:	2b00      	cmp	r3, #0
 8006054:	d00b      	beq.n	800606e <HAL_UART_IRQHandler+0xf6>
 8006056:	f8d7 30dc 	ldr.w	r3, [r7, #220]	; 0xdc
 800605a:	f003 0301 	and.w	r3, r3, #1
 800605e:	2b00      	cmp	r3, #0
 8006060:	d005      	beq.n	800606e <HAL_UART_IRQHandler+0xf6>
 8006062:	687b      	ldr	r3, [r7, #4]
 8006064:	6c1b      	ldr	r3, [r3, #64]	; 0x40
 8006066:	f043 0204 	orr.w	r2, r3, #4
 800606a:	687b      	ldr	r3, [r7, #4]
 800606c:	641a      	str	r2, [r3, #64]	; 0x40
 800606e:	f8d7 30e4 	ldr.w	r3, [r7, #228]	; 0xe4
 8006072:	f003 0308 	and.w	r3, r3, #8
 8006076:	2b00      	cmp	r3, #0
 8006078:	d011      	beq.n	800609e <HAL_UART_IRQHandler+0x126>
 800607a:	f8d7 30e0 	ldr.w	r3, [r7, #224]	; 0xe0
 800607e:	f003 0320 	and.w	r3, r3, #32
 8006082:	2b00      	cmp	r3, #0
 8006084:	d105      	bne.n	8006092 <HAL_UART_IRQHandler+0x11a>
 8006086:	f8d7 30dc 	ldr.w	r3, [r7, #220]	; 0xdc
 800608a:	f003 0301 	and.w	r3, r3, #1
 800608e:	2b00      	cmp	r3, #0
 8006090:	d005      	beq.n	800609e <HAL_UART_IRQHandler+0x126>
 8006092:	687b      	ldr	r3, [r7, #4]
 8006094:	6c1b      	ldr	r3, [r3, #64]	; 0x40
 8006096:	f043 0208 	orr.w	r2, r3, #8
 800609a:	687b      	ldr	r3, [r7, #4]
 800609c:	641a      	str	r2, [r3, #64]	; 0x40
 800609e:	687b      	ldr	r3, [r7, #4]
 80060a0:	6c1b      	ldr	r3, [r3, #64]	; 0x40
 80060a2:	2b00      	cmp	r3, #0
 80060a4:	f000 81ed 	beq.w	8006482 <HAL_UART_IRQHandler+0x50a>
 80060a8:	f8d7 30e4 	ldr.w	r3, [r7, #228]	; 0xe4
 80060ac:	f003 0320 	and.w	r3, r3, #32
 80060b0:	2b00      	cmp	r3, #0
 80060b2:	d008      	beq.n	80060c6 <HAL_UART_IRQHandler+0x14e>
 80060b4:	f8d7 30e0 	ldr.w	r3, [r7, #224]	; 0xe0
 80060b8:	f003 0320 	and.w	r3, r3, #32
 80060bc:	2b00      	cmp	r3, #0
 80060be:	d002      	beq.n	80060c6 <HAL_UART_IRQHandler+0x14e>
 80060c0:	6878      	ldr	r0, [r7, #4]
 80060c2:	f000 fb92 	bl	80067ea <UART_Receive_IT>
 80060c6:	687b      	ldr	r3, [r7, #4]
 80060c8:	681b      	ldr	r3, [r3, #0]
 80060ca:	695b      	ldr	r3, [r3, #20]
 80060cc:	f003 0340 	and.w	r3, r3, #64	; 0x40
 80060d0:	2b40      	cmp	r3, #64	; 0x40
 80060d2:	bf0c      	ite	eq
 80060d4:	2301      	moveq	r3, #1
 80060d6:	2300      	movne	r3, #0
 80060d8:	b2db      	uxtb	r3, r3
 80060da:	f8c7 30d4 	str.w	r3, [r7, #212]	; 0xd4
 80060de:	687b      	ldr	r3, [r7, #4]
 80060e0:	6c1b      	ldr	r3, [r3, #64]	; 0x40
 80060e2:	f003 0308 	and.w	r3, r3, #8
 80060e6:	2b00      	cmp	r3, #0
 80060e8:	d103      	bne.n	80060f2 <HAL_UART_IRQHandler+0x17a>
 80060ea:	f8d7 30d4 	ldr.w	r3, [r7, #212]	; 0xd4
 80060ee:	2b00      	cmp	r3, #0
 80060f0:	d04f      	beq.n	8006192 <HAL_UART_IRQHandler+0x21a>
 80060f2:	6878      	ldr	r0, [r7, #4]
 80060f4:	f000 fa9a 	bl	800662c <UART_EndRxTransfer>
 80060f8:	687b      	ldr	r3, [r7, #4]
 80060fa:	681b      	ldr	r3, [r3, #0]
 80060fc:	695b      	ldr	r3, [r3, #20]
 80060fe:	f003 0340 	and.w	r3, r3, #64	; 0x40
 8006102:	2b40      	cmp	r3, #64	; 0x40
 8006104:	d141      	bne.n	800618a <HAL_UART_IRQHandler+0x212>
 8006106:	687b      	ldr	r3, [r7, #4]
 8006108:	681b      	ldr	r3, [r3, #0]
 800610a:	3314      	adds	r3, #20
 800610c:	f8c7 309c 	str.w	r3, [r7, #156]	; 0x9c
 8006110:	f8d7 309c 	ldr.w	r3, [r7, #156]	; 0x9c
 8006114:	e853 3f00 	ldrex	r3, [r3]
 8006118:	f8c7 3098 	str.w	r3, [r7, #152]	; 0x98
 800611c:	f8d7 3098 	ldr.w	r3, [r7, #152]	; 0x98
 8006120:	f023 0340 	bic.w	r3, r3, #64	; 0x40
 8006124:	f8c7 30d0 	str.w	r3, [r7, #208]	; 0xd0
 8006128:	687b      	ldr	r3, [r7, #4]
 800612a:	681b      	ldr	r3, [r3, #0]
 800612c:	3314      	adds	r3, #20
 800612e:	f8d7 20d0 	ldr.w	r2, [r7, #208]	; 0xd0
 8006132:	f8c7 20a8 	str.w	r2, [r7, #168]	; 0xa8
 8006136:	f8c7 30a4 	str.w	r3, [r7, #164]	; 0xa4
 800613a:	f8d7 10a4 	ldr.w	r1, [r7, #164]	; 0xa4
 800613e:	f8d7 20a8 	ldr.w	r2, [r7, #168]	; 0xa8
 8006142:	e841 2300 	strex	r3, r2, [r1]
 8006146:	f8c7 30a0 	str.w	r3, [r7, #160]	; 0xa0
 800614a:	f8d7 30a0 	ldr.w	r3, [r7, #160]	; 0xa0
 800614e:	2b00      	cmp	r3, #0
 8006150:	d1d9      	bne.n	8006106 <HAL_UART_IRQHandler+0x18e>
 8006152:	687b      	ldr	r3, [r7, #4]
 8006154:	6b9b      	ldr	r3, [r3, #56]	; 0x38
 8006156:	2b00      	cmp	r3, #0
 8006158:	d013      	beq.n	8006182 <HAL_UART_IRQHandler+0x20a>
 800615a:	687b      	ldr	r3, [r7, #4]
 800615c:	6b9b      	ldr	r3, [r3, #56]	; 0x38
 800615e:	4a7d      	ldr	r2, [pc, #500]	; (8006354 <HAL_UART_IRQHandler+0x3dc>)
 8006160:	651a      	str	r2, [r3, #80]	; 0x50
 8006162:	687b      	ldr	r3, [r7, #4]
 8006164:	6b9b      	ldr	r3, [r3, #56]	; 0x38
 8006166:	4618      	mov	r0, r3
 8006168:	f7fd f918 	bl	800339c <HAL_DMA_Abort_IT>
 800616c:	4603      	mov	r3, r0
 800616e:	2b00      	cmp	r3, #0
 8006170:	d016      	beq.n	80061a0 <HAL_UART_IRQHandler+0x228>
 8006172:	687b      	ldr	r3, [r7, #4]
 8006174:	6b9b      	ldr	r3, [r3, #56]	; 0x38
 8006176:	6d1b      	ldr	r3, [r3, #80]	; 0x50
 8006178:	687a      	ldr	r2, [r7, #4]
 800617a:	6b92      	ldr	r2, [r2, #56]	; 0x38
 800617c:	4610      	mov	r0, r2
 800617e:	4798      	blx	r3
 8006180:	e00e      	b.n	80061a0 <HAL_UART_IRQHandler+0x228>
 8006182:	6878      	ldr	r0, [r7, #4]
 8006184:	f000 f990 	bl	80064a8 <HAL_UART_ErrorCallback>
 8006188:	e00a      	b.n	80061a0 <HAL_UART_IRQHandler+0x228>
 800618a:	6878      	ldr	r0, [r7, #4]
 800618c:	f000 f98c 	bl	80064a8 <HAL_UART_ErrorCallback>
 8006190:	e006      	b.n	80061a0 <HAL_UART_IRQHandler+0x228>
 8006192:	6878      	ldr	r0, [r7, #4]
 8006194:	f000 f988 	bl	80064a8 <HAL_UART_ErrorCallback>
 8006198:	687b      	ldr	r3, [r7, #4]
 800619a:	2200      	movs	r2, #0
 800619c:	641a      	str	r2, [r3, #64]	; 0x40
 800619e:	e170      	b.n	8006482 <HAL_UART_IRQHandler+0x50a>
 80061a0:	bf00      	nop
 80061a2:	e16e      	b.n	8006482 <HAL_UART_IRQHandler+0x50a>
 80061a4:	687b      	ldr	r3, [r7, #4]
 80061a6:	6b1b      	ldr	r3, [r3, #48]	; 0x30
 80061a8:	2b01      	cmp	r3, #1
 80061aa:	f040 814a 	bne.w	8006442 <HAL_UART_IRQHandler+0x4ca>
 80061ae:	f8d7 30e4 	ldr.w	r3, [r7, #228]	; 0xe4
 80061b2:	f003 0310 	and.w	r3, r3, #16
 80061b6:	2b00      	cmp	r3, #0
 80061b8:	f000 8143 	beq.w	8006442 <HAL_UART_IRQHandler+0x4ca>
 80061bc:	f8d7 30e0 	ldr.w	r3, [r7, #224]	; 0xe0
 80061c0:	f003 0310 	and.w	r3, r3, #16
 80061c4:	2b00      	cmp	r3, #0
 80061c6:	f000 813c 	beq.w	8006442 <HAL_UART_IRQHandler+0x4ca>
 80061ca:	2300      	movs	r3, #0
 80061cc:	60bb      	str	r3, [r7, #8]
 80061ce:	687b      	ldr	r3, [r7, #4]
 80061d0:	681b      	ldr	r3, [r3, #0]
 80061d2:	681b      	ldr	r3, [r3, #0]
 80061d4:	60bb      	str	r3, [r7, #8]
 80061d6:	687b      	ldr	r3, [r7, #4]
 80061d8:	681b      	ldr	r3, [r3, #0]
 80061da:	685b      	ldr	r3, [r3, #4]
 80061dc:	60bb      	str	r3, [r7, #8]
 80061de:	68bb      	ldr	r3, [r7, #8]
 80061e0:	687b      	ldr	r3, [r7, #4]
 80061e2:	681b      	ldr	r3, [r3, #0]
 80061e4:	695b      	ldr	r3, [r3, #20]
 80061e6:	f003 0340 	and.w	r3, r3, #64	; 0x40
 80061ea:	2b40      	cmp	r3, #64	; 0x40
 80061ec:	f040 80b4 	bne.w	8006358 <HAL_UART_IRQHandler+0x3e0>
 80061f0:	687b      	ldr	r3, [r7, #4]
 80061f2:	6b9b      	ldr	r3, [r3, #56]	; 0x38
 80061f4:	681b      	ldr	r3, [r3, #0]
 80061f6:	685b      	ldr	r3, [r3, #4]
 80061f8:	f8a7 30be 	strh.w	r3, [r7, #190]	; 0xbe
 80061fc:	f8b7 30be 	ldrh.w	r3, [r7, #190]	; 0xbe
 8006200:	2b00      	cmp	r3, #0
 8006202:	f000 8140 	beq.w	8006486 <HAL_UART_IRQHandler+0x50e>
 8006206:	687b      	ldr	r3, [r7, #4]
 8006208:	8d9b      	ldrh	r3, [r3, #44]	; 0x2c
 800620a:	f8b7 20be 	ldrh.w	r2, [r7, #190]	; 0xbe
 800620e:	429a      	cmp	r2, r3
 8006210:	f080 8139 	bcs.w	8006486 <HAL_UART_IRQHandler+0x50e>
 8006214:	687b      	ldr	r3, [r7, #4]
 8006216:	f8b7 20be 	ldrh.w	r2, [r7, #190]	; 0xbe
 800621a:	85da      	strh	r2, [r3, #46]	; 0x2e
 800621c:	687b      	ldr	r3, [r7, #4]
 800621e:	6b9b      	ldr	r3, [r3, #56]	; 0x38
 8006220:	69db      	ldr	r3, [r3, #28]
 8006222:	f5b3 7f80 	cmp.w	r3, #256	; 0x100
 8006226:	f000 8088 	beq.w	800633a <HAL_UART_IRQHandler+0x3c2>
 800622a:	687b      	ldr	r3, [r7, #4]
 800622c:	681b      	ldr	r3, [r3, #0]
 800622e:	330c      	adds	r3, #12
 8006230:	f8c7 3088 	str.w	r3, [r7, #136]	; 0x88
 8006234:	f8d7 3088 	ldr.w	r3, [r7, #136]	; 0x88
 8006238:	e853 3f00 	ldrex	r3, [r3]
 800623c:	f8c7 3084 	str.w	r3, [r7, #132]	; 0x84
 8006240:	f8d7 3084 	ldr.w	r3, [r7, #132]	; 0x84
 8006244:	f423 7380 	bic.w	r3, r3, #256	; 0x100
 8006248:	f8c7 30b8 	str.w	r3, [r7, #184]	; 0xb8
 800624c:	687b      	ldr	r3, [r7, #4]
 800624e:	681b      	ldr	r3, [r3, #0]
 8006250:	330c      	adds	r3, #12
 8006252:	f8d7 20b8 	ldr.w	r2, [r7, #184]	; 0xb8
 8006256:	f8c7 2094 	str.w	r2, [r7, #148]	; 0x94
 800625a:	f8c7 3090 	str.w	r3, [r7, #144]	; 0x90
 800625e:	f8d7 1090 	ldr.w	r1, [r7, #144]	; 0x90
 8006262:	f8d7 2094 	ldr.w	r2, [r7, #148]	; 0x94
 8006266:	e841 2300 	strex	r3, r2, [r1]
 800626a:	f8c7 308c 	str.w	r3, [r7, #140]	; 0x8c
 800626e:	f8d7 308c 	ldr.w	r3, [r7, #140]	; 0x8c
 8006272:	2b00      	cmp	r3, #0
 8006274:	d1d9      	bne.n	800622a <HAL_UART_IRQHandler+0x2b2>
 8006276:	687b      	ldr	r3, [r7, #4]
 8006278:	681b      	ldr	r3, [r3, #0]
 800627a:	3314      	adds	r3, #20
 800627c:	677b      	str	r3, [r7, #116]	; 0x74
 800627e:	6f7b      	ldr	r3, [r7, #116]	; 0x74
 8006280:	e853 3f00 	ldrex	r3, [r3]
 8006284:	673b      	str	r3, [r7, #112]	; 0x70
 8006286:	6f3b      	ldr	r3, [r7, #112]	; 0x70
 8006288:	f023 0301 	bic.w	r3, r3, #1
 800628c:	f8c7 30b4 	str.w	r3, [r7, #180]	; 0xb4
 8006290:	687b      	ldr	r3, [r7, #4]
 8006292:	681b      	ldr	r3, [r3, #0]
 8006294:	3314      	adds	r3, #20
 8006296:	f8d7 20b4 	ldr.w	r2, [r7, #180]	; 0xb4
 800629a:	f8c7 2080 	str.w	r2, [r7, #128]	; 0x80
 800629e:	67fb      	str	r3, [r7, #124]	; 0x7c
 80062a0:	6ff9      	ldr	r1, [r7, #124]	; 0x7c
 80062a2:	f8d7 2080 	ldr.w	r2, [r7, #128]	; 0x80
 80062a6:	e841 2300 	strex	r3, r2, [r1]
 80062aa:	67bb      	str	r3, [r7, #120]	; 0x78
 80062ac:	6fbb      	ldr	r3, [r7, #120]	; 0x78
 80062ae:	2b00      	cmp	r3, #0
 80062b0:	d1e1      	bne.n	8006276 <HAL_UART_IRQHandler+0x2fe>
 80062b2:	687b      	ldr	r3, [r7, #4]
 80062b4:	681b      	ldr	r3, [r3, #0]
 80062b6:	3314      	adds	r3, #20
 80062b8:	663b      	str	r3, [r7, #96]	; 0x60
 80062ba:	6e3b      	ldr	r3, [r7, #96]	; 0x60
 80062bc:	e853 3f00 	ldrex	r3, [r3]
 80062c0:	65fb      	str	r3, [r7, #92]	; 0x5c
 80062c2:	6dfb      	ldr	r3, [r7, #92]	; 0x5c
 80062c4:	f023 0340 	bic.w	r3, r3, #64	; 0x40
 80062c8:	f8c7 30b0 	str.w	r3, [r7, #176]	; 0xb0
 80062cc:	687b      	ldr	r3, [r7, #4]
 80062ce:	681b      	ldr	r3, [r3, #0]
 80062d0:	3314      	adds	r3, #20
 80062d2:	f8d7 20b0 	ldr.w	r2, [r7, #176]	; 0xb0
 80062d6:	66fa      	str	r2, [r7, #108]	; 0x6c
 80062d8:	66bb      	str	r3, [r7, #104]	; 0x68
 80062da:	6eb9      	ldr	r1, [r7, #104]	; 0x68
 80062dc:	6efa      	ldr	r2, [r7, #108]	; 0x6c
 80062de:	e841 2300 	strex	r3, r2, [r1]
 80062e2:	667b      	str	r3, [r7, #100]	; 0x64
 80062e4:	6e7b      	ldr	r3, [r7, #100]	; 0x64
 80062e6:	2b00      	cmp	r3, #0
 80062e8:	d1e3      	bne.n	80062b2 <HAL_UART_IRQHandler+0x33a>
 80062ea:	687b      	ldr	r3, [r7, #4]
 80062ec:	2220      	movs	r2, #32
 80062ee:	f883 203e 	strb.w	r2, [r3, #62]	; 0x3e
 80062f2:	687b      	ldr	r3, [r7, #4]
 80062f4:	2200      	movs	r2, #0
 80062f6:	631a      	str	r2, [r3, #48]	; 0x30
 80062f8:	687b      	ldr	r3, [r7, #4]
 80062fa:	681b      	ldr	r3, [r3, #0]
 80062fc:	330c      	adds	r3, #12
 80062fe:	64fb      	str	r3, [r7, #76]	; 0x4c
 8006300:	6cfb      	ldr	r3, [r7, #76]	; 0x4c
 8006302:	e853 3f00 	ldrex	r3, [r3]
 8006306:	64bb      	str	r3, [r7, #72]	; 0x48
 8006308:	6cbb      	ldr	r3, [r7, #72]	; 0x48
 800630a:	f023 0310 	bic.w	r3, r3, #16
 800630e:	f8c7 30ac 	str.w	r3, [r7, #172]	; 0xac
 8006312:	687b      	ldr	r3, [r7, #4]
 8006314:	681b      	ldr	r3, [r3, #0]
 8006316:	330c      	adds	r3, #12
 8006318:	f8d7 20ac 	ldr.w	r2, [r7, #172]	; 0xac
 800631c:	65ba      	str	r2, [r7, #88]	; 0x58
 800631e:	657b      	str	r3, [r7, #84]	; 0x54
 8006320:	6d79      	ldr	r1, [r7, #84]	; 0x54
 8006322:	6dba      	ldr	r2, [r7, #88]	; 0x58
 8006324:	e841 2300 	strex	r3, r2, [r1]
 8006328:	653b      	str	r3, [r7, #80]	; 0x50
 800632a:	6d3b      	ldr	r3, [r7, #80]	; 0x50
 800632c:	2b00      	cmp	r3, #0
 800632e:	d1e3      	bne.n	80062f8 <HAL_UART_IRQHandler+0x380>
 8006330:	687b      	ldr	r3, [r7, #4]
 8006332:	6b9b      	ldr	r3, [r3, #56]	; 0x38
 8006334:	4618      	mov	r0, r3
 8006336:	f7fc ffc1 	bl	80032bc <HAL_DMA_Abort>
 800633a:	687b      	ldr	r3, [r7, #4]
 800633c:	8d9a      	ldrh	r2, [r3, #44]	; 0x2c
 800633e:	687b      	ldr	r3, [r7, #4]
 8006340:	8ddb      	ldrh	r3, [r3, #46]	; 0x2e
 8006342:	b29b      	uxth	r3, r3
 8006344:	1ad3      	subs	r3, r2, r3
 8006346:	b29b      	uxth	r3, r3
 8006348:	4619      	mov	r1, r3
 800634a:	6878      	ldr	r0, [r7, #4]
 800634c:	f000 f8b6 	bl	80064bc <HAL_UARTEx_RxEventCallback>
 8006350:	e099      	b.n	8006486 <HAL_UART_IRQHandler+0x50e>
 8006352:	bf00      	nop
 8006354:	080066f3 	.word	0x080066f3
 8006358:	687b      	ldr	r3, [r7, #4]
 800635a:	8d9a      	ldrh	r2, [r3, #44]	; 0x2c
 800635c:	687b      	ldr	r3, [r7, #4]
 800635e:	8ddb      	ldrh	r3, [r3, #46]	; 0x2e
 8006360:	b29b      	uxth	r3, r3
 8006362:	1ad3      	subs	r3, r2, r3
 8006364:	f8a7 30ce 	strh.w	r3, [r7, #206]	; 0xce
 8006368:	687b      	ldr	r3, [r7, #4]
 800636a:	8ddb      	ldrh	r3, [r3, #46]	; 0x2e
 800636c:	b29b      	uxth	r3, r3
 800636e:	2b00      	cmp	r3, #0
 8006370:	f000 808b 	beq.w	800648a <HAL_UART_IRQHandler+0x512>
 8006374:	f8b7 30ce 	ldrh.w	r3, [r7, #206]	; 0xce
 8006378:	2b00      	cmp	r3, #0
 800637a:	f000 8086 	beq.w	800648a <HAL_UART_IRQHandler+0x512>
 800637e:	687b      	ldr	r3, [r7, #4]
 8006380:	681b      	ldr	r3, [r3, #0]
 8006382:	330c      	adds	r3, #12
 8006384:	63bb      	str	r3, [r7, #56]	; 0x38
 8006386:	6bbb      	ldr	r3, [r7, #56]	; 0x38
 8006388:	e853 3f00 	ldrex	r3, [r3]
 800638c:	637b      	str	r3, [r7, #52]	; 0x34
 800638e:	6b7b      	ldr	r3, [r7, #52]	; 0x34
 8006390:	f423 7390 	bic.w	r3, r3, #288	; 0x120
 8006394:	f8c7 30c8 	str.w	r3, [r7, #200]	; 0xc8
 8006398:	687b      	ldr	r3, [r7, #4]
 800639a:	681b      	ldr	r3, [r3, #0]
 800639c:	330c      	adds	r3, #12
 800639e:	f8d7 20c8 	ldr.w	r2, [r7, #200]	; 0xc8
 80063a2:	647a      	str	r2, [r7, #68]	; 0x44
 80063a4:	643b      	str	r3, [r7, #64]	; 0x40
 80063a6:	6c39      	ldr	r1, [r7, #64]	; 0x40
 80063a8:	6c7a      	ldr	r2, [r7, #68]	; 0x44
 80063aa:	e841 2300 	strex	r3, r2, [r1]
 80063ae:	63fb      	str	r3, [r7, #60]	; 0x3c
 80063b0:	6bfb      	ldr	r3, [r7, #60]	; 0x3c
 80063b2:	2b00      	cmp	r3, #0
 80063b4:	d1e3      	bne.n	800637e <HAL_UART_IRQHandler+0x406>
 80063b6:	687b      	ldr	r3, [r7, #4]
 80063b8:	681b      	ldr	r3, [r3, #0]
 80063ba:	3314      	adds	r3, #20
 80063bc:	627b      	str	r3, [r7, #36]	; 0x24
 80063be:	6a7b      	ldr	r3, [r7, #36]	; 0x24
 80063c0:	e853 3f00 	ldrex	r3, [r3]
 80063c4:	623b      	str	r3, [r7, #32]
 80063c6:	6a3b      	ldr	r3, [r7, #32]
 80063c8:	f023 0301 	bic.w	r3, r3, #1
 80063cc:	f8c7 30c4 	str.w	r3, [r7, #196]	; 0xc4
 80063d0:	687b      	ldr	r3, [r7, #4]
 80063d2:	681b      	ldr	r3, [r3, #0]
 80063d4:	3314      	adds	r3, #20
 80063d6:	f8d7 20c4 	ldr.w	r2, [r7, #196]	; 0xc4
 80063da:	633a      	str	r2, [r7, #48]	; 0x30
 80063dc:	62fb      	str	r3, [r7, #44]	; 0x2c
 80063de:	6af9      	ldr	r1, [r7, #44]	; 0x2c
 80063e0:	6b3a      	ldr	r2, [r7, #48]	; 0x30
 80063e2:	e841 2300 	strex	r3, r2, [r1]
 80063e6:	62bb      	str	r3, [r7, #40]	; 0x28
 80063e8:	6abb      	ldr	r3, [r7, #40]	; 0x28
 80063ea:	2b00      	cmp	r3, #0
 80063ec:	d1e3      	bne.n	80063b6 <HAL_UART_IRQHandler+0x43e>
 80063ee:	687b      	ldr	r3, [r7, #4]
 80063f0:	2220      	movs	r2, #32
 80063f2:	f883 203e 	strb.w	r2, [r3, #62]	; 0x3e
 80063f6:	687b      	ldr	r3, [r7, #4]
 80063f8:	2200      	movs	r2, #0
 80063fa:	631a      	str	r2, [r3, #48]	; 0x30
 80063fc:	687b      	ldr	r3, [r7, #4]
 80063fe:	681b      	ldr	r3, [r3, #0]
 8006400:	330c      	adds	r3, #12
 8006402:	613b      	str	r3, [r7, #16]
 8006404:	693b      	ldr	r3, [r7, #16]
 8006406:	e853 3f00 	ldrex	r3, [r3]
 800640a:	60fb      	str	r3, [r7, #12]
 800640c:	68fb      	ldr	r3, [r7, #12]
 800640e:	f023 0310 	bic.w	r3, r3, #16
 8006412:	f8c7 30c0 	str.w	r3, [r7, #192]	; 0xc0
 8006416:	687b      	ldr	r3, [r7, #4]
 8006418:	681b      	ldr	r3, [r3, #0]
 800641a:	330c      	adds	r3, #12
 800641c:	f8d7 20c0 	ldr.w	r2, [r7, #192]	; 0xc0
 8006420:	61fa      	str	r2, [r7, #28]
 8006422:	61bb      	str	r3, [r7, #24]
 8006424:	69b9      	ldr	r1, [r7, #24]
 8006426:	69fa      	ldr	r2, [r7, #28]
 8006428:	e841 2300 	strex	r3, r2, [r1]
 800642c:	617b      	str	r3, [r7, #20]
 800642e:	697b      	ldr	r3, [r7, #20]
 8006430:	2b00      	cmp	r3, #0
 8006432:	d1e3      	bne.n	80063fc <HAL_UART_IRQHandler+0x484>
 8006434:	f8b7 30ce 	ldrh.w	r3, [r7, #206]	; 0xce
 8006438:	4619      	mov	r1, r3
 800643a:	6878      	ldr	r0, [r7, #4]
 800643c:	f000 f83e 	bl	80064bc <HAL_UARTEx_RxEventCallback>
 8006440:	e023      	b.n	800648a <HAL_UART_IRQHandler+0x512>
 8006442:	f8d7 30e4 	ldr.w	r3, [r7, #228]	; 0xe4
 8006446:	f003 0380 	and.w	r3, r3, #128	; 0x80
 800644a:	2b00      	cmp	r3, #0
 800644c:	d009      	beq.n	8006462 <HAL_UART_IRQHandler+0x4ea>
 800644e:	f8d7 30e0 	ldr.w	r3, [r7, #224]	; 0xe0
 8006452:	f003 0380 	and.w	r3, r3, #128	; 0x80
 8006456:	2b00      	cmp	r3, #0
 8006458:	d003      	beq.n	8006462 <HAL_UART_IRQHandler+0x4ea>
 800645a:	6878      	ldr	r0, [r7, #4]
 800645c:	f000 f95d 	bl	800671a <UART_Transmit_IT>
 8006460:	e014      	b.n	800648c <HAL_UART_IRQHandler+0x514>
 8006462:	f8d7 30e4 	ldr.w	r3, [r7, #228]	; 0xe4
 8006466:	f003 0340 	and.w	r3, r3, #64	; 0x40
 800646a:	2b00      	cmp	r3, #0
 800646c:	d00e      	beq.n	800648c <HAL_UART_IRQHandler+0x514>
 800646e:	f8d7 30e0 	ldr.w	r3, [r7, #224]	; 0xe0
 8006472:	f003 0340 	and.w	r3, r3, #64	; 0x40
 8006476:	2b00      	cmp	r3, #0
 8006478:	d008      	beq.n	800648c <HAL_UART_IRQHandler+0x514>
 800647a:	6878      	ldr	r0, [r7, #4]
 800647c:	f000 f99d 	bl	80067ba <UART_EndTransmit_IT>
 8006480:	e004      	b.n	800648c <HAL_UART_IRQHandler+0x514>
 8006482:	bf00      	nop
 8006484:	e002      	b.n	800648c <HAL_UART_IRQHandler+0x514>
 8006486:	bf00      	nop
 8006488:	e000      	b.n	800648c <HAL_UART_IRQHandler+0x514>
 800648a:	bf00      	nop
 800648c:	37e8      	adds	r7, #232	; 0xe8
 800648e:	46bd      	mov	sp, r7
 8006490:	bd80      	pop	{r7, pc}
 8006492:	bf00      	nop

08006494 <HAL_UART_TxCpltCallback>:
 8006494:	b480      	push	{r7}
 8006496:	b083      	sub	sp, #12
 8006498:	af00      	add	r7, sp, #0
 800649a:	6078      	str	r0, [r7, #4]
 800649c:	bf00      	nop
 800649e:	370c      	adds	r7, #12
 80064a0:	46bd      	mov	sp, r7
 80064a2:	f85d 7b04 	ldr.w	r7, [sp], #4
 80064a6:	4770      	bx	lr

080064a8 <HAL_UART_ErrorCallback>:
 80064a8:	b480      	push	{r7}
 80064aa:	b083      	sub	sp, #12
 80064ac:	af00      	add	r7, sp, #0
 80064ae:	6078      	str	r0, [r7, #4]
 80064b0:	bf00      	nop
 80064b2:	370c      	adds	r7, #12
 80064b4:	46bd      	mov	sp, r7
 80064b6:	f85d 7b04 	ldr.w	r7, [sp], #4
 80064ba:	4770      	bx	lr

080064bc <HAL_UARTEx_RxEventCallback>:
 80064bc:	b480      	push	{r7}
 80064be:	b083      	sub	sp, #12
 80064c0:	af00      	add	r7, sp, #0
 80064c2:	6078      	str	r0, [r7, #4]
 80064c4:	460b      	mov	r3, r1
 80064c6:	807b      	strh	r3, [r7, #2]
 80064c8:	bf00      	nop
 80064ca:	370c      	adds	r7, #12
 80064cc:	46bd      	mov	sp, r7
 80064ce:	f85d 7b04 	ldr.w	r7, [sp], #4
 80064d2:	4770      	bx	lr

080064d4 <UART_WaitOnFlagUntilTimeout>:
 80064d4:	b580      	push	{r7, lr}
 80064d6:	b090      	sub	sp, #64	; 0x40
 80064d8:	af00      	add	r7, sp, #0
 80064da:	60f8      	str	r0, [r7, #12]
 80064dc:	60b9      	str	r1, [r7, #8]
 80064de:	603b      	str	r3, [r7, #0]
 80064e0:	4613      	mov	r3, r2
 80064e2:	71fb      	strb	r3, [r7, #7]
 80064e4:	e050      	b.n	8006588 <UART_WaitOnFlagUntilTimeout+0xb4>
 80064e6:	6cbb      	ldr	r3, [r7, #72]	; 0x48
 80064e8:	f1b3 3fff 	cmp.w	r3, #4294967295
 80064ec:	d04c      	beq.n	8006588 <UART_WaitOnFlagUntilTimeout+0xb4>
 80064ee:	6cbb      	ldr	r3, [r7, #72]	; 0x48
 80064f0:	2b00      	cmp	r3, #0
 80064f2:	d007      	beq.n	8006504 <UART_WaitOnFlagUntilTimeout+0x30>
 80064f4:	f7fc f888 	bl	8002608 <HAL_GetTick>
 80064f8:	4602      	mov	r2, r0
 80064fa:	683b      	ldr	r3, [r7, #0]
 80064fc:	1ad3      	subs	r3, r2, r3
 80064fe:	6cba      	ldr	r2, [r7, #72]	; 0x48
 8006500:	429a      	cmp	r2, r3
 8006502:	d241      	bcs.n	8006588 <UART_WaitOnFlagUntilTimeout+0xb4>
 8006504:	68fb      	ldr	r3, [r7, #12]
 8006506:	681b      	ldr	r3, [r3, #0]
 8006508:	330c      	adds	r3, #12
 800650a:	62bb      	str	r3, [r7, #40]	; 0x28
 800650c:	6abb      	ldr	r3, [r7, #40]	; 0x28
 800650e:	e853 3f00 	ldrex	r3, [r3]
 8006512:	627b      	str	r3, [r7, #36]	; 0x24
 8006514:	6a7b      	ldr	r3, [r7, #36]	; 0x24
 8006516:	f423 73d0 	bic.w	r3, r3, #416	; 0x1a0
 800651a:	63fb      	str	r3, [r7, #60]	; 0x3c
 800651c:	68fb      	ldr	r3, [r7, #12]
 800651e:	681b      	ldr	r3, [r3, #0]
 8006520:	330c      	adds	r3, #12
 8006522:	6bfa      	ldr	r2, [r7, #60]	; 0x3c
 8006524:	637a      	str	r2, [r7, #52]	; 0x34
 8006526:	633b      	str	r3, [r7, #48]	; 0x30
 8006528:	6b39      	ldr	r1, [r7, #48]	; 0x30
 800652a:	6b7a      	ldr	r2, [r7, #52]	; 0x34
 800652c:	e841 2300 	strex	r3, r2, [r1]
 8006530:	62fb      	str	r3, [r7, #44]	; 0x2c
 8006532:	6afb      	ldr	r3, [r7, #44]	; 0x2c
 8006534:	2b00      	cmp	r3, #0
 8006536:	d1e5      	bne.n	8006504 <UART_WaitOnFlagUntilTimeout+0x30>
 8006538:	68fb      	ldr	r3, [r7, #12]
 800653a:	681b      	ldr	r3, [r3, #0]
 800653c:	3314      	adds	r3, #20
 800653e:	617b      	str	r3, [r7, #20]
 8006540:	697b      	ldr	r3, [r7, #20]
 8006542:	e853 3f00 	ldrex	r3, [r3]
 8006546:	613b      	str	r3, [r7, #16]
 8006548:	693b      	ldr	r3, [r7, #16]
 800654a:	f023 0301 	bic.w	r3, r3, #1
 800654e:	63bb      	str	r3, [r7, #56]	; 0x38
 8006550:	68fb      	ldr	r3, [r7, #12]
 8006552:	681b      	ldr	r3, [r3, #0]
 8006554:	3314      	adds	r3, #20
 8006556:	6bba      	ldr	r2, [r7, #56]	; 0x38
 8006558:	623a      	str	r2, [r7, #32]
 800655a:	61fb      	str	r3, [r7, #28]
 800655c:	69f9      	ldr	r1, [r7, #28]
 800655e:	6a3a      	ldr	r2, [r7, #32]
 8006560:	e841 2300 	strex	r3, r2, [r1]
 8006564:	61bb      	str	r3, [r7, #24]
 8006566:	69bb      	ldr	r3, [r7, #24]
 8006568:	2b00      	cmp	r3, #0
 800656a:	d1e5      	bne.n	8006538 <UART_WaitOnFlagUntilTimeout+0x64>
 800656c:	68fb      	ldr	r3, [r7, #12]
 800656e:	2220      	movs	r2, #32
 8006570:	f883 203d 	strb.w	r2, [r3, #61]	; 0x3d
 8006574:	68fb      	ldr	r3, [r7, #12]
 8006576:	2220      	movs	r2, #32
 8006578:	f883 203e 	strb.w	r2, [r3, #62]	; 0x3e
 800657c:	68fb      	ldr	r3, [r7, #12]
 800657e:	2200      	movs	r2, #0
 8006580:	f883 203c 	strb.w	r2, [r3, #60]	; 0x3c
 8006584:	2303      	movs	r3, #3
 8006586:	e00f      	b.n	80065a8 <UART_WaitOnFlagUntilTimeout+0xd4>
 8006588:	68fb      	ldr	r3, [r7, #12]
 800658a:	681b      	ldr	r3, [r3, #0]
 800658c:	681a      	ldr	r2, [r3, #0]
 800658e:	68bb      	ldr	r3, [r7, #8]
 8006590:	4013      	ands	r3, r2
 8006592:	68ba      	ldr	r2, [r7, #8]
 8006594:	429a      	cmp	r2, r3
 8006596:	bf0c      	ite	eq
 8006598:	2301      	moveq	r3, #1
 800659a:	2300      	movne	r3, #0
 800659c:	b2db      	uxtb	r3, r3
 800659e:	461a      	mov	r2, r3
 80065a0:	79fb      	ldrb	r3, [r7, #7]
 80065a2:	429a      	cmp	r2, r3
 80065a4:	d09f      	beq.n	80064e6 <UART_WaitOnFlagUntilTimeout+0x12>
 80065a6:	2300      	movs	r3, #0
 80065a8:	4618      	mov	r0, r3
 80065aa:	3740      	adds	r7, #64	; 0x40
 80065ac:	46bd      	mov	sp, r7
 80065ae:	bd80      	pop	{r7, pc}

080065b0 <UART_Start_Receive_IT>:
 80065b0:	b480      	push	{r7}
 80065b2:	b085      	sub	sp, #20
 80065b4:	af00      	add	r7, sp, #0
 80065b6:	60f8      	str	r0, [r7, #12]
 80065b8:	60b9      	str	r1, [r7, #8]
 80065ba:	4613      	mov	r3, r2
 80065bc:	80fb      	strh	r3, [r7, #6]
 80065be:	68fb      	ldr	r3, [r7, #12]
 80065c0:	68ba      	ldr	r2, [r7, #8]
 80065c2:	629a      	str	r2, [r3, #40]	; 0x28
 80065c4:	68fb      	ldr	r3, [r7, #12]
 80065c6:	88fa      	ldrh	r2, [r7, #6]
 80065c8:	859a      	strh	r2, [r3, #44]	; 0x2c
 80065ca:	68fb      	ldr	r3, [r7, #12]
 80065cc:	88fa      	ldrh	r2, [r7, #6]
 80065ce:	85da      	strh	r2, [r3, #46]	; 0x2e
 80065d0:	68fb      	ldr	r3, [r7, #12]
 80065d2:	2200      	movs	r2, #0
 80065d4:	641a      	str	r2, [r3, #64]	; 0x40
 80065d6:	68fb      	ldr	r3, [r7, #12]
 80065d8:	2222      	movs	r2, #34	; 0x22
 80065da:	f883 203e 	strb.w	r2, [r3, #62]	; 0x3e
 80065de:	68fb      	ldr	r3, [r7, #12]
 80065e0:	2200      	movs	r2, #0
 80065e2:	f883 203c 	strb.w	r2, [r3, #60]	; 0x3c
 80065e6:	68fb      	ldr	r3, [r7, #12]
 80065e8:	691b      	ldr	r3, [r3, #16]
 80065ea:	2b00      	cmp	r3, #0
 80065ec:	d007      	beq.n	80065fe <UART_Start_Receive_IT+0x4e>
 80065ee:	68fb      	ldr	r3, [r7, #12]
 80065f0:	681b      	ldr	r3, [r3, #0]
 80065f2:	68da      	ldr	r2, [r3, #12]
 80065f4:	68fb      	ldr	r3, [r7, #12]
 80065f6:	681b      	ldr	r3, [r3, #0]
 80065f8:	f442 7280 	orr.w	r2, r2, #256	; 0x100
 80065fc:	60da      	str	r2, [r3, #12]
 80065fe:	68fb      	ldr	r3, [r7, #12]
 8006600:	681b      	ldr	r3, [r3, #0]
 8006602:	695a      	ldr	r2, [r3, #20]
 8006604:	68fb      	ldr	r3, [r7, #12]
 8006606:	681b      	ldr	r3, [r3, #0]
 8006608:	f042 0201 	orr.w	r2, r2, #1
 800660c:	615a      	str	r2, [r3, #20]
 800660e:	68fb      	ldr	r3, [r7, #12]
 8006610:	681b      	ldr	r3, [r3, #0]
 8006612:	68da      	ldr	r2, [r3, #12]
 8006614:	68fb      	ldr	r3, [r7, #12]
 8006616:	681b      	ldr	r3, [r3, #0]
 8006618:	f042 0220 	orr.w	r2, r2, #32
 800661c:	60da      	str	r2, [r3, #12]
 800661e:	2300      	movs	r3, #0
 8006620:	4618      	mov	r0, r3
 8006622:	3714      	adds	r7, #20
 8006624:	46bd      	mov	sp, r7
 8006626:	f85d 7b04 	ldr.w	r7, [sp], #4
 800662a:	4770      	bx	lr

0800662c <UART_EndRxTransfer>:
 800662c:	b480      	push	{r7}
 800662e:	b095      	sub	sp, #84	; 0x54
 8006630:	af00      	add	r7, sp, #0
 8006632:	6078      	str	r0, [r7, #4]
 8006634:	687b      	ldr	r3, [r7, #4]
 8006636:	681b      	ldr	r3, [r3, #0]
 8006638:	330c      	adds	r3, #12
 800663a:	637b      	str	r3, [r7, #52]	; 0x34
 800663c:	6b7b      	ldr	r3, [r7, #52]	; 0x34
 800663e:	e853 3f00 	ldrex	r3, [r3]
 8006642:	633b      	str	r3, [r7, #48]	; 0x30
 8006644:	6b3b      	ldr	r3, [r7, #48]	; 0x30
 8006646:	f423 7390 	bic.w	r3, r3, #288	; 0x120
 800664a:	64fb      	str	r3, [r7, #76]	; 0x4c
 800664c:	687b      	ldr	r3, [r7, #4]
 800664e:	681b      	ldr	r3, [r3, #0]
 8006650:	330c      	adds	r3, #12
 8006652:	6cfa      	ldr	r2, [r7, #76]	; 0x4c
 8006654:	643a      	str	r2, [r7, #64]	; 0x40
 8006656:	63fb      	str	r3, [r7, #60]	; 0x3c
 8006658:	6bf9      	ldr	r1, [r7, #60]	; 0x3c
 800665a:	6c3a      	ldr	r2, [r7, #64]	; 0x40
 800665c:	e841 2300 	strex	r3, r2, [r1]
 8006660:	63bb      	str	r3, [r7, #56]	; 0x38
 8006662:	6bbb      	ldr	r3, [r7, #56]	; 0x38
 8006664:	2b00      	cmp	r3, #0
 8006666:	d1e5      	bne.n	8006634 <UART_EndRxTransfer+0x8>
 8006668:	687b      	ldr	r3, [r7, #4]
 800666a:	681b      	ldr	r3, [r3, #0]
 800666c:	3314      	adds	r3, #20
 800666e:	623b      	str	r3, [r7, #32]
 8006670:	6a3b      	ldr	r3, [r7, #32]
 8006672:	e853 3f00 	ldrex	r3, [r3]
 8006676:	61fb      	str	r3, [r7, #28]
 8006678:	69fb      	ldr	r3, [r7, #28]
 800667a:	f023 0301 	bic.w	r3, r3, #1
 800667e:	64bb      	str	r3, [r7, #72]	; 0x48
 8006680:	687b      	ldr	r3, [r7, #4]
 8006682:	681b      	ldr	r3, [r3, #0]
 8006684:	3314      	adds	r3, #20
 8006686:	6cba      	ldr	r2, [r7, #72]	; 0x48
 8006688:	62fa      	str	r2, [r7, #44]	; 0x2c
 800668a:	62bb      	str	r3, [r7, #40]	; 0x28
 800668c:	6ab9      	ldr	r1, [r7, #40]	; 0x28
 800668e:	6afa      	ldr	r2, [r7, #44]	; 0x2c
 8006690:	e841 2300 	strex	r3, r2, [r1]
 8006694:	627b      	str	r3, [r7, #36]	; 0x24
 8006696:	6a7b      	ldr	r3, [r7, #36]	; 0x24
 8006698:	2b00      	cmp	r3, #0
 800669a:	d1e5      	bne.n	8006668 <UART_EndRxTransfer+0x3c>
 800669c:	687b      	ldr	r3, [r7, #4]
 800669e:	6b1b      	ldr	r3, [r3, #48]	; 0x30
 80066a0:	2b01      	cmp	r3, #1
 80066a2:	d119      	bne.n	80066d8 <UART_EndRxTransfer+0xac>
 80066a4:	687b      	ldr	r3, [r7, #4]
 80066a6:	681b      	ldr	r3, [r3, #0]
 80066a8:	330c      	adds	r3, #12
 80066aa:	60fb      	str	r3, [r7, #12]
 80066ac:	68fb      	ldr	r3, [r7, #12]
 80066ae:	e853 3f00 	ldrex	r3, [r3]
 80066b2:	60bb      	str	r3, [r7, #8]
 80066b4:	68bb      	ldr	r3, [r7, #8]
 80066b6:	f023 0310 	bic.w	r3, r3, #16
 80066ba:	647b      	str	r3, [r7, #68]	; 0x44
 80066bc:	687b      	ldr	r3, [r7, #4]
 80066be:	681b      	ldr	r3, [r3, #0]
 80066c0:	330c      	adds	r3, #12
 80066c2:	6c7a      	ldr	r2, [r7, #68]	; 0x44
 80066c4:	61ba      	str	r2, [r7, #24]
 80066c6:	617b      	str	r3, [r7, #20]
 80066c8:	6979      	ldr	r1, [r7, #20]
 80066ca:	69ba      	ldr	r2, [r7, #24]
 80066cc:	e841 2300 	strex	r3, r2, [r1]
 80066d0:	613b      	str	r3, [r7, #16]
 80066d2:	693b      	ldr	r3, [r7, #16]
 80066d4:	2b00      	cmp	r3, #0
 80066d6:	d1e5      	bne.n	80066a4 <UART_EndRxTransfer+0x78>
 80066d8:	687b      	ldr	r3, [r7, #4]
 80066da:	2220      	movs	r2, #32
 80066dc:	f883 203e 	strb.w	r2, [r3, #62]	; 0x3e
 80066e0:	687b      	ldr	r3, [r7, #4]
 80066e2:	2200      	movs	r2, #0
 80066e4:	631a      	str	r2, [r3, #48]	; 0x30
 80066e6:	bf00      	nop
 80066e8:	3754      	adds	r7, #84	; 0x54
 80066ea:	46bd      	mov	sp, r7
 80066ec:	f85d 7b04 	ldr.w	r7, [sp], #4
 80066f0:	4770      	bx	lr

080066f2 <UART_DMAAbortOnError>:
 80066f2:	b580      	push	{r7, lr}
 80066f4:	b084      	sub	sp, #16
 80066f6:	af00      	add	r7, sp, #0
 80066f8:	6078      	str	r0, [r7, #4]
 80066fa:	687b      	ldr	r3, [r7, #4]
 80066fc:	6b9b      	ldr	r3, [r3, #56]	; 0x38
 80066fe:	60fb      	str	r3, [r7, #12]
 8006700:	68fb      	ldr	r3, [r7, #12]
 8006702:	2200      	movs	r2, #0
 8006704:	85da      	strh	r2, [r3, #46]	; 0x2e
 8006706:	68fb      	ldr	r3, [r7, #12]
 8006708:	2200      	movs	r2, #0
 800670a:	84da      	strh	r2, [r3, #38]	; 0x26
 800670c:	68f8      	ldr	r0, [r7, #12]
 800670e:	f7ff fecb 	bl	80064a8 <HAL_UART_ErrorCallback>
 8006712:	bf00      	nop
 8006714:	3710      	adds	r7, #16
 8006716:	46bd      	mov	sp, r7
 8006718:	bd80      	pop	{r7, pc}

0800671a <UART_Transmit_IT>:
 800671a:	b480      	push	{r7}
 800671c:	b085      	sub	sp, #20
 800671e:	af00      	add	r7, sp, #0
 8006720:	6078      	str	r0, [r7, #4]
 8006722:	687b      	ldr	r3, [r7, #4]
 8006724:	f893 303d 	ldrb.w	r3, [r3, #61]	; 0x3d
 8006728:	b2db      	uxtb	r3, r3
 800672a:	2b21      	cmp	r3, #33	; 0x21
 800672c:	d13e      	bne.n	80067ac <UART_Transmit_IT+0x92>
 800672e:	687b      	ldr	r3, [r7, #4]
 8006730:	689b      	ldr	r3, [r3, #8]
 8006732:	f5b3 5f80 	cmp.w	r3, #4096	; 0x1000
 8006736:	d114      	bne.n	8006762 <UART_Transmit_IT+0x48>
 8006738:	687b      	ldr	r3, [r7, #4]
 800673a:	691b      	ldr	r3, [r3, #16]
 800673c:	2b00      	cmp	r3, #0
 800673e:	d110      	bne.n	8006762 <UART_Transmit_IT+0x48>
 8006740:	687b      	ldr	r3, [r7, #4]
 8006742:	6a1b      	ldr	r3, [r3, #32]
 8006744:	60fb      	str	r3, [r7, #12]
 8006746:	68fb      	ldr	r3, [r7, #12]
 8006748:	881b      	ldrh	r3, [r3, #0]
 800674a:	461a      	mov	r2, r3
 800674c:	687b      	ldr	r3, [r7, #4]
 800674e:	681b      	ldr	r3, [r3, #0]
 8006750:	f3c2 0208 	ubfx	r2, r2, #0, #9
 8006754:	605a      	str	r2, [r3, #4]
 8006756:	687b      	ldr	r3, [r7, #4]
 8006758:	6a1b      	ldr	r3, [r3, #32]
 800675a:	1c9a      	adds	r2, r3, #2
 800675c:	687b      	ldr	r3, [r7, #4]
 800675e:	621a      	str	r2, [r3, #32]
 8006760:	e008      	b.n	8006774 <UART_Transmit_IT+0x5a>
 8006762:	687b      	ldr	r3, [r7, #4]
 8006764:	6a1b      	ldr	r3, [r3, #32]
 8006766:	1c59      	adds	r1, r3, #1
 8006768:	687a      	ldr	r2, [r7, #4]
 800676a:	6211      	str	r1, [r2, #32]
 800676c:	781a      	ldrb	r2, [r3, #0]
 800676e:	687b      	ldr	r3, [r7, #4]
 8006770:	681b      	ldr	r3, [r3, #0]
 8006772:	605a      	str	r2, [r3, #4]
 8006774:	687b      	ldr	r3, [r7, #4]
 8006776:	8cdb      	ldrh	r3, [r3, #38]	; 0x26
 8006778:	b29b      	uxth	r3, r3
 800677a:	3b01      	subs	r3, #1
 800677c:	b29b      	uxth	r3, r3
 800677e:	687a      	ldr	r2, [r7, #4]
 8006780:	4619      	mov	r1, r3
 8006782:	84d1      	strh	r1, [r2, #38]	; 0x26
 8006784:	2b00      	cmp	r3, #0
 8006786:	d10f      	bne.n	80067a8 <UART_Transmit_IT+0x8e>
 8006788:	687b      	ldr	r3, [r7, #4]
 800678a:	681b      	ldr	r3, [r3, #0]
 800678c:	68da      	ldr	r2, [r3, #12]
 800678e:	687b      	ldr	r3, [r7, #4]
 8006790:	681b      	ldr	r3, [r3, #0]
 8006792:	f022 0280 	bic.w	r2, r2, #128	; 0x80
 8006796:	60da      	str	r2, [r3, #12]
 8006798:	687b      	ldr	r3, [r7, #4]
 800679a:	681b      	ldr	r3, [r3, #0]
 800679c:	68da      	ldr	r2, [r3, #12]
 800679e:	687b      	ldr	r3, [r7, #4]
 80067a0:	681b      	ldr	r3, [r3, #0]
 80067a2:	f042 0240 	orr.w	r2, r2, #64	; 0x40
 80067a6:	60da      	str	r2, [r3, #12]
 80067a8:	2300      	movs	r3, #0
 80067aa:	e000      	b.n	80067ae <UART_Transmit_IT+0x94>
 80067ac:	2302      	movs	r3, #2
 80067ae:	4618      	mov	r0, r3
 80067b0:	3714      	adds	r7, #20
 80067b2:	46bd      	mov	sp, r7
 80067b4:	f85d 7b04 	ldr.w	r7, [sp], #4
 80067b8:	4770      	bx	lr

080067ba <UART_EndTransmit_IT>:
 80067ba:	b580      	push	{r7, lr}
 80067bc:	b082      	sub	sp, #8
 80067be:	af00      	add	r7, sp, #0
 80067c0:	6078      	str	r0, [r7, #4]
 80067c2:	687b      	ldr	r3, [r7, #4]
 80067c4:	681b      	ldr	r3, [r3, #0]
 80067c6:	68da      	ldr	r2, [r3, #12]
 80067c8:	687b      	ldr	r3, [r7, #4]
 80067ca:	681b      	ldr	r3, [r3, #0]
 80067cc:	f022 0240 	bic.w	r2, r2, #64	; 0x40
 80067d0:	60da      	str	r2, [r3, #12]
 80067d2:	687b      	ldr	r3, [r7, #4]
 80067d4:	2220      	movs	r2, #32
 80067d6:	f883 203d 	strb.w	r2, [r3, #61]	; 0x3d
 80067da:	6878      	ldr	r0, [r7, #4]
 80067dc:	f7ff fe5a 	bl	8006494 <HAL_UART_TxCpltCallback>
 80067e0:	2300      	movs	r3, #0
 80067e2:	4618      	mov	r0, r3
 80067e4:	3708      	adds	r7, #8
 80067e6:	46bd      	mov	sp, r7
 80067e8:	bd80      	pop	{r7, pc}

080067ea <UART_Receive_IT>:
 80067ea:	b580      	push	{r7, lr}
 80067ec:	b08c      	sub	sp, #48	; 0x30
 80067ee:	af00      	add	r7, sp, #0
 80067f0:	6078      	str	r0, [r7, #4]
 80067f2:	687b      	ldr	r3, [r7, #4]
 80067f4:	f893 303e 	ldrb.w	r3, [r3, #62]	; 0x3e
 80067f8:	b2db      	uxtb	r3, r3
 80067fa:	2b22      	cmp	r3, #34	; 0x22
 80067fc:	f040 80ab 	bne.w	8006956 <UART_Receive_IT+0x16c>
 8006800:	687b      	ldr	r3, [r7, #4]
 8006802:	689b      	ldr	r3, [r3, #8]
 8006804:	f5b3 5f80 	cmp.w	r3, #4096	; 0x1000
 8006808:	d117      	bne.n	800683a <UART_Receive_IT+0x50>
 800680a:	687b      	ldr	r3, [r7, #4]
 800680c:	691b      	ldr	r3, [r3, #16]
 800680e:	2b00      	cmp	r3, #0
 8006810:	d113      	bne.n	800683a <UART_Receive_IT+0x50>
 8006812:	2300      	movs	r3, #0
 8006814:	62fb      	str	r3, [r7, #44]	; 0x2c
 8006816:	687b      	ldr	r3, [r7, #4]
 8006818:	6a9b      	ldr	r3, [r3, #40]	; 0x28
 800681a:	62bb      	str	r3, [r7, #40]	; 0x28
 800681c:	687b      	ldr	r3, [r7, #4]
 800681e:	681b      	ldr	r3, [r3, #0]
 8006820:	685b      	ldr	r3, [r3, #4]
 8006822:	b29b      	uxth	r3, r3
 8006824:	f3c3 0308 	ubfx	r3, r3, #0, #9
 8006828:	b29a      	uxth	r2, r3
 800682a:	6abb      	ldr	r3, [r7, #40]	; 0x28
 800682c:	801a      	strh	r2, [r3, #0]
 800682e:	687b      	ldr	r3, [r7, #4]
 8006830:	6a9b      	ldr	r3, [r3, #40]	; 0x28
 8006832:	1c9a      	adds	r2, r3, #2
 8006834:	687b      	ldr	r3, [r7, #4]
 8006836:	629a      	str	r2, [r3, #40]	; 0x28
 8006838:	e026      	b.n	8006888 <UART_Receive_IT+0x9e>
 800683a:	687b      	ldr	r3, [r7, #4]
 800683c:	6a9b      	ldr	r3, [r3, #40]	; 0x28
 800683e:	62fb      	str	r3, [r7, #44]	; 0x2c
 8006840:	2300      	movs	r3, #0
 8006842:	62bb      	str	r3, [r7, #40]	; 0x28
 8006844:	687b      	ldr	r3, [r7, #4]
 8006846:	689b      	ldr	r3, [r3, #8]
 8006848:	f5b3 5f80 	cmp.w	r3, #4096	; 0x1000
 800684c:	d007      	beq.n	800685e <UART_Receive_IT+0x74>
 800684e:	687b      	ldr	r3, [r7, #4]
 8006850:	689b      	ldr	r3, [r3, #8]
 8006852:	2b00      	cmp	r3, #0
 8006854:	d10a      	bne.n	800686c <UART_Receive_IT+0x82>
 8006856:	687b      	ldr	r3, [r7, #4]
 8006858:	691b      	ldr	r3, [r3, #16]
 800685a:	2b00      	cmp	r3, #0
 800685c:	d106      	bne.n	800686c <UART_Receive_IT+0x82>
 800685e:	687b      	ldr	r3, [r7, #4]
 8006860:	681b      	ldr	r3, [r3, #0]
 8006862:	685b      	ldr	r3, [r3, #4]
 8006864:	b2da      	uxtb	r2, r3
 8006866:	6afb      	ldr	r3, [r7, #44]	; 0x2c
 8006868:	701a      	strb	r2, [r3, #0]
 800686a:	e008      	b.n	800687e <UART_Receive_IT+0x94>
 800686c:	687b      	ldr	r3, [r7, #4]
 800686e:	681b      	ldr	r3, [r3, #0]
 8006870:	685b      	ldr	r3, [r3, #4]
 8006872:	b2db      	uxtb	r3, r3
 8006874:	f003 037f 	and.w	r3, r3, #127	; 0x7f
 8006878:	b2da      	uxtb	r2, r3
 800687a:	6afb      	ldr	r3, [r7, #44]	; 0x2c
 800687c:	701a      	strb	r2, [r3, #0]
 800687e:	687b      	ldr	r3, [r7, #4]
 8006880:	6a9b      	ldr	r3, [r3, #40]	; 0x28
 8006882:	1c5a      	adds	r2, r3, #1
 8006884:	687b      	ldr	r3, [r7, #4]
 8006886:	629a      	str	r2, [r3, #40]	; 0x28
 8006888:	687b      	ldr	r3, [r7, #4]
 800688a:	8ddb      	ldrh	r3, [r3, #46]	; 0x2e
 800688c:	b29b      	uxth	r3, r3
 800688e:	3b01      	subs	r3, #1
 8006890:	b29b      	uxth	r3, r3
 8006892:	687a      	ldr	r2, [r7, #4]
 8006894:	4619      	mov	r1, r3
 8006896:	85d1      	strh	r1, [r2, #46]	; 0x2e
 8006898:	2b00      	cmp	r3, #0
 800689a:	d15a      	bne.n	8006952 <UART_Receive_IT+0x168>
 800689c:	687b      	ldr	r3, [r7, #4]
 800689e:	681b      	ldr	r3, [r3, #0]
 80068a0:	68da      	ldr	r2, [r3, #12]
 80068a2:	687b      	ldr	r3, [r7, #4]
 80068a4:	681b      	ldr	r3, [r3, #0]
 80068a6:	f022 0220 	bic.w	r2, r2, #32
 80068aa:	60da      	str	r2, [r3, #12]
 80068ac:	687b      	ldr	r3, [r7, #4]
 80068ae:	681b      	ldr	r3, [r3, #0]
 80068b0:	68da      	ldr	r2, [r3, #12]
 80068b2:	687b      	ldr	r3, [r7, #4]
 80068b4:	681b      	ldr	r3, [r3, #0]
 80068b6:	f422 7280 	bic.w	r2, r2, #256	; 0x100
 80068ba:	60da      	str	r2, [r3, #12]
 80068bc:	687b      	ldr	r3, [r7, #4]
 80068be:	681b      	ldr	r3, [r3, #0]
 80068c0:	695a      	ldr	r2, [r3, #20]
 80068c2:	687b      	ldr	r3, [r7, #4]
 80068c4:	681b      	ldr	r3, [r3, #0]
 80068c6:	f022 0201 	bic.w	r2, r2, #1
 80068ca:	615a      	str	r2, [r3, #20]
 80068cc:	687b      	ldr	r3, [r7, #4]
 80068ce:	2220      	movs	r2, #32
 80068d0:	f883 203e 	strb.w	r2, [r3, #62]	; 0x3e
 80068d4:	687b      	ldr	r3, [r7, #4]
 80068d6:	6b1b      	ldr	r3, [r3, #48]	; 0x30
 80068d8:	2b01      	cmp	r3, #1
 80068da:	d135      	bne.n	8006948 <UART_Receive_IT+0x15e>
 80068dc:	687b      	ldr	r3, [r7, #4]
 80068de:	2200      	movs	r2, #0
 80068e0:	631a      	str	r2, [r3, #48]	; 0x30
 80068e2:	687b      	ldr	r3, [r7, #4]
 80068e4:	681b      	ldr	r3, [r3, #0]
 80068e6:	330c      	adds	r3, #12
 80068e8:	617b      	str	r3, [r7, #20]
 80068ea:	697b      	ldr	r3, [r7, #20]
 80068ec:	e853 3f00 	ldrex	r3, [r3]
 80068f0:	613b      	str	r3, [r7, #16]
 80068f2:	693b      	ldr	r3, [r7, #16]
 80068f4:	f023 0310 	bic.w	r3, r3, #16
 80068f8:	627b      	str	r3, [r7, #36]	; 0x24
 80068fa:	687b      	ldr	r3, [r7, #4]
 80068fc:	681b      	ldr	r3, [r3, #0]
 80068fe:	330c      	adds	r3, #12
 8006900:	6a7a      	ldr	r2, [r7, #36]	; 0x24
 8006902:	623a      	str	r2, [r7, #32]
 8006904:	61fb      	str	r3, [r7, #28]
 8006906:	69f9      	ldr	r1, [r7, #28]
 8006908:	6a3a      	ldr	r2, [r7, #32]
 800690a:	e841 2300 	strex	r3, r2, [r1]
 800690e:	61bb      	str	r3, [r7, #24]
 8006910:	69bb      	ldr	r3, [r7, #24]
 8006912:	2b00      	cmp	r3, #0
 8006914:	d1e5      	bne.n	80068e2 <UART_Receive_IT+0xf8>
 8006916:	687b      	ldr	r3, [r7, #4]
 8006918:	681b      	ldr	r3, [r3, #0]
 800691a:	681b      	ldr	r3, [r3, #0]
 800691c:	f003 0310 	and.w	r3, r3, #16
 8006920:	2b10      	cmp	r3, #16
 8006922:	d10a      	bne.n	800693a <UART_Receive_IT+0x150>
 8006924:	2300      	movs	r3, #0
 8006926:	60fb      	str	r3, [r7, #12]
 8006928:	687b      	ldr	r3, [r7, #4]
 800692a:	681b      	ldr	r3, [r3, #0]
 800692c:	681b      	ldr	r3, [r3, #0]
 800692e:	60fb      	str	r3, [r7, #12]
 8006930:	687b      	ldr	r3, [r7, #4]
 8006932:	681b      	ldr	r3, [r3, #0]
 8006934:	685b      	ldr	r3, [r3, #4]
 8006936:	60fb      	str	r3, [r7, #12]
 8006938:	68fb      	ldr	r3, [r7, #12]
 800693a:	687b      	ldr	r3, [r7, #4]
 800693c:	8d9b      	ldrh	r3, [r3, #44]	; 0x2c
 800693e:	4619      	mov	r1, r3
 8006940:	6878      	ldr	r0, [r7, #4]
 8006942:	f7ff fdbb 	bl	80064bc <HAL_UARTEx_RxEventCallback>
 8006946:	e002      	b.n	800694e <UART_Receive_IT+0x164>
 8006948:	6878      	ldr	r0, [r7, #4]
 800694a:	f7fb fca3 	bl	8002294 <HAL_UART_RxCpltCallback>
 800694e:	2300      	movs	r3, #0
 8006950:	e002      	b.n	8006958 <UART_Receive_IT+0x16e>
 8006952:	2300      	movs	r3, #0
 8006954:	e000      	b.n	8006958 <UART_Receive_IT+0x16e>
 8006956:	2302      	movs	r3, #2
 8006958:	4618      	mov	r0, r3
 800695a:	3730      	adds	r7, #48	; 0x30
 800695c:	46bd      	mov	sp, r7
 800695e:	bd80      	pop	{r7, pc}

08006960 <UART_SetConfig>:
 8006960:	e92d 4fb0 	stmdb	sp!, {r4, r5, r7, r8, r9, sl, fp, lr}
 8006964:	b0c0      	sub	sp, #256	; 0x100
 8006966:	af00      	add	r7, sp, #0
 8006968:	f8c7 00f4 	str.w	r0, [r7, #244]	; 0xf4
 800696c:	f8d7 30f4 	ldr.w	r3, [r7, #244]	; 0xf4
 8006970:	681b      	ldr	r3, [r3, #0]
 8006972:	691b      	ldr	r3, [r3, #16]
 8006974:	f423 5040 	bic.w	r0, r3, #12288	; 0x3000
 8006978:	f8d7 30f4 	ldr.w	r3, [r7, #244]	; 0xf4
 800697c:	68d9      	ldr	r1, [r3, #12]
 800697e:	f8d7 30f4 	ldr.w	r3, [r7, #244]	; 0xf4
 8006982:	681a      	ldr	r2, [r3, #0]
 8006984:	ea40 0301 	orr.w	r3, r0, r1
 8006988:	6113      	str	r3, [r2, #16]
 800698a:	f8d7 30f4 	ldr.w	r3, [r7, #244]	; 0xf4
 800698e:	689a      	ldr	r2, [r3, #8]
 8006990:	f8d7 30f4 	ldr.w	r3, [r7, #244]	; 0xf4
 8006994:	691b      	ldr	r3, [r3, #16]
 8006996:	431a      	orrs	r2, r3
 8006998:	f8d7 30f4 	ldr.w	r3, [r7, #244]	; 0xf4
 800699c:	695b      	ldr	r3, [r3, #20]
 800699e:	431a      	orrs	r2, r3
 80069a0:	f8d7 30f4 	ldr.w	r3, [r7, #244]	; 0xf4
 80069a4:	69db      	ldr	r3, [r3, #28]
 80069a6:	4313      	orrs	r3, r2
 80069a8:	f8c7 30f8 	str.w	r3, [r7, #248]	; 0xf8
 80069ac:	f8d7 30f4 	ldr.w	r3, [r7, #244]	; 0xf4
 80069b0:	681b      	ldr	r3, [r3, #0]
 80069b2:	68db      	ldr	r3, [r3, #12]
 80069b4:	f423 4116 	bic.w	r1, r3, #38400	; 0x9600
 80069b8:	f021 010c 	bic.w	r1, r1, #12
 80069bc:	f8d7 30f4 	ldr.w	r3, [r7, #244]	; 0xf4
 80069c0:	681a      	ldr	r2, [r3, #0]
 80069c2:	f8d7 30f8 	ldr.w	r3, [r7, #248]	; 0xf8
 80069c6:	430b      	orrs	r3, r1
 80069c8:	60d3      	str	r3, [r2, #12]
 80069ca:	f8d7 30f4 	ldr.w	r3, [r7, #244]	; 0xf4
 80069ce:	681b      	ldr	r3, [r3, #0]
 80069d0:	695b      	ldr	r3, [r3, #20]
 80069d2:	f423 7040 	bic.w	r0, r3, #768	; 0x300
 80069d6:	f8d7 30f4 	ldr.w	r3, [r7, #244]	; 0xf4
 80069da:	6999      	ldr	r1, [r3, #24]
 80069dc:	f8d7 30f4 	ldr.w	r3, [r7, #244]	; 0xf4
 80069e0:	681a      	ldr	r2, [r3, #0]
 80069e2:	ea40 0301 	orr.w	r3, r0, r1
 80069e6:	6153      	str	r3, [r2, #20]
 80069e8:	f8d7 30f4 	ldr.w	r3, [r7, #244]	; 0xf4
 80069ec:	681a      	ldr	r2, [r3, #0]
 80069ee:	4b8f      	ldr	r3, [pc, #572]	; (8006c2c <UART_SetConfig+0x2cc>)
 80069f0:	429a      	cmp	r2, r3
 80069f2:	d005      	beq.n	8006a00 <UART_SetConfig+0xa0>
 80069f4:	f8d7 30f4 	ldr.w	r3, [r7, #244]	; 0xf4
 80069f8:	681a      	ldr	r2, [r3, #0]
 80069fa:	4b8d      	ldr	r3, [pc, #564]	; (8006c30 <UART_SetConfig+0x2d0>)
 80069fc:	429a      	cmp	r2, r3
 80069fe:	d104      	bne.n	8006a0a <UART_SetConfig+0xaa>
 8006a00:	f7fd ff08 	bl	8004814 <HAL_RCC_GetPCLK2Freq>
 8006a04:	f8c7 00fc 	str.w	r0, [r7, #252]	; 0xfc
 8006a08:	e003      	b.n	8006a12 <UART_SetConfig+0xb2>
 8006a0a:	f7fd feef 	bl	80047ec <HAL_RCC_GetPCLK1Freq>
 8006a0e:	f8c7 00fc 	str.w	r0, [r7, #252]	; 0xfc
 8006a12:	f8d7 30f4 	ldr.w	r3, [r7, #244]	; 0xf4
 8006a16:	69db      	ldr	r3, [r3, #28]
 8006a18:	f5b3 4f00 	cmp.w	r3, #32768	; 0x8000
 8006a1c:	f040 810c 	bne.w	8006c38 <UART_SetConfig+0x2d8>
 8006a20:	f8d7 30fc 	ldr.w	r3, [r7, #252]	; 0xfc
 8006a24:	2200      	movs	r2, #0
 8006a26:	f8c7 30e8 	str.w	r3, [r7, #232]	; 0xe8
 8006a2a:	f8c7 20ec 	str.w	r2, [r7, #236]	; 0xec
 8006a2e:	e9d7 453a 	ldrd	r4, r5, [r7, #232]	; 0xe8
 8006a32:	4622      	mov	r2, r4
 8006a34:	462b      	mov	r3, r5
 8006a36:	1891      	adds	r1, r2, r2
 8006a38:	65b9      	str	r1, [r7, #88]	; 0x58
 8006a3a:	415b      	adcs	r3, r3
 8006a3c:	65fb      	str	r3, [r7, #92]	; 0x5c
 8006a3e:	e9d7 2316 	ldrd	r2, r3, [r7, #88]	; 0x58
 8006a42:	4621      	mov	r1, r4
 8006a44:	eb12 0801 	adds.w	r8, r2, r1
 8006a48:	4629      	mov	r1, r5
 8006a4a:	eb43 0901 	adc.w	r9, r3, r1
 8006a4e:	f04f 0200 	mov.w	r2, #0
 8006a52:	f04f 0300 	mov.w	r3, #0
 8006a56:	ea4f 03c9 	mov.w	r3, r9, lsl #3
 8006a5a:	ea43 7358 	orr.w	r3, r3, r8, lsr #29
 8006a5e:	ea4f 02c8 	mov.w	r2, r8, lsl #3
 8006a62:	4690      	mov	r8, r2
 8006a64:	4699      	mov	r9, r3
 8006a66:	4623      	mov	r3, r4
 8006a68:	eb18 0303 	adds.w	r3, r8, r3
 8006a6c:	f8c7 30e0 	str.w	r3, [r7, #224]	; 0xe0
 8006a70:	462b      	mov	r3, r5
 8006a72:	eb49 0303 	adc.w	r3, r9, r3
 8006a76:	f8c7 30e4 	str.w	r3, [r7, #228]	; 0xe4
 8006a7a:	f8d7 30f4 	ldr.w	r3, [r7, #244]	; 0xf4
 8006a7e:	685b      	ldr	r3, [r3, #4]
 8006a80:	2200      	movs	r2, #0
 8006a82:	f8c7 30d8 	str.w	r3, [r7, #216]	; 0xd8
 8006a86:	f8c7 20dc 	str.w	r2, [r7, #220]	; 0xdc
 8006a8a:	e9d7 1236 	ldrd	r1, r2, [r7, #216]	; 0xd8
 8006a8e:	460b      	mov	r3, r1
 8006a90:	18db      	adds	r3, r3, r3
 8006a92:	653b      	str	r3, [r7, #80]	; 0x50
 8006a94:	4613      	mov	r3, r2
 8006a96:	eb42 0303 	adc.w	r3, r2, r3
 8006a9a:	657b      	str	r3, [r7, #84]	; 0x54
 8006a9c:	e9d7 2314 	ldrd	r2, r3, [r7, #80]	; 0x50
 8006aa0:	e9d7 0138 	ldrd	r0, r1, [r7, #224]	; 0xe0
 8006aa4:	f7f9 fd6c 	bl	8000580 <__aeabi_uldivmod>
 8006aa8:	4602      	mov	r2, r0
 8006aaa:	460b      	mov	r3, r1
 8006aac:	4b61      	ldr	r3, [pc, #388]	; (8006c34 <UART_SetConfig+0x2d4>)
 8006aae:	fba3 2302 	umull	r2, r3, r3, r2
 8006ab2:	095b      	lsrs	r3, r3, #5
 8006ab4:	011c      	lsls	r4, r3, #4
 8006ab6:	f8d7 30fc 	ldr.w	r3, [r7, #252]	; 0xfc
 8006aba:	2200      	movs	r2, #0
 8006abc:	f8c7 30d0 	str.w	r3, [r7, #208]	; 0xd0
 8006ac0:	f8c7 20d4 	str.w	r2, [r7, #212]	; 0xd4
 8006ac4:	e9d7 8934 	ldrd	r8, r9, [r7, #208]	; 0xd0
 8006ac8:	4642      	mov	r2, r8
 8006aca:	464b      	mov	r3, r9
 8006acc:	1891      	adds	r1, r2, r2
 8006ace:	64b9      	str	r1, [r7, #72]	; 0x48
 8006ad0:	415b      	adcs	r3, r3
 8006ad2:	64fb      	str	r3, [r7, #76]	; 0x4c
 8006ad4:	e9d7 2312 	ldrd	r2, r3, [r7, #72]	; 0x48
 8006ad8:	4641      	mov	r1, r8
 8006ada:	eb12 0a01 	adds.w	sl, r2, r1
 8006ade:	4649      	mov	r1, r9
 8006ae0:	eb43 0b01 	adc.w	fp, r3, r1
 8006ae4:	f04f 0200 	mov.w	r2, #0
 8006ae8:	f04f 0300 	mov.w	r3, #0
 8006aec:	ea4f 03cb 	mov.w	r3, fp, lsl #3
 8006af0:	ea43 735a 	orr.w	r3, r3, sl, lsr #29
 8006af4:	ea4f 02ca 	mov.w	r2, sl, lsl #3
 8006af8:	4692      	mov	sl, r2
 8006afa:	469b      	mov	fp, r3
 8006afc:	4643      	mov	r3, r8
 8006afe:	eb1a 0303 	adds.w	r3, sl, r3
 8006b02:	f8c7 30c8 	str.w	r3, [r7, #200]	; 0xc8
 8006b06:	464b      	mov	r3, r9
 8006b08:	eb4b 0303 	adc.w	r3, fp, r3
 8006b0c:	f8c7 30cc 	str.w	r3, [r7, #204]	; 0xcc
 8006b10:	f8d7 30f4 	ldr.w	r3, [r7, #244]	; 0xf4
 8006b14:	685b      	ldr	r3, [r3, #4]
 8006b16:	2200      	movs	r2, #0
 8006b18:	f8c7 30c0 	str.w	r3, [r7, #192]	; 0xc0
 8006b1c:	f8c7 20c4 	str.w	r2, [r7, #196]	; 0xc4
 8006b20:	e9d7 1230 	ldrd	r1, r2, [r7, #192]	; 0xc0
 8006b24:	460b      	mov	r3, r1
 8006b26:	18db      	adds	r3, r3, r3
 8006b28:	643b      	str	r3, [r7, #64]	; 0x40
 8006b2a:	4613      	mov	r3, r2
 8006b2c:	eb42 0303 	adc.w	r3, r2, r3
 8006b30:	647b      	str	r3, [r7, #68]	; 0x44
 8006b32:	e9d7 2310 	ldrd	r2, r3, [r7, #64]	; 0x40
 8006b36:	e9d7 0132 	ldrd	r0, r1, [r7, #200]	; 0xc8
 8006b3a:	f7f9 fd21 	bl	8000580 <__aeabi_uldivmod>
 8006b3e:	4602      	mov	r2, r0
 8006b40:	460b      	mov	r3, r1
 8006b42:	4611      	mov	r1, r2
 8006b44:	4b3b      	ldr	r3, [pc, #236]	; (8006c34 <UART_SetConfig+0x2d4>)
 8006b46:	fba3 2301 	umull	r2, r3, r3, r1
 8006b4a:	095b      	lsrs	r3, r3, #5
 8006b4c:	2264      	movs	r2, #100	; 0x64
 8006b4e:	fb02 f303 	mul.w	r3, r2, r3
 8006b52:	1acb      	subs	r3, r1, r3
 8006b54:	00db      	lsls	r3, r3, #3
 8006b56:	f103 0232 	add.w	r2, r3, #50	; 0x32
 8006b5a:	4b36      	ldr	r3, [pc, #216]	; (8006c34 <UART_SetConfig+0x2d4>)
 8006b5c:	fba3 2302 	umull	r2, r3, r3, r2
 8006b60:	095b      	lsrs	r3, r3, #5
 8006b62:	005b      	lsls	r3, r3, #1
 8006b64:	f403 73f8 	and.w	r3, r3, #496	; 0x1f0
 8006b68:	441c      	add	r4, r3
 8006b6a:	f8d7 30fc 	ldr.w	r3, [r7, #252]	; 0xfc
 8006b6e:	2200      	movs	r2, #0
 8006b70:	f8c7 30b8 	str.w	r3, [r7, #184]	; 0xb8
 8006b74:	f8c7 20bc 	str.w	r2, [r7, #188]	; 0xbc
 8006b78:	e9d7 892e 	ldrd	r8, r9, [r7, #184]	; 0xb8
 8006b7c:	4642      	mov	r2, r8
 8006b7e:	464b      	mov	r3, r9
 8006b80:	1891      	adds	r1, r2, r2
 8006b82:	63b9      	str	r1, [r7, #56]	; 0x38
 8006b84:	415b      	adcs	r3, r3
 8006b86:	63fb      	str	r3, [r7, #60]	; 0x3c
 8006b88:	e9d7 230e 	ldrd	r2, r3, [r7, #56]	; 0x38
 8006b8c:	4641      	mov	r1, r8
 8006b8e:	1851      	adds	r1, r2, r1
 8006b90:	6339      	str	r1, [r7, #48]	; 0x30
 8006b92:	4649      	mov	r1, r9
 8006b94:	414b      	adcs	r3, r1
 8006b96:	637b      	str	r3, [r7, #52]	; 0x34
 8006b98:	f04f 0200 	mov.w	r2, #0
 8006b9c:	f04f 0300 	mov.w	r3, #0
 8006ba0:	e9d7 ab0c 	ldrd	sl, fp, [r7, #48]	; 0x30
 8006ba4:	4659      	mov	r1, fp
 8006ba6:	00cb      	lsls	r3, r1, #3
 8006ba8:	4651      	mov	r1, sl
 8006baa:	ea43 7351 	orr.w	r3, r3, r1, lsr #29
 8006bae:	4651      	mov	r1, sl
 8006bb0:	00ca      	lsls	r2, r1, #3
 8006bb2:	4610      	mov	r0, r2
 8006bb4:	4619      	mov	r1, r3
 8006bb6:	4603      	mov	r3, r0
 8006bb8:	4642      	mov	r2, r8
 8006bba:	189b      	adds	r3, r3, r2
 8006bbc:	f8c7 30b0 	str.w	r3, [r7, #176]	; 0xb0
 8006bc0:	464b      	mov	r3, r9
 8006bc2:	460a      	mov	r2, r1
 8006bc4:	eb42 0303 	adc.w	r3, r2, r3
 8006bc8:	f8c7 30b4 	str.w	r3, [r7, #180]	; 0xb4
 8006bcc:	f8d7 30f4 	ldr.w	r3, [r7, #244]	; 0xf4
 8006bd0:	685b      	ldr	r3, [r3, #4]
 8006bd2:	2200      	movs	r2, #0
 8006bd4:	f8c7 30a8 	str.w	r3, [r7, #168]	; 0xa8
 8006bd8:	f8c7 20ac 	str.w	r2, [r7, #172]	; 0xac
 8006bdc:	e9d7 122a 	ldrd	r1, r2, [r7, #168]	; 0xa8
 8006be0:	460b      	mov	r3, r1
 8006be2:	18db      	adds	r3, r3, r3
 8006be4:	62bb      	str	r3, [r7, #40]	; 0x28
 8006be6:	4613      	mov	r3, r2
 8006be8:	eb42 0303 	adc.w	r3, r2, r3
 8006bec:	62fb      	str	r3, [r7, #44]	; 0x2c
 8006bee:	e9d7 230a 	ldrd	r2, r3, [r7, #40]	; 0x28
 8006bf2:	e9d7 012c 	ldrd	r0, r1, [r7, #176]	; 0xb0
 8006bf6:	f7f9 fcc3 	bl	8000580 <__aeabi_uldivmod>
 8006bfa:	4602      	mov	r2, r0
 8006bfc:	460b      	mov	r3, r1
 8006bfe:	4b0d      	ldr	r3, [pc, #52]	; (8006c34 <UART_SetConfig+0x2d4>)
 8006c00:	fba3 1302 	umull	r1, r3, r3, r2
 8006c04:	095b      	lsrs	r3, r3, #5
 8006c06:	2164      	movs	r1, #100	; 0x64
 8006c08:	fb01 f303 	mul.w	r3, r1, r3
 8006c0c:	1ad3      	subs	r3, r2, r3
 8006c0e:	00db      	lsls	r3, r3, #3
 8006c10:	3332      	adds	r3, #50	; 0x32
 8006c12:	4a08      	ldr	r2, [pc, #32]	; (8006c34 <UART_SetConfig+0x2d4>)
 8006c14:	fba2 2303 	umull	r2, r3, r2, r3
 8006c18:	095b      	lsrs	r3, r3, #5
 8006c1a:	f003 0207 	and.w	r2, r3, #7
 8006c1e:	f8d7 30f4 	ldr.w	r3, [r7, #244]	; 0xf4
 8006c22:	681b      	ldr	r3, [r3, #0]
 8006c24:	4422      	add	r2, r4
 8006c26:	609a      	str	r2, [r3, #8]
 8006c28:	e105      	b.n	8006e36 <UART_SetConfig+0x4d6>
 8006c2a:	bf00      	nop
 8006c2c:	40011000 	.word	0x40011000
 8006c30:	40011400 	.word	0x40011400
 8006c34:	51eb851f 	.word	0x51eb851f
 8006c38:	f8d7 30fc 	ldr.w	r3, [r7, #252]	; 0xfc
 8006c3c:	2200      	movs	r2, #0
 8006c3e:	f8c7 30a0 	str.w	r3, [r7, #160]	; 0xa0
 8006c42:	f8c7 20a4 	str.w	r2, [r7, #164]	; 0xa4
 8006c46:	e9d7 8928 	ldrd	r8, r9, [r7, #160]	; 0xa0
 8006c4a:	4642      	mov	r2, r8
 8006c4c:	464b      	mov	r3, r9
 8006c4e:	1891      	adds	r1, r2, r2
 8006c50:	6239      	str	r1, [r7, #32]
 8006c52:	415b      	adcs	r3, r3
 8006c54:	627b      	str	r3, [r7, #36]	; 0x24
 8006c56:	e9d7 2308 	ldrd	r2, r3, [r7, #32]
 8006c5a:	4641      	mov	r1, r8
 8006c5c:	1854      	adds	r4, r2, r1
 8006c5e:	4649      	mov	r1, r9
 8006c60:	eb43 0501 	adc.w	r5, r3, r1
 8006c64:	f04f 0200 	mov.w	r2, #0
 8006c68:	f04f 0300 	mov.w	r3, #0
 8006c6c:	00eb      	lsls	r3, r5, #3
 8006c6e:	ea43 7354 	orr.w	r3, r3, r4, lsr #29
 8006c72:	00e2      	lsls	r2, r4, #3
 8006c74:	4614      	mov	r4, r2
 8006c76:	461d      	mov	r5, r3
 8006c78:	4643      	mov	r3, r8
 8006c7a:	18e3      	adds	r3, r4, r3
 8006c7c:	f8c7 3098 	str.w	r3, [r7, #152]	; 0x98
 8006c80:	464b      	mov	r3, r9
 8006c82:	eb45 0303 	adc.w	r3, r5, r3
 8006c86:	f8c7 309c 	str.w	r3, [r7, #156]	; 0x9c
 8006c8a:	f8d7 30f4 	ldr.w	r3, [r7, #244]	; 0xf4
 8006c8e:	685b      	ldr	r3, [r3, #4]
 8006c90:	2200      	movs	r2, #0
 8006c92:	f8c7 3090 	str.w	r3, [r7, #144]	; 0x90
 8006c96:	f8c7 2094 	str.w	r2, [r7, #148]	; 0x94
 8006c9a:	f04f 0200 	mov.w	r2, #0
 8006c9e:	f04f 0300 	mov.w	r3, #0
 8006ca2:	e9d7 4524 	ldrd	r4, r5, [r7, #144]	; 0x90
 8006ca6:	4629      	mov	r1, r5
 8006ca8:	008b      	lsls	r3, r1, #2
 8006caa:	4621      	mov	r1, r4
 8006cac:	ea43 7391 	orr.w	r3, r3, r1, lsr #30
 8006cb0:	4621      	mov	r1, r4
 8006cb2:	008a      	lsls	r2, r1, #2
 8006cb4:	e9d7 0126 	ldrd	r0, r1, [r7, #152]	; 0x98
 8006cb8:	f7f9 fc62 	bl	8000580 <__aeabi_uldivmod>
 8006cbc:	4602      	mov	r2, r0
 8006cbe:	460b      	mov	r3, r1
 8006cc0:	4b60      	ldr	r3, [pc, #384]	; (8006e44 <UART_SetConfig+0x4e4>)
 8006cc2:	fba3 2302 	umull	r2, r3, r3, r2
 8006cc6:	095b      	lsrs	r3, r3, #5
 8006cc8:	011c      	lsls	r4, r3, #4
 8006cca:	f8d7 30fc 	ldr.w	r3, [r7, #252]	; 0xfc
 8006cce:	2200      	movs	r2, #0
 8006cd0:	f8c7 3088 	str.w	r3, [r7, #136]	; 0x88
 8006cd4:	f8c7 208c 	str.w	r2, [r7, #140]	; 0x8c
 8006cd8:	e9d7 8922 	ldrd	r8, r9, [r7, #136]	; 0x88
 8006cdc:	4642      	mov	r2, r8
 8006cde:	464b      	mov	r3, r9
 8006ce0:	1891      	adds	r1, r2, r2
 8006ce2:	61b9      	str	r1, [r7, #24]
 8006ce4:	415b      	adcs	r3, r3
 8006ce6:	61fb      	str	r3, [r7, #28]
 8006ce8:	e9d7 2306 	ldrd	r2, r3, [r7, #24]
 8006cec:	4641      	mov	r1, r8
 8006cee:	1851      	adds	r1, r2, r1
 8006cf0:	6139      	str	r1, [r7, #16]
 8006cf2:	4649      	mov	r1, r9
 8006cf4:	414b      	adcs	r3, r1
 8006cf6:	617b      	str	r3, [r7, #20]
 8006cf8:	f04f 0200 	mov.w	r2, #0
 8006cfc:	f04f 0300 	mov.w	r3, #0
 8006d00:	e9d7 ab04 	ldrd	sl, fp, [r7, #16]
 8006d04:	4659      	mov	r1, fp
 8006d06:	00cb      	lsls	r3, r1, #3
 8006d08:	4651      	mov	r1, sl
 8006d0a:	ea43 7351 	orr.w	r3, r3, r1, lsr #29
 8006d0e:	4651      	mov	r1, sl
 8006d10:	00ca      	lsls	r2, r1, #3
 8006d12:	4610      	mov	r0, r2
 8006d14:	4619      	mov	r1, r3
 8006d16:	4603      	mov	r3, r0
 8006d18:	4642      	mov	r2, r8
 8006d1a:	189b      	adds	r3, r3, r2
 8006d1c:	f8c7 3080 	str.w	r3, [r7, #128]	; 0x80
 8006d20:	464b      	mov	r3, r9
 8006d22:	460a      	mov	r2, r1
 8006d24:	eb42 0303 	adc.w	r3, r2, r3
 8006d28:	f8c7 3084 	str.w	r3, [r7, #132]	; 0x84
 8006d2c:	f8d7 30f4 	ldr.w	r3, [r7, #244]	; 0xf4
 8006d30:	685b      	ldr	r3, [r3, #4]
 8006d32:	2200      	movs	r2, #0
 8006d34:	67bb      	str	r3, [r7, #120]	; 0x78
 8006d36:	67fa      	str	r2, [r7, #124]	; 0x7c
 8006d38:	f04f 0200 	mov.w	r2, #0
 8006d3c:	f04f 0300 	mov.w	r3, #0
 8006d40:	e9d7 891e 	ldrd	r8, r9, [r7, #120]	; 0x78
 8006d44:	4649      	mov	r1, r9
 8006d46:	008b      	lsls	r3, r1, #2
 8006d48:	4641      	mov	r1, r8
 8006d4a:	ea43 7391 	orr.w	r3, r3, r1, lsr #30
 8006d4e:	4641      	mov	r1, r8
 8006d50:	008a      	lsls	r2, r1, #2
 8006d52:	e9d7 0120 	ldrd	r0, r1, [r7, #128]	; 0x80
 8006d56:	f7f9 fc13 	bl	8000580 <__aeabi_uldivmod>
 8006d5a:	4602      	mov	r2, r0
 8006d5c:	460b      	mov	r3, r1
 8006d5e:	4b39      	ldr	r3, [pc, #228]	; (8006e44 <UART_SetConfig+0x4e4>)
 8006d60:	fba3 1302 	umull	r1, r3, r3, r2
 8006d64:	095b      	lsrs	r3, r3, #5
 8006d66:	2164      	movs	r1, #100	; 0x64
 8006d68:	fb01 f303 	mul.w	r3, r1, r3
 8006d6c:	1ad3      	subs	r3, r2, r3
 8006d6e:	011b      	lsls	r3, r3, #4
 8006d70:	3332      	adds	r3, #50	; 0x32
 8006d72:	4a34      	ldr	r2, [pc, #208]	; (8006e44 <UART_SetConfig+0x4e4>)
 8006d74:	fba2 2303 	umull	r2, r3, r2, r3
 8006d78:	095b      	lsrs	r3, r3, #5
 8006d7a:	f003 03f0 	and.w	r3, r3, #240	; 0xf0
 8006d7e:	441c      	add	r4, r3
 8006d80:	f8d7 30fc 	ldr.w	r3, [r7, #252]	; 0xfc
 8006d84:	2200      	movs	r2, #0
 8006d86:	673b      	str	r3, [r7, #112]	; 0x70
 8006d88:	677a      	str	r2, [r7, #116]	; 0x74
 8006d8a:	e9d7 891c 	ldrd	r8, r9, [r7, #112]	; 0x70
 8006d8e:	4642      	mov	r2, r8
 8006d90:	464b      	mov	r3, r9
 8006d92:	1891      	adds	r1, r2, r2
 8006d94:	60b9      	str	r1, [r7, #8]
 8006d96:	415b      	adcs	r3, r3
 8006d98:	60fb      	str	r3, [r7, #12]
 8006d9a:	e9d7 2302 	ldrd	r2, r3, [r7, #8]
 8006d9e:	4641      	mov	r1, r8
 8006da0:	1851      	adds	r1, r2, r1
 8006da2:	6039      	str	r1, [r7, #0]
 8006da4:	4649      	mov	r1, r9
 8006da6:	414b      	adcs	r3, r1
 8006da8:	607b      	str	r3, [r7, #4]
 8006daa:	f04f 0200 	mov.w	r2, #0
 8006dae:	f04f 0300 	mov.w	r3, #0
 8006db2:	e9d7 ab00 	ldrd	sl, fp, [r7]
 8006db6:	4659      	mov	r1, fp
 8006db8:	00cb      	lsls	r3, r1, #3
 8006dba:	4651      	mov	r1, sl
 8006dbc:	ea43 7351 	orr.w	r3, r3, r1, lsr #29
 8006dc0:	4651      	mov	r1, sl
 8006dc2:	00ca      	lsls	r2, r1, #3
 8006dc4:	4610      	mov	r0, r2
 8006dc6:	4619      	mov	r1, r3
 8006dc8:	4603      	mov	r3, r0
 8006dca:	4642      	mov	r2, r8
 8006dcc:	189b      	adds	r3, r3, r2
 8006dce:	66bb      	str	r3, [r7, #104]	; 0x68
 8006dd0:	464b      	mov	r3, r9
 8006dd2:	460a      	mov	r2, r1
 8006dd4:	eb42 0303 	adc.w	r3, r2, r3
 8006dd8:	66fb      	str	r3, [r7, #108]	; 0x6c
 8006dda:	f8d7 30f4 	ldr.w	r3, [r7, #244]	; 0xf4
 8006dde:	685b      	ldr	r3, [r3, #4]
 8006de0:	2200      	movs	r2, #0
 8006de2:	663b      	str	r3, [r7, #96]	; 0x60
 8006de4:	667a      	str	r2, [r7, #100]	; 0x64
 8006de6:	f04f 0200 	mov.w	r2, #0
 8006dea:	f04f 0300 	mov.w	r3, #0
 8006dee:	e9d7 8918 	ldrd	r8, r9, [r7, #96]	; 0x60
 8006df2:	4649      	mov	r1, r9
 8006df4:	008b      	lsls	r3, r1, #2
 8006df6:	4641      	mov	r1, r8
 8006df8:	ea43 7391 	orr.w	r3, r3, r1, lsr #30
 8006dfc:	4641      	mov	r1, r8
 8006dfe:	008a      	lsls	r2, r1, #2
 8006e00:	e9d7 011a 	ldrd	r0, r1, [r7, #104]	; 0x68
 8006e04:	f7f9 fbbc 	bl	8000580 <__aeabi_uldivmod>
 8006e08:	4602      	mov	r2, r0
 8006e0a:	460b      	mov	r3, r1
 8006e0c:	4b0d      	ldr	r3, [pc, #52]	; (8006e44 <UART_SetConfig+0x4e4>)
 8006e0e:	fba3 1302 	umull	r1, r3, r3, r2
 8006e12:	095b      	lsrs	r3, r3, #5
 8006e14:	2164      	movs	r1, #100	; 0x64
 8006e16:	fb01 f303 	mul.w	r3, r1, r3
 8006e1a:	1ad3      	subs	r3, r2, r3
 8006e1c:	011b      	lsls	r3, r3, #4
 8006e1e:	3332      	adds	r3, #50	; 0x32
 8006e20:	4a08      	ldr	r2, [pc, #32]	; (8006e44 <UART_SetConfig+0x4e4>)
 8006e22:	fba2 2303 	umull	r2, r3, r2, r3
 8006e26:	095b      	lsrs	r3, r3, #5
 8006e28:	f003 020f 	and.w	r2, r3, #15
 8006e2c:	f8d7 30f4 	ldr.w	r3, [r7, #244]	; 0xf4
 8006e30:	681b      	ldr	r3, [r3, #0]
 8006e32:	4422      	add	r2, r4
 8006e34:	609a      	str	r2, [r3, #8]
 8006e36:	bf00      	nop
 8006e38:	f507 7780 	add.w	r7, r7, #256	; 0x100
 8006e3c:	46bd      	mov	sp, r7
 8006e3e:	e8bd 8fb0 	ldmia.w	sp!, {r4, r5, r7, r8, r9, sl, fp, pc}
 8006e42:	bf00      	nop
 8006e44:	51eb851f 	.word	0x51eb851f

08006e48 <FSMC_NORSRAM_Init>:
 8006e48:	b480      	push	{r7}
 8006e4a:	b087      	sub	sp, #28
 8006e4c:	af00      	add	r7, sp, #0
 8006e4e:	6078      	str	r0, [r7, #4]
 8006e50:	6039      	str	r1, [r7, #0]
 8006e52:	683b      	ldr	r3, [r7, #0]
 8006e54:	681a      	ldr	r2, [r3, #0]
 8006e56:	687b      	ldr	r3, [r7, #4]
 8006e58:	f853 3022 	ldr.w	r3, [r3, r2, lsl #2]
 8006e5c:	683a      	ldr	r2, [r7, #0]
 8006e5e:	6812      	ldr	r2, [r2, #0]
 8006e60:	f023 0101 	bic.w	r1, r3, #1
 8006e64:	687b      	ldr	r3, [r7, #4]
 8006e66:	f843 1022 	str.w	r1, [r3, r2, lsl #2]
 8006e6a:	683b      	ldr	r3, [r7, #0]
 8006e6c:	689b      	ldr	r3, [r3, #8]
 8006e6e:	2b08      	cmp	r3, #8
 8006e70:	d102      	bne.n	8006e78 <FSMC_NORSRAM_Init+0x30>
 8006e72:	2340      	movs	r3, #64	; 0x40
 8006e74:	617b      	str	r3, [r7, #20]
 8006e76:	e001      	b.n	8006e7c <FSMC_NORSRAM_Init+0x34>
 8006e78:	2300      	movs	r3, #0
 8006e7a:	617b      	str	r3, [r7, #20]
 8006e7c:	683b      	ldr	r3, [r7, #0]
 8006e7e:	685a      	ldr	r2, [r3, #4]
 8006e80:	697b      	ldr	r3, [r7, #20]
 8006e82:	431a      	orrs	r2, r3
 8006e84:	683b      	ldr	r3, [r7, #0]
 8006e86:	689b      	ldr	r3, [r3, #8]
 8006e88:	431a      	orrs	r2, r3
 8006e8a:	683b      	ldr	r3, [r7, #0]
 8006e8c:	68db      	ldr	r3, [r3, #12]
 8006e8e:	431a      	orrs	r2, r3
 8006e90:	683b      	ldr	r3, [r7, #0]
 8006e92:	691b      	ldr	r3, [r3, #16]
 8006e94:	431a      	orrs	r2, r3
 8006e96:	683b      	ldr	r3, [r7, #0]
 8006e98:	695b      	ldr	r3, [r3, #20]
 8006e9a:	431a      	orrs	r2, r3
 8006e9c:	683b      	ldr	r3, [r7, #0]
 8006e9e:	69db      	ldr	r3, [r3, #28]
 8006ea0:	431a      	orrs	r2, r3
 8006ea2:	683b      	ldr	r3, [r7, #0]
 8006ea4:	6a1b      	ldr	r3, [r3, #32]
 8006ea6:	431a      	orrs	r2, r3
 8006ea8:	683b      	ldr	r3, [r7, #0]
 8006eaa:	6a5b      	ldr	r3, [r3, #36]	; 0x24
 8006eac:	431a      	orrs	r2, r3
 8006eae:	683b      	ldr	r3, [r7, #0]
 8006eb0:	6a9b      	ldr	r3, [r3, #40]	; 0x28
 8006eb2:	431a      	orrs	r2, r3
 8006eb4:	683b      	ldr	r3, [r7, #0]
 8006eb6:	6adb      	ldr	r3, [r3, #44]	; 0x2c
 8006eb8:	431a      	orrs	r2, r3
 8006eba:	683b      	ldr	r3, [r7, #0]
 8006ebc:	6b1b      	ldr	r3, [r3, #48]	; 0x30
 8006ebe:	4313      	orrs	r3, r2
 8006ec0:	613b      	str	r3, [r7, #16]
 8006ec2:	683b      	ldr	r3, [r7, #0]
 8006ec4:	699b      	ldr	r3, [r3, #24]
 8006ec6:	693a      	ldr	r2, [r7, #16]
 8006ec8:	4313      	orrs	r3, r2
 8006eca:	613b      	str	r3, [r7, #16]
 8006ecc:	683b      	ldr	r3, [r7, #0]
 8006ece:	6bdb      	ldr	r3, [r3, #60]	; 0x3c
 8006ed0:	693a      	ldr	r2, [r7, #16]
 8006ed2:	4313      	orrs	r3, r2
 8006ed4:	613b      	str	r3, [r7, #16]
 8006ed6:	4b10      	ldr	r3, [pc, #64]	; (8006f18 <FSMC_NORSRAM_Init+0xd0>)
 8006ed8:	60fb      	str	r3, [r7, #12]
 8006eda:	68fb      	ldr	r3, [r7, #12]
 8006edc:	f443 6380 	orr.w	r3, r3, #1024	; 0x400
 8006ee0:	60fb      	str	r3, [r7, #12]
 8006ee2:	68fb      	ldr	r3, [r7, #12]
 8006ee4:	f443 23e0 	orr.w	r3, r3, #458752	; 0x70000
 8006ee8:	60fb      	str	r3, [r7, #12]
 8006eea:	683b      	ldr	r3, [r7, #0]
 8006eec:	681a      	ldr	r2, [r3, #0]
 8006eee:	687b      	ldr	r3, [r7, #4]
 8006ef0:	f853 2022 	ldr.w	r2, [r3, r2, lsl #2]
 8006ef4:	68fb      	ldr	r3, [r7, #12]
 8006ef6:	43db      	mvns	r3, r3
 8006ef8:	ea02 0103 	and.w	r1, r2, r3
 8006efc:	683b      	ldr	r3, [r7, #0]
 8006efe:	681a      	ldr	r2, [r3, #0]
 8006f00:	693b      	ldr	r3, [r7, #16]
 8006f02:	4319      	orrs	r1, r3
 8006f04:	687b      	ldr	r3, [r7, #4]
 8006f06:	f843 1022 	str.w	r1, [r3, r2, lsl #2]
 8006f0a:	2300      	movs	r3, #0
 8006f0c:	4618      	mov	r0, r3
 8006f0e:	371c      	adds	r7, #28
 8006f10:	46bd      	mov	sp, r7
 8006f12:	f85d 7b04 	ldr.w	r7, [sp], #4
 8006f16:	4770      	bx	lr
 8006f18:	0008fb7f 	.word	0x0008fb7f

08006f1c <FSMC_NORSRAM_Timing_Init>:
 8006f1c:	b480      	push	{r7}
 8006f1e:	b085      	sub	sp, #20
 8006f20:	af00      	add	r7, sp, #0
 8006f22:	60f8      	str	r0, [r7, #12]
 8006f24:	60b9      	str	r1, [r7, #8]
 8006f26:	607a      	str	r2, [r7, #4]
 8006f28:	687b      	ldr	r3, [r7, #4]
 8006f2a:	1c5a      	adds	r2, r3, #1
 8006f2c:	68fb      	ldr	r3, [r7, #12]
 8006f2e:	f853 3022 	ldr.w	r3, [r3, r2, lsl #2]
 8006f32:	f003 4140 	and.w	r1, r3, #3221225472	; 0xc0000000
 8006f36:	68bb      	ldr	r3, [r7, #8]
 8006f38:	681a      	ldr	r2, [r3, #0]
 8006f3a:	68bb      	ldr	r3, [r7, #8]
 8006f3c:	685b      	ldr	r3, [r3, #4]
 8006f3e:	011b      	lsls	r3, r3, #4
 8006f40:	431a      	orrs	r2, r3
 8006f42:	68bb      	ldr	r3, [r7, #8]
 8006f44:	689b      	ldr	r3, [r3, #8]
 8006f46:	021b      	lsls	r3, r3, #8
 8006f48:	431a      	orrs	r2, r3
 8006f4a:	68bb      	ldr	r3, [r7, #8]
 8006f4c:	68db      	ldr	r3, [r3, #12]
 8006f4e:	041b      	lsls	r3, r3, #16
 8006f50:	431a      	orrs	r2, r3
 8006f52:	68bb      	ldr	r3, [r7, #8]
 8006f54:	691b      	ldr	r3, [r3, #16]
 8006f56:	3b01      	subs	r3, #1
 8006f58:	051b      	lsls	r3, r3, #20
 8006f5a:	431a      	orrs	r2, r3
 8006f5c:	68bb      	ldr	r3, [r7, #8]
 8006f5e:	695b      	ldr	r3, [r3, #20]
 8006f60:	3b02      	subs	r3, #2
 8006f62:	061b      	lsls	r3, r3, #24
 8006f64:	431a      	orrs	r2, r3
 8006f66:	68bb      	ldr	r3, [r7, #8]
 8006f68:	699b      	ldr	r3, [r3, #24]
 8006f6a:	4313      	orrs	r3, r2
 8006f6c:	687a      	ldr	r2, [r7, #4]
 8006f6e:	3201      	adds	r2, #1
 8006f70:	4319      	orrs	r1, r3
 8006f72:	68fb      	ldr	r3, [r7, #12]
 8006f74:	f843 1022 	str.w	r1, [r3, r2, lsl #2]
 8006f78:	2300      	movs	r3, #0
 8006f7a:	4618      	mov	r0, r3
 8006f7c:	3714      	adds	r7, #20
 8006f7e:	46bd      	mov	sp, r7
 8006f80:	f85d 7b04 	ldr.w	r7, [sp], #4
 8006f84:	4770      	bx	lr
	...

08006f88 <FSMC_NORSRAM_Extended_Timing_Init>:
 8006f88:	b480      	push	{r7}
 8006f8a:	b085      	sub	sp, #20
 8006f8c:	af00      	add	r7, sp, #0
 8006f8e:	60f8      	str	r0, [r7, #12]
 8006f90:	60b9      	str	r1, [r7, #8]
 8006f92:	607a      	str	r2, [r7, #4]
 8006f94:	603b      	str	r3, [r7, #0]
 8006f96:	683b      	ldr	r3, [r7, #0]
 8006f98:	f5b3 4f80 	cmp.w	r3, #16384	; 0x4000
 8006f9c:	d11d      	bne.n	8006fda <FSMC_NORSRAM_Extended_Timing_Init+0x52>
 8006f9e:	68fb      	ldr	r3, [r7, #12]
 8006fa0:	687a      	ldr	r2, [r7, #4]
 8006fa2:	f853 2022 	ldr.w	r2, [r3, r2, lsl #2]
 8006fa6:	4b13      	ldr	r3, [pc, #76]	; (8006ff4 <FSMC_NORSRAM_Extended_Timing_Init+0x6c>)
 8006fa8:	4013      	ands	r3, r2
 8006faa:	68ba      	ldr	r2, [r7, #8]
 8006fac:	6811      	ldr	r1, [r2, #0]
 8006fae:	68ba      	ldr	r2, [r7, #8]
 8006fb0:	6852      	ldr	r2, [r2, #4]
 8006fb2:	0112      	lsls	r2, r2, #4
 8006fb4:	4311      	orrs	r1, r2
 8006fb6:	68ba      	ldr	r2, [r7, #8]
 8006fb8:	6892      	ldr	r2, [r2, #8]
 8006fba:	0212      	lsls	r2, r2, #8
 8006fbc:	4311      	orrs	r1, r2
 8006fbe:	68ba      	ldr	r2, [r7, #8]
 8006fc0:	6992      	ldr	r2, [r2, #24]
 8006fc2:	4311      	orrs	r1, r2
 8006fc4:	68ba      	ldr	r2, [r7, #8]
 8006fc6:	68d2      	ldr	r2, [r2, #12]
 8006fc8:	0412      	lsls	r2, r2, #16
 8006fca:	430a      	orrs	r2, r1
 8006fcc:	ea43 0102 	orr.w	r1, r3, r2
 8006fd0:	68fb      	ldr	r3, [r7, #12]
 8006fd2:	687a      	ldr	r2, [r7, #4]
 8006fd4:	f843 1022 	str.w	r1, [r3, r2, lsl #2]
 8006fd8:	e005      	b.n	8006fe6 <FSMC_NORSRAM_Extended_Timing_Init+0x5e>
 8006fda:	68fb      	ldr	r3, [r7, #12]
 8006fdc:	687a      	ldr	r2, [r7, #4]
 8006fde:	f06f 4170 	mvn.w	r1, #4026531840	; 0xf0000000
 8006fe2:	f843 1022 	str.w	r1, [r3, r2, lsl #2]
 8006fe6:	2300      	movs	r3, #0
 8006fe8:	4618      	mov	r0, r3
 8006fea:	3714      	adds	r7, #20
 8006fec:	46bd      	mov	sp, r7
 8006fee:	f85d 7b04 	ldr.w	r7, [sp], #4
 8006ff2:	4770      	bx	lr
 8006ff4:	cff00000 	.word	0xcff00000

08006ff8 <__libc_init_array>:
 8006ff8:	b570      	push	{r4, r5, r6, lr}
 8006ffa:	4d0d      	ldr	r5, [pc, #52]	; (8007030 <__libc_init_array+0x38>)
 8006ffc:	4c0d      	ldr	r4, [pc, #52]	; (8007034 <__libc_init_array+0x3c>)
 8006ffe:	1b64      	subs	r4, r4, r5
 8007000:	10a4      	asrs	r4, r4, #2
 8007002:	2600      	movs	r6, #0
 8007004:	42a6      	cmp	r6, r4
 8007006:	d109      	bne.n	800701c <__libc_init_array+0x24>
 8007008:	4d0b      	ldr	r5, [pc, #44]	; (8007038 <__libc_init_array+0x40>)
 800700a:	4c0c      	ldr	r4, [pc, #48]	; (800703c <__libc_init_array+0x44>)
 800700c:	f000 f866 	bl	80070dc <_init>
 8007010:	1b64      	subs	r4, r4, r5
 8007012:	10a4      	asrs	r4, r4, #2
 8007014:	2600      	movs	r6, #0
 8007016:	42a6      	cmp	r6, r4
 8007018:	d105      	bne.n	8007026 <__libc_init_array+0x2e>
 800701a:	bd70      	pop	{r4, r5, r6, pc}
 800701c:	f855 3b04 	ldr.w	r3, [r5], #4
 8007020:	4798      	blx	r3
 8007022:	3601      	adds	r6, #1
 8007024:	e7ee      	b.n	8007004 <__libc_init_array+0xc>
 8007026:	f855 3b04 	ldr.w	r3, [r5], #4
 800702a:	4798      	blx	r3
 800702c:	3601      	adds	r6, #1
 800702e:	e7f2      	b.n	8007016 <__libc_init_array+0x1e>
 8007030:	0800a0ac 	.word	0x0800a0ac
 8007034:	0800a0ac 	.word	0x0800a0ac
 8007038:	0800a0ac 	.word	0x0800a0ac
 800703c:	0800a0b0 	.word	0x0800a0b0

08007040 <memset>:
 8007040:	4402      	add	r2, r0
 8007042:	4603      	mov	r3, r0
 8007044:	4293      	cmp	r3, r2
 8007046:	d100      	bne.n	800704a <memset+0xa>
 8007048:	4770      	bx	lr
 800704a:	f803 1b01 	strb.w	r1, [r3], #1
 800704e:	e7f9      	b.n	8007044 <memset+0x4>

08007050 <round>:
 8007050:	ec51 0b10 	vmov	r0, r1, d0
 8007054:	b570      	push	{r4, r5, r6, lr}
 8007056:	f3c1 550a 	ubfx	r5, r1, #20, #11
 800705a:	f2a5 34ff 	subw	r4, r5, #1023	; 0x3ff
 800705e:	2c13      	cmp	r4, #19
 8007060:	ee10 2a10 	vmov	r2, s0
 8007064:	460b      	mov	r3, r1
 8007066:	dc19      	bgt.n	800709c <round+0x4c>
 8007068:	2c00      	cmp	r4, #0
 800706a:	da09      	bge.n	8007080 <round+0x30>
 800706c:	3401      	adds	r4, #1
 800706e:	f001 4300 	and.w	r3, r1, #2147483648	; 0x80000000
 8007072:	d103      	bne.n	800707c <round+0x2c>
 8007074:	f043 537f 	orr.w	r3, r3, #1069547520	; 0x3fc00000
 8007078:	f443 1340 	orr.w	r3, r3, #3145728	; 0x300000
 800707c:	2200      	movs	r2, #0
 800707e:	e028      	b.n	80070d2 <round+0x82>
 8007080:	4d15      	ldr	r5, [pc, #84]	; (80070d8 <round+0x88>)
 8007082:	4125      	asrs	r5, r4
 8007084:	ea01 0605 	and.w	r6, r1, r5
 8007088:	4332      	orrs	r2, r6
 800708a:	d00e      	beq.n	80070aa <round+0x5a>
 800708c:	f44f 2200 	mov.w	r2, #524288	; 0x80000
 8007090:	fa42 f404 	asr.w	r4, r2, r4
 8007094:	4423      	add	r3, r4
 8007096:	ea23 0305 	bic.w	r3, r3, r5
 800709a:	e7ef      	b.n	800707c <round+0x2c>
 800709c:	2c33      	cmp	r4, #51	; 0x33
 800709e:	dd07      	ble.n	80070b0 <round+0x60>
 80070a0:	f5b4 6f80 	cmp.w	r4, #1024	; 0x400
 80070a4:	d101      	bne.n	80070aa <round+0x5a>
 80070a6:	f7f9 f895 	bl	80001d4 <__adddf3>
 80070aa:	ec41 0b10 	vmov	d0, r0, r1
 80070ae:	bd70      	pop	{r4, r5, r6, pc}
 80070b0:	f2a5 4613 	subw	r6, r5, #1043	; 0x413
 80070b4:	f04f 35ff 	mov.w	r5, #4294967295
 80070b8:	40f5      	lsrs	r5, r6
 80070ba:	4228      	tst	r0, r5
 80070bc:	d0f5      	beq.n	80070aa <round+0x5a>
 80070be:	2101      	movs	r1, #1
 80070c0:	f1c4 0433 	rsb	r4, r4, #51	; 0x33
 80070c4:	fa01 f404 	lsl.w	r4, r1, r4
 80070c8:	1912      	adds	r2, r2, r4
 80070ca:	bf28      	it	cs
 80070cc:	185b      	addcs	r3, r3, r1
 80070ce:	ea22 0205 	bic.w	r2, r2, r5
 80070d2:	4619      	mov	r1, r3
 80070d4:	4610      	mov	r0, r2
 80070d6:	e7e8      	b.n	80070aa <round+0x5a>
 80070d8:	000fffff 	.word	0x000fffff

080070dc <_init>:
 80070dc:	b5f8      	push	{r3, r4, r5, r6, r7, lr}
 80070de:	bf00      	nop
 80070e0:	bcf8      	pop	{r3, r4, r5, r6, r7}
 80070e2:	bc08      	pop	{r3}
 80070e4:	469e      	mov	lr, r3
 80070e6:	4770      	bx	lr

080070e8 <_fini>:
 80070e8:	b5f8      	push	{r3, r4, r5, r6, r7, lr}
 80070ea:	bf00      	nop
 80070ec:	bcf8      	pop	{r3, r4, r5, r6, r7}
 80070ee:	bc08      	pop	{r3}
 80070f0:	469e      	mov	lr, r3
 80070f2:	4770      	bx	lr
